 uix86

 Timestamp is 593ab3c0 (Fri Jun 09 10:42:08 2017)

 Preferred load address is 40000000

 Start         Length     Name                   Class
 0001:00000000 00054e88H .text                   CODE
 0001:00054e88 00026908H .textbss                CODE
 0002:00000000 00007ba9H .rdata                  DATA
 0002:00007bb0 00000167H .edata                  DATA
 0003:00000000 00000104H .CRT$XCA                DATA
 0003:00000104 00000104H .CRT$XCZ                DATA
 0003:00000208 00000104H .CRT$XIA                DATA
 0003:0000030c 00000109H .CRT$XIC                DATA
 0003:00000418 00000104H .CRT$XIZ                DATA
 0003:0000051c 00000104H .CRT$XPA                DATA
 0003:00000620 00000104H .CRT$XPX                DATA
 0003:00000724 00000104H .CRT$XPZ                DATA
 0003:00000828 00000104H .CRT$XTA                DATA
 0003:0000092c 00000104H .CRT$XTZ                DATA
 0003:00000a30 00004fb5H .data                   DATA
 0003:000059e8 00086318H .bss                    DATA
 0004:00000000 00000014H .idata$2                DATA
 0004:00000014 00000014H .idata$3                DATA
 0004:00000028 0000018cH .idata$4                DATA
 0004:000001b4 0000018cH .idata$5                DATA
 0004:00000340 000006c8H .idata$6                DATA

  Address         Publics by Value              Rva+Base     Lib:Object

 0001:00000ec0       _BG_FindItemForPowerup     40001ec0 f   bg_misc.obj
 0001:00000f70       _BG_FindItemForHoldable    40001f70 f   bg_misc.obj
 0001:00001020       _BG_FindItemForWeapon      40002020 f   bg_misc.obj
 0001:000010b0       _BG_FindItem               400020b0 f   bg_misc.obj
 0001:00001130       _BG_PlayerTouchesItem      40002130 f   bg_misc.obj
 0001:00001230       _BG_CanItemBeGrabbed       40002230 f   bg_misc.obj
 0001:00001510       _BG_EvaluateTrajectory     40002510 f   bg_misc.obj
 0001:00001820       _BG_EvaluateTrajectoryDelta 40002820 f   bg_misc.obj
 0001:00001a70       _BG_AddPredictableEventToPlayerstate 40002a70 f   bg_misc.obj
 0001:00001b70       _BG_TouchJumpPad           40002b70 f   bg_misc.obj
 0001:00001ba0       _BG_PlayerStateToEntityState 40002ba0 f   bg_misc.obj
 0001:00002050       _BG_PlayerStateToEntityStateExtraPolate 40003050 f   bg_misc.obj
 0001:00002510       _Q_rand                    40003510 f   q_math.obj
 0001:00002560       _Q_random                  40003560 f   q_math.obj
 0001:000025c0       _Q_crandom                 400035c0 f   q_math.obj
 0001:00002610       _ClampChar                 40003610 f   q_math.obj
 0001:00002660       _ClampShort                40003660 f   q_math.obj
 0001:000026c0       _DirToByte                 400036c0 f   q_math.obj
 0001:000027a0       _ByteToDir                 400037a0 f   q_math.obj
 0001:00002850       _ColorBytes3               40003850 f   q_math.obj
 0001:000028c0       _ColorBytes4               400038c0 f   q_math.obj
 0001:00002940       _NormalizeColor            40003940 f   q_math.obj
 0001:00002a30       _PlaneFromPoints           40003a30 f   q_math.obj
 0001:00002bf0       _RotatePointAroundVector   40003bf0 f   q_math.obj
 0001:00002ed0       _RotateAroundDirection     40003ed0 f   q_math.obj
 0001:00002fa0       _vectoangles               40003fa0 f   q_math.obj
 0001:00003190       _AnglesToAxis              40004190 f   q_math.obj
 0001:00003220       _AxisClear                 40004220 f   q_math.obj
 0001:000032c0       _AxisCopy                  400042c0 f   q_math.obj
 0001:00003370       _ProjectPointOnPlane       40004370 f   q_math.obj
 0001:00003510       _MakeNormalVectors         40004510 f   q_math.obj
 0001:00003620       _VectorRotate              40004620 f   q_math.obj
 0001:000036f0       _Q_rsqrt                   400046f0 f   q_math.obj
 0001:00003770       _Q_fabs                    40004770 f   q_math.obj
 0001:000037c0       _LerpAngle                 400047c0 f   q_math.obj
 0001:00003850       _AngleSubtract             40004850 f   q_math.obj
 0001:000038d0       _AnglesSubtract            400048d0 f   q_math.obj
 0001:00003970       _AngleMod                  40004970 f   q_math.obj
 0001:000039d0       _AngleNormalize360         400049d0 f   q_math.obj
 0001:00003a30       _AngleNormalize180         40004a30 f   q_math.obj
 0001:00003aa0       _AngleDelta                40004aa0 f   q_math.obj
 0001:00003af0       _SetPlaneSignbits          40004af0 f   q_math.obj
 0001:00003b80       _BoxOnPlaneSide            40004b80 f   q_math.obj
 0001:00003e50       _RadiusFromBounds          40004e50 f   q_math.obj
 0001:00003fb0       _ClearBounds               40004fb0 f   q_math.obj
 0001:00004020       _AddPointToBounds          40005020 f   q_math.obj
 0001:00004130       _VectorNormalize           40005130 f   q_math.obj
 0001:00004210       _VectorNormalize2          40005210 f   q_math.obj
 0001:00004310       __VectorMA                 40005310 f   q_math.obj
 0001:00004390       __DotProduct               40005390 f   q_math.obj
 0001:000043f0       __VectorSubtract           400053f0 f   q_math.obj
 0001:00004460       __VectorAdd                40005460 f   q_math.obj
 0001:000044d0       __VectorCopy               400054d0 f   q_math.obj
 0001:00004530       __VectorScale              40005530 f   q_math.obj
 0001:00004590       _Vector4Scale              40005590 f   q_math.obj
 0001:00004600       _Q_log2                    40005600 f   q_math.obj
 0001:00004660       _MatrixMultiply            40005660 f   q_math.obj
 0001:00004890       _AngleVectors              40005890 f   q_math.obj
 0001:00004b10       _PerpendicularVector       40005b10 f   q_math.obj
 0001:00004c20       _TransposeMatrix           40005c20 f   q_math.obj
 0001:00004cc0       _Com_Clamp                 40005cc0 f   q_shared.obj
 0001:00004d20       _COM_SkipPath              40005d20 f   q_shared.obj
 0001:00004d90       _COM_StripExtension        40005d90 f   q_shared.obj
 0001:00004e00       _COM_DefaultExtension      40005e00 f   q_shared.obj
 0001:00004ed0       _ShortSwap                 40005ed0 f   q_shared.obj
 0001:00004f40       _ShortNoSwap               40005f40 f   q_shared.obj
 0001:00004f70       _LongSwap                  40005f70 f   q_shared.obj
 0001:00005020       _LongNoSwap                40006020 f   q_shared.obj
 0001:00005050       _Long64Swap                40006050 f   q_shared.obj
 0001:000050c0       _Long64NoSwap              400060c0 f   q_shared.obj
 0001:000050f0       _FloatSwap                 400060f0 f   q_shared.obj
 0001:00005150       _FloatNoSwap               40006150 f   q_shared.obj
 0001:00005180       _COM_BeginParseSession     40006180 f   q_shared.obj
 0001:000051f0       _COM_GetCurrentParseLine   400061f0 f   q_shared.obj
 0001:00005220       _COM_Parse                 40006220 f   q_shared.obj
 0001:00005270       _COM_ParseError            40006270 f   q_shared.obj
 0001:00005300       _COM_ParseWarning          40006300 f   q_shared.obj
 0001:00005390       _COM_Compress              40006390 f   q_shared.obj
 0001:00005630       _COM_ParseExt              40006630 f   q_shared.obj
 0001:00005990       _COM_MatchToken            40006990 f   q_shared.obj
 0001:00005a10       _SkipBracedSection         40006a10 f   q_shared.obj
 0001:00005ac0       _SkipRestOfLine            40006ac0 f   q_shared.obj
 0001:00005b40       _Parse1DMatrix             40006b40 f   q_shared.obj
 0001:00005bf0       _Parse2DMatrix             40006bf0 f   q_shared.obj
 0001:00005ca0       _Parse3DMatrix             40006ca0 f   q_shared.obj
 0001:00005d50       _Q_isprint                 40006d50 f   q_shared.obj
 0001:00005da0       _Q_islower                 40006da0 f   q_shared.obj
 0001:00005df0       _Q_isupper                 40006df0 f   q_shared.obj
 0001:00005e40       _Q_isalpha                 40006e40 f   q_shared.obj
 0001:00005e90       _Q_strrchr                 40006e90 f   q_shared.obj
 0001:00005f20       _Q_strncpyz                40006f20 f   q_shared.obj
 0001:00005fd0       _Q_stricmpn                40006fd0 f   q_shared.obj
 0001:000060f0       _Q_strncmp                 400070f0 f   q_shared.obj
 0001:00006190       _Q_stricmp                 40007190 f   q_shared.obj
 0001:00006200       _Q_strlwr                  40007200 f   q_shared.obj
 0001:00006280       _Q_strupr                  40007280 f   q_shared.obj
 0001:00006300       _Q_strcat                  40007300 f   q_shared.obj
 0001:00006390       _Q_PrintStrlen             40007390 f   q_shared.obj
 0001:00006440       _Q_CleanStr                40007440 f   q_shared.obj
 0001:00006510       _Com_sprintf               40007510 f   q_shared.obj
 0001:000065f0       _va                        400075f0 f   q_shared.obj
 0001:00006680       _Info_ValueForKey          40007680 f   q_shared.obj
 0001:00006890       _Info_NextPair             40007890 f   q_shared.obj
 0001:000069b0       _Info_RemoveKey            400079b0 f   q_shared.obj
 0001:00006ba0       _Info_RemoveKey_Big        40007ba0 f   q_shared.obj
 0001:00006d90       _Info_Validate             40007d90 f   q_shared.obj
 0001:00006e00       _Info_SetValueForKey       40007e00 f   q_shared.obj
 0001:00007010       _Info_SetValueForKey_Big   40008010 f   q_shared.obj
 0001:00007200       _UI_AddBots_Cache          40008200 f   ui_addbots.obj
 0001:000072c0       _UI_AddBotsMenu            400082c0 f   ui_addbots.obj
 0001:00007e80       _Com_Error                 40008e80 f   ui_atoms.obj
 0001:00007f10       _Com_Printf                40008f10 f   ui_atoms.obj
 0001:00007fa0       _UI_ClampCvar              40008fa0 f   ui_atoms.obj
 0001:00008000       _UI_StartDemoLoop          40009000 f   ui_atoms.obj
 0001:00008050       _UI_PushMenu               40009050 f   ui_atoms.obj
 0001:000081d0       _UI_PopMenu                400091d0 f   ui_atoms.obj
 0001:00008280       _UI_ForceMenuOff           40009280 f   ui_atoms.obj
 0001:00008300       _UI_LerpColor              40009300 f   ui_atoms.obj
 0001:000083e0       _UI_DrawBannerString       400093e0 f   ui_atoms.obj
 0001:00008770       _UI_ProportionalStringWidth 40009770 f   ui_atoms.obj
 0001:00008810       _UI_ProportionalSizeScale  40009810 f   ui_atoms.obj
 0001:00008860       _UI_DrawProportionalString 40009860 f   ui_atoms.obj
 0001:00008d60       _UI_DrawProportionalString_AutoWrapped 40009d60 f   ui_atoms.obj
 0001:00008f80       _UI_DrawString             40009f80 f   ui_atoms.obj
 0001:00009450       _UI_DrawChar               4000a450 f   ui_atoms.obj
 0001:000094c0       _UI_IsFullscreen           4000a4c0 f   ui_atoms.obj
 0001:00009520       _UI_SetActiveMenu          4000a520 f   ui_atoms.obj
 0001:000096b0       _UI_KeyEvent               4000a6b0 f   ui_atoms.obj
 0001:00009780       _UI_MouseEvent             4000a780 f   ui_atoms.obj
 0001:00009a10       _UI_Argv                   4000aa10 f   ui_atoms.obj
 0001:00009a70       _UI_Cvar_VariableString    4000aa70 f   ui_atoms.obj
 0001:00009ad0       _UI_Cache_f                4000aad0 f   ui_atoms.obj
 0001:00009bc0       _UI_ConsoleCommand         4000abc0 f   ui_atoms.obj
 0001:00009d70       _UI_Shutdown               4000ad70 f   ui_atoms.obj
 0001:00009da0       _UI_Init                   4000ada0 f   ui_atoms.obj
 0001:00009e80       _UI_AdjustFrom640          4000ae80 f   ui_atoms.obj
 0001:00009f00       _UI_DrawNamedPic           4000af00 f   ui_atoms.obj
 0001:00009fa0       _UI_DrawHandlePic          4000afa0 f   ui_atoms.obj
 0001:0000a0b0       _UI_FillRect               4000b0b0 f   ui_atoms.obj
 0001:0000a150       _UI_DrawRect               4000b150 f   ui_atoms.obj
 0001:0000a2b0       _UI_SetColor               4000b2b0 f   ui_atoms.obj
 0001:0000a300       _UI_UpdateScreen           4000b300 f   ui_atoms.obj
 0001:0000a340       _UI_Refresh                4000b340 f   ui_atoms.obj
 0001:0000a560       _UI_DrawTextBox            4000b560 f   ui_atoms.obj
 0001:0000a670       _UI_CursorInRect           4000b670 f   ui_atoms.obj
 0001:0000a6e0       _UI_CDKeyMenu_Cache        4000b6e0 f   ui_cdkey.obj
 0001:0000a770       _UI_CDKeyMenu              4000b770 f   ui_cdkey.obj
 0001:0000ae90       _UI_CDKeyMenu_f            4000be90 f   ui_cdkey.obj
 0001:0000aed0       _UI_CinematicsMenu_Cache   4000bed0 f   ui_cinematics.obj
 0001:0000af50       _UI_CinematicsMenu         4000bf50 f   ui_cinematics.obj
 0001:0000b9c0       _UI_CinematicsMenu_f       4000c9c0 f   ui_cinematics.obj
 0001:0000ba40       _ConfirmMenu_Cache         4000ca40 f   ui_confirm.obj
 0001:0000ba90       _UI_ConfirmMenu_Style      4000ca90 f   ui_confirm.obj
 0001:0000c010       _UI_ConfirmMenu            4000d010 f   ui_confirm.obj
 0001:0000c070       _UI_Message                4000d070 f   ui_confirm.obj
 0001:0000c330       _UI_DrawConnectScreen      4000d330 f   ui_connect.obj
 0001:0000cf20       _UI_KeyConnect             4000df20 f   ui_connect.obj
 0001:0000cf70       _Controls_Cache            4000df70 f   ui_controls2.obj
 0001:0000cff0       _UI_ControlsMenu           4000dff0 f   ui_controls2.obj
 0001:0000ffe0       _UI_CreditMenu             40010fe0 f   ui_credits.obj
 0001:00010300       _Demos_Cache               40011300 f   ui_demo2.obj
 0001:000103d0       _UI_DemosMenu              400113d0 f   ui_demo2.obj
 0001:00010bd0       _UI_DisplayOptionsMenu_Cache 40011bd0 f   ui_display.obj
 0001:00010c50       _UI_DisplayOptionsMenu     40011c50 f   ui_display.obj
 0001:000113a0       _UI_Alloc                  400123a0 f   ui_gameinfo.obj
 0001:00011420       _UI_InitMemory             40012420 f   ui_gameinfo.obj
 0001:00011460       _UI_ParseInfos             40012460 f   ui_gameinfo.obj
 0001:000116c0       _UI_GetArenaInfoByNumber   400126c0 f   ui_gameinfo.obj
 0001:000117b0       _UI_GetArenaInfoByMap      400127b0 f   ui_gameinfo.obj
 0001:00011850       _UI_GetSpecialArenaInfo    40012850 f   ui_gameinfo.obj
 0001:000118f0       _UI_GetBotInfoByNumber     400128f0 f   ui_gameinfo.obj
 0001:00011970       _UI_GetBotInfoByName       40012970 f   ui_gameinfo.obj
 0001:00011a20       _UI_GetBestScore           40012a20 f   ui_gameinfo.obj
 0001:00011b90       _UI_SetBestScore           40012b90 f   ui_gameinfo.obj
 0001:00011d00       _UI_LogAwardData           40012d00 f   ui_gameinfo.obj
 0001:00011e30       _UI_GetAwardLevel          40012e30 f   ui_gameinfo.obj
 0001:00011ed0       _UI_TierCompleted          40012ed0 f   ui_gameinfo.obj
 0001:00012020       _UI_ShowTierVideo          40013020 f   ui_gameinfo.obj
 0001:00012130       _UI_CanShowTierVideo       40013130 f   ui_gameinfo.obj
 0001:00012210       _UI_GetCurrentGame         40013210 f   ui_gameinfo.obj
 0001:00012350       _UI_NewGame                40013350 f   ui_gameinfo.obj
 0001:00012420       _UI_GetNumArenas           40013420 f   ui_gameinfo.obj
 0001:00012450       _UI_GetNumSPArenas         40013450 f   ui_gameinfo.obj
 0001:00012480       _UI_GetNumSPTiers          40013480 f   ui_gameinfo.obj
 0001:000124c0       _UI_GetNumBots             400134c0 f   ui_gameinfo.obj
 0001:000124f0       _UI_SPUnlock_f             400134f0 f   ui_gameinfo.obj
 0001:00012640       _UI_SPUnlockMedals_f       40013640 f   ui_gameinfo.obj
 0001:00012730       _UI_InitGameinfo           40013730 f   ui_gameinfo.obj
 0001:00013250       _InGame_Event              40014250 f   ui_ingame.obj
 0001:00013430       _InGame_MenuInit           40014430 f   ui_ingame.obj
 0001:00013c90       _InGame_Cache              40014c90 f   ui_ingame.obj
 0001:00013ce0       _UI_InGameMenu             40014ce0 f   ui_ingame.obj
 0001:00013d50       _vmMain                    40014d50 f   ui_main.obj
 0001:00013ea0       _UI_RegisterCvars          40014ea0 f   ui_main.obj
 0001:00013f40       _UI_UpdateCvars            40014f40 f   ui_main.obj
 0001:00013fc0       _Main_MenuEvent            40014fc0 f   ui_menu.obj
 0001:00014120       _MainMenu_Cache            40015120 f   ui_menu.obj
 0001:00014170       _ErrorMessage_Key          40015170 f   ui_menu.obj
 0001:000141d0       _UI_MainMenu               400151d0 f   ui_menu.obj
 0001:00014d90       _MField_Draw               40015d90 f   ui_mfield.obj
 0001:00015010       _MField_Paste              40016010 f   ui_mfield.obj
 0001:000150b0       _MField_KeyDownEvent       400160b0 f   ui_mfield.obj
 0001:00015370       _MField_CharEvent          40016370 f   ui_mfield.obj
 0001:00015640       _MField_Clear              40016640 f   ui_mfield.obj
 0001:00015690       _MenuField_Init            40016690 f   ui_mfield.obj
 0001:000157a0       _MenuField_Draw            400167a0 f   ui_mfield.obj
 0001:000159a0       _MenuField_Key             400169a0 f   ui_mfield.obj
 0001:00015c10       _UI_ModsMenu_Cache         40016c10 f   ui_mods.obj
 0001:00015cb0       _UI_ModsMenu               40016cb0 f   ui_mods.obj
 0001:000163d0       _UI_NetworkOptionsMenu_Cache 400173d0 f   ui_network.obj
 0001:00016450       _UI_NetworkOptionsMenu     40017450 f   ui_network.obj
 0001:00016bc0       _SystemConfig_Cache        40017bc0 f   ui_options.obj
 0001:00016c40       _Options_MenuInit          40017c40 f   ui_options.obj
 0001:000171c0       _UI_SystemConfigMenu       400181c0 f   ui_options.obj
 0001:00017210       _PlayerModel_Cache         40018210 f   ui_playermodel.obj
 0001:00017670       _UI_PlayerModelMenu        40018670 f   ui_playermodel.obj
 0001:00018c80       _UI_MachinegunSpinAngle    40019c80 f   ui_players.obj
 0001:00018dd0       _UI_DrawPlayer             40019dd0 f   ui_players.obj
 0001:0001b1c0       _UI_RegisterClientModelname 4001c1c0 f   ui_players.obj
 0001:0001ba10       _UI_PlayerInfo_SetModel    4001ca10 f   ui_players.obj
 0001:0001bb10       _UI_PlayerInfo_SetInfo     4001cb10 f   ui_players.obj
 0001:0001bfb0       _PlayerSettings_Cache      4001cfb0 f   ui_playersettings.obj
 0001:0001c100       _UI_PlayerSettingsMenu     4001d100 f   ui_playersettings.obj
 0001:0001d090       _Preferences_Cache         4001e090 f   ui_preferences.obj
 0001:0001d160       _UI_PreferencesMenu        4001e160 f   ui_preferences.obj
 0001:0001e0f0       _Bitmap_Init               4001f0f0 f   ui_qmenu.obj
 0001:0001e200       _Bitmap_Draw               4001f200 f   ui_qmenu.obj
 0001:0001e5a0       _ScrollList_Key            4001f5a0 f   ui_qmenu.obj
 0001:0001eff0       _ScrollList_Draw           4001fff0 f   ui_qmenu.obj
 0001:0001f220       _Menu_AddItem              40020220 f   ui_qmenu.obj
 0001:0001fac0       _Menu_CursorMoved          40020ac0 f   ui_qmenu.obj
 0001:0001fbd0       _Menu_SetCursor            40020bd0 f   ui_qmenu.obj
 0001:0001fc50       _Menu_SetCursorToItem      40020c50 f   ui_qmenu.obj
 0001:0001fce0       _Menu_AdjustCursor         40020ce0 f   ui_qmenu.obj
 0001:0001fe40       _Menu_Draw                 40020e40 f   ui_qmenu.obj
 0001:00020c20       _Menu_ItemAtCursor         40021c20 f   ui_qmenu.obj
 0001:00020c80       _Menu_ActivateItem         40021c80 f   ui_qmenu.obj
 0001:00020d00       _Menu_DefaultKey           40021d00 f   ui_qmenu.obj
 0001:00021760       _Menu_Cache                40022760 f   ui_qmenu.obj
 0001:00021970       _UI_RemoveBots_Cache       40022970 f   ui_removebots.obj
 0001:00021a00       _UI_RemoveBotsMenu         40022a00 f   ui_removebots.obj
 0001:00022420       _Favorites_Add             40023420 f   ui_serverinfo.obj
 0001:00022590       _ServerInfo_Cache          40023590 f   ui_serverinfo.obj
 0001:00022610       _UI_ServerInfoMenu         40023610 f   ui_serverinfo.obj
 0001:00022bf0       _ArenaServers_InsertFavorites 40023bf0 f   ui_servers2.obj
 0001:000230e0       _ArenaServers_LoadFavorites 400240e0 f   ui_servers2.obj
 0001:00023360       _ArenaServers_SaveChanges  40024360 f   ui_servers2.obj
 0001:00023430       _ArenaServers_Sort         40024430 f   ui_servers2.obj
 0001:000236a0       _ArenaServers_SetType      400246a0 f   ui_servers2.obj
 0001:00024240       _ArenaServers_Cache        40025240 f   ui_servers2.obj
 0001:00024370       _UI_ArenaServersMenu       40025370 f   ui_servers2.obj
 0001:00025d40       _UI_SetupMenu_Cache        40026d40 f   ui_setup.obj
 0001:00025dc0       _UI_SetupMenu              40026dc0 f   ui_setup.obj
 0001:000265e0       _UI_SoundOptionsMenu_Cache 400275e0 f   ui_sound.obj
 0001:00026660       _UI_SoundOptionsMenu       40027660 f   ui_sound.obj
 0001:00026f00       _UI_SPArena_Start          40027f00 f   ui_sparena.obj
 0001:00027060       _SpecifyServer_MenuInit    40028060 f   ui_specifyserver.obj
 0001:00027560       _SpecifyServer_Cache       40028560 f   ui_specifyserver.obj
 0001:000275e0       _UI_SpecifyServerMenu      400285e0 f   ui_specifyserver.obj
 0001:00027630       _UI_SPLevelMenu_Cache      40028630 f   ui_splevel.obj
 0001:00027890       _UI_SPLevelMenu            40028890 f   ui_splevel.obj
 0001:00029c60       _UI_SPLevelMenu_f          4002ac60 f   ui_splevel.obj
 0001:00029cc0       _UI_SPLevelMenu_ReInit     4002acc0 f   ui_splevel.obj
 0001:00029d00       _UI_SPPostgameMenu_Cache   4002ad00 f   ui_sppostgame.obj
 0001:00029e50       _UI_SPPostgameMenu_f       4002ae50 f   ui_sppostgame.obj
 0001:0002b3d0       _Reset_MenuEvent           4002c3d0 f   ui_spreset.obj
 0001:0002b450       _Reset_Cache               4002c450 f   ui_spreset.obj
 0001:0002b4a0       _UI_ResetMenu              4002c4a0 f   ui_spreset.obj
 0001:0002b9d0       _UI_SPSkillMenu_Cache      4002c9d0 f   ui_spskill.obj
 0001:0002bb00       _UI_SPSkillMenu            4002cb00 f   ui_spskill.obj
 0001:0002c430       _StartServer_Cache         4002d430 f   ui_startserver.obj
 0001:0002c7d0       _UI_StartServerMenu        4002d7d0 f   ui_startserver.obj
 0001:0002d920       _ServerOptions_Cache       4002e920 f   ui_startserver.obj
 0001:00030040       _UI_BotSelectMenu_Cache    40031040 f   ui_startserver.obj
 0001:00030110       _UI_BotSelectMenu          40031110 f   ui_startserver.obj
 0001:00031350       _dllEntry                  40032350 f   ui_syscalls.obj
 0001:00031380       _PASSFLOAT                 40032380 f   ui_syscalls.obj
 0001:000313c0       _trap_Print                400323c0 f   ui_syscalls.obj
 0001:00031420       _trap_Error                40032420 f   ui_syscalls.obj
 0001:00031480       _trap_Milliseconds         40032480 f   ui_syscalls.obj
 0001:000314d0       _trap_Cvar_Register        400324d0 f   ui_syscalls.obj
 0001:00031530       _trap_Cvar_Update          40032530 f   ui_syscalls.obj
 0001:00031590       _trap_Cvar_Set             40032590 f   ui_syscalls.obj
 0001:000315f0       _trap_Cvar_VariableValue   400325f0 f   ui_syscalls.obj
 0001:00031650       _trap_Cvar_VariableStringBuffer 40032650 f   ui_syscalls.obj
 0001:000316b0       _trap_Cvar_SetValue        400326b0 f   ui_syscalls.obj
 0001:00031720       _trap_Cvar_Reset           40032720 f   ui_syscalls.obj
 0001:00031780       _trap_Cvar_Create          40032780 f   ui_syscalls.obj
 0001:000317e0       _trap_Cvar_InfoStringBuffer 400327e0 f   ui_syscalls.obj
 0001:00031840       _trap_Argc                 40032840 f   ui_syscalls.obj
 0001:00031890       _trap_Argv                 40032890 f   ui_syscalls.obj
 0001:000318f0       _trap_Cmd_ExecuteText      400328f0 f   ui_syscalls.obj
 0001:00031950       _trap_FS_FOpenFile         40032950 f   ui_syscalls.obj
 0001:000319b0       _trap_FS_Read              400329b0 f   ui_syscalls.obj
 0001:00031a10       _trap_FS_Write             40032a10 f   ui_syscalls.obj
 0001:00031a70       _trap_FS_FCloseFile        40032a70 f   ui_syscalls.obj
 0001:00031ad0       _trap_FS_GetFileList       40032ad0 f   ui_syscalls.obj
 0001:00031b30       _trap_FS_Seek              40032b30 f   ui_syscalls.obj
 0001:00031b90       _trap_R_RegisterModel      40032b90 f   ui_syscalls.obj
 0001:00031bf0       _trap_R_RegisterSkin       40032bf0 f   ui_syscalls.obj
 0001:00031c50       _trap_R_RegisterFont       40032c50 f   ui_syscalls.obj
 0001:00031cb0       _trap_R_RegisterShaderNoMip 40032cb0 f   ui_syscalls.obj
 0001:00031d10       _trap_R_ClearScene         40032d10 f   ui_syscalls.obj
 0001:00031d60       _trap_R_AddRefEntityToScene 40032d60 f   ui_syscalls.obj
 0001:00031dc0       _trap_R_AddPolyToScene     40032dc0 f   ui_syscalls.obj
 0001:00031e20       _trap_R_AddLightToScene    40032e20 f   ui_syscalls.obj
 0001:00031ec0       _trap_R_RenderScene        40032ec0 f   ui_syscalls.obj
 0001:00031f20       _trap_R_SetColor           40032f20 f   ui_syscalls.obj
 0001:00031f80       _trap_R_DrawStretchPic     40032f80 f   ui_syscalls.obj
 0001:00032060       _trap_R_ModelBounds        40033060 f   ui_syscalls.obj
 0001:000320c0       _trap_UpdateScreen         400330c0 f   ui_syscalls.obj
 0001:00032110       _trap_CM_LerpTag           40033110 f   ui_syscalls.obj
 0001:00032190       _trap_S_StartLocalSound    40033190 f   ui_syscalls.obj
 0001:000321f0       _trap_S_RegisterSound      400331f0 f   ui_syscalls.obj
 0001:00032250       _trap_Key_KeynumToStringBuf 40033250 f   ui_syscalls.obj
 0001:000322b0       _trap_Key_GetBindingBuf    400332b0 f   ui_syscalls.obj
 0001:00032310       _trap_Key_SetBinding       40033310 f   ui_syscalls.obj
 0001:00032370       _trap_Key_IsDown           40033370 f   ui_syscalls.obj
 0001:000323d0       _trap_Key_GetOverstrikeMode 400333d0 f   ui_syscalls.obj
 0001:00032420       _trap_Key_SetOverstrikeMode 40033420 f   ui_syscalls.obj
 0001:00032480       _trap_Key_ClearStates      40033480 f   ui_syscalls.obj
 0001:000324d0       _trap_Key_GetCatcher       400334d0 f   ui_syscalls.obj
 0001:00032520       _trap_Key_SetCatcher       40033520 f   ui_syscalls.obj
 0001:00032580       _trap_GetClipboardData     40033580 f   ui_syscalls.obj
 0001:000325e0       _trap_GetClientState       400335e0 f   ui_syscalls.obj
 0001:00032640       _trap_GetGlconfig          40033640 f   ui_syscalls.obj
 0001:000326a0       _trap_GetConfigString      400336a0 f   ui_syscalls.obj
 0001:00032700       _trap_LAN_GetServerCount   40033700 f   ui_syscalls.obj
 0001:00032760       _trap_LAN_GetServerAddressString 40033760 f   ui_syscalls.obj
 0001:000327c0       _trap_LAN_GetServerInfo    400337c0 f   ui_syscalls.obj
 0001:00032820       _trap_LAN_GetServerPing    40033820 f   ui_syscalls.obj
 0001:00032880       _trap_LAN_GetPingQueueCount 40033880 f   ui_syscalls.obj
 0001:000328d0       _trap_LAN_ServerStatus     400338d0 f   ui_syscalls.obj
 0001:00032930       _trap_LAN_SaveCachedServers 40033930 f   ui_syscalls.obj
 0001:00032980       _trap_LAN_LoadCachedServers 40033980 f   ui_syscalls.obj
 0001:000329d0       _trap_LAN_ResetPings       400339d0 f   ui_syscalls.obj
 0001:00032a30       _trap_LAN_ClearPing        40033a30 f   ui_syscalls.obj
 0001:00032a90       _trap_LAN_GetPing          40033a90 f   ui_syscalls.obj
 0001:00032af0       _trap_LAN_GetPingInfo      40033af0 f   ui_syscalls.obj
 0001:00032b50       _trap_LAN_MarkServerVisible 40033b50 f   ui_syscalls.obj
 0001:00032bb0       _trap_LAN_ServerIsVisible  40033bb0 f   ui_syscalls.obj
 0001:00032c10       _trap_LAN_UpdateVisiblePings 40033c10 f   ui_syscalls.obj
 0001:00032c70       _trap_LAN_AddServer        40033c70 f   ui_syscalls.obj
 0001:00032cd0       _trap_LAN_RemoveServer     40033cd0 f   ui_syscalls.obj
 0001:00032d30       _trap_LAN_CompareServers   40033d30 f   ui_syscalls.obj
 0001:00032da0       _trap_MemoryRemaining      40033da0 f   ui_syscalls.obj
 0001:00032df0       _trap_GetCDKey             40033df0 f   ui_syscalls.obj
 0001:00032e50       _trap_SetCDKey             40033e50 f   ui_syscalls.obj
 0001:00032eb0       _trap_PC_AddGlobalDefine   40033eb0 f   ui_syscalls.obj
 0001:00032f10       _trap_PC_LoadSource        40033f10 f   ui_syscalls.obj
 0001:00032f70       _trap_PC_FreeSource        40033f70 f   ui_syscalls.obj
 0001:00032fd0       _trap_PC_ReadToken         40033fd0 f   ui_syscalls.obj
 0001:00033030       _trap_PC_SourceFileAndLine 40034030 f   ui_syscalls.obj
 0001:00033090       _trap_S_StopBackgroundTrack 40034090 f   ui_syscalls.obj
 0001:000330e0       _trap_S_StartBackgroundTrack 400340e0 f   ui_syscalls.obj
 0001:00033140       _trap_RealTime             40034140 f   ui_syscalls.obj
 0001:000331a0       _trap_CIN_PlayCinematic    400341a0 f   ui_syscalls.obj
 0001:00033210       _trap_CIN_StopCinematic    40034210 f   ui_syscalls.obj
 0001:00033270       _trap_CIN_RunCinematic     40034270 f   ui_syscalls.obj
 0001:000332d0       _trap_CIN_DrawCinematic    400342d0 f   ui_syscalls.obj
 0001:00033330       _trap_CIN_SetExtents       40034330 f   ui_syscalls.obj
 0001:000333a0       _trap_R_RemapShader        400343a0 f   ui_syscalls.obj
 0001:00033400       _trap_VerifyCDKey          40034400 f   ui_syscalls.obj
 0001:00033460       _trap_SetPbClStatus        40034460 f   ui_syscalls.obj
 0001:000334c0       _TeamMain_MenuInit         400344c0 f   ui_team.obj
 0001:00033980       _TeamMain_Cache            40034980 f   ui_team.obj
 0001:000339d0       _UI_TeamMainMenu           400349d0 f   ui_team.obj
 0001:00033a20       _UI_TeamOrdersMenu_Key     40034a20 f   ui_teamorders.obj
 0001:00033c90       _UI_TeamOrdersMenu_Cache   40034c90 f   ui_teamorders.obj
 0001:00033d00       _UI_TeamOrdersMenu         40034d00 f   ui_teamorders.obj
 0001:00034620       _UI_TeamOrdersMenu_f       40035620 f   ui_teamorders.obj
 0001:00034740       _DriverInfo_Cache          40035740 f   ui_video.obj
 0001:000347c0       _GraphicsOptions_MenuDraw  400357c0 f   ui_video.obj
 0001:00034be0       _GraphicsOptions_MenuInit  40035be0 f   ui_video.obj
 0001:000365b0       _GraphicsOptions_Cache     400375b0 f   ui_video.obj
 0001:00036650       _UI_GraphicsOptionsMenu    40037650 f   ui_video.obj
 0001:000366b0       __chkesp                   400376b0 f   LIBCMTD:chkesp.obj
 0001:000366f0       __fpmath                   400376f0 f   LIBCMTD:fpinit.obj
 0001:00036720       __fpclear                  40037720 f   LIBCMTD:fpinit.obj
 0001:00036730       __cfltcvt_init             40037730 f   LIBCMTD:fpinit.obj
 0001:00036780       ___setfflag                40037780 f   LIBCMTD:fpinit.obj
 0001:000367a0       __CIsin                    400377a0 f   LIBCMTD:sin.obj
 0001:000367b4       _sin                       400377b4 f   LIBCMTD:sin.obj
 0001:00036850       __CIcos                    40037850 f   LIBCMTD:cos.obj
 0001:00036864       _cos                       40037864 f   LIBCMTD:cos.obj
 0001:00036900       _atof                      40037900 f   LIBCMTD:atof.obj
 0001:00036978       __ftol                     40037978 f   LIBCMTD:ftol.obj
 0001:000369a0       _memset                    400379a0 f   LIBCMTD:memset.obj
 0001:00036a00       _memcpy                    40037a00 f   LIBCMTD:memcpy.obj
 0001:00036d40       __CIsqrt                   40037d40 f   LIBCMTD:sqrt.obj
 0001:00036d54       _sqrt                      40037d54 f   LIBCMTD:sqrt.obj
 0001:00036e00       _atan2                     40037e00 f   LIBCMTD:87ctriga.obj
 0001:00036e0a       __CIatan2                  40037e0a f   LIBCMTD:87ctriga.obj
 0001:00036e20       __assert                   40037e20 f   LIBCMTD:assert.obj
 0001:000371a0       _fabs                      400381a0 f   LIBCMTD:fabs.obj
 0001:000372a0       _strlen                    400382a0 f   LIBCMTD:strlen.obj
 0001:00037320       _vsprintf                  40038320 f   LIBCMTD:vsprintf.obj
 0001:00037420       _strcmp                    40038420 f   LIBCMTD:strcmp.obj
 0001:000374b0       _strncpy                   400384b0 f   LIBCMTD:strncpy.obj
 0001:000375b0       __tolower                  400385b0 f   LIBCMTD:tolower.obj
 0001:000375c0       _tolower                   400385c0 f   LIBCMTD:tolower.obj
 0001:00037660       __tolower_lk               40038660 f   LIBCMTD:tolower.obj
 0001:00037790       __toupper                  40038790 f   LIBCMTD:toupper.obj
 0001:000377a0       _toupper                   400387a0 f   LIBCMTD:toupper.obj
 0001:00037840       __toupper_lk               40038840 f   LIBCMTD:toupper.obj
 0001:00037970       __alloca_probe             40038970 f   LIBCMTD:chkstk.obj
 0001:00037970       __chkstk                   40038970 f   LIBCMTD:chkstk.obj
 0001:000379a0       _strcpy                    400389a0 f   LIBCMTD:strcat.obj
 0001:000379b0       _strcat                    400389b0 f   LIBCMTD:strcat.obj
 0001:00037aa0       _strchr                    40038aa0 f   LIBCMTD:strchr.obj
 0001:00037aa6       ___from_strstr_to_strchr   40038aa6 f   LIBCMTD:strchr.obj
 0001:00037b60       _atol                      40038b60 f   LIBCMTD:atox.obj
 0001:00037c60       _atoi                      40038c60 f   LIBCMTD:atox.obj
 0001:00037c80       __atoi64                   40038c80 f   LIBCMTD:atox.obj
 0001:00037db0       _qsort                     40038db0 f   LIBCMTD:qsort.obj
 0001:000380b0       _strstr                    400390b0 f   LIBCMTD:strstr.obj
 0001:00038130       _memmove                   40039130 f   LIBCMTD:memmove.obj
 0001:00038470       _srand                     40039470 f   LIBCMTD:rand.obj
 0001:00038480       _rand                      40039480 f   LIBCMTD:rand.obj
 0001:000384c0       __CItan                    400394c0 f   LIBCMTD:tan.obj
 0001:000384d4       _tan                       400394d4 f   LIBCMTD:tan.obj
 0001:00038580       __CRT_INIT@12              40039580 f   LIBCMTD:dllcrt0.obj
 0001:000386c0       __DllMainCRTStartup@12     400396c0 f   LIBCMTD:dllcrt0.obj
 0001:000387c0       __amsg_exit                400397c0 f   LIBCMTD:dllcrt0.obj
 0001:00038800       __CrtDbgBreak              40039800 f   LIBCMTD:dbgrpt.obj
 0001:00038810       __CrtSetReportMode         40039810 f   LIBCMTD:dbgrpt.obj
 0001:00038870       __CrtSetReportFile         40039870 f   LIBCMTD:dbgrpt.obj
 0001:000388f0       __CrtSetReportHook         400398f0 f   LIBCMTD:dbgrpt.obj
 0001:00038910       __CrtDbgReport             40039910 f   LIBCMTD:dbgrpt.obj
 0001:00038fb0       __setdefaultprecision      40039fb0 f   LIBCMTD:fp8.obj
 0001:00038fd0       __ms_p5_test_fdiv          40039fd0 f   LIBCMTD:testfdiv.obj
 0001:00039030       __ms_p5_mp_test_fdiv       4003a030 f   LIBCMTD:testfdiv.obj
 0001:00039080       __forcdecpt                4003a080 f   LIBCMTD:cvt.obj
 0001:00039130       __cropzeros                4003a130 f   LIBCMTD:cvt.obj
 0001:00039210       __positive                 4003a210 f   LIBCMTD:cvt.obj
 0001:00039240       __fassign                  4003a240 f   LIBCMTD:cvt.obj
 0001:00039290       __cftoe                    4003a290 f   LIBCMTD:cvt.obj
 0001:00039480       __cftof                    4003a480 f   LIBCMTD:cvt.obj
 0001:00039630       __cftog                    4003a630 f   LIBCMTD:cvt.obj
 0001:00039720       __cfltcvt                  4003a720 f   LIBCMTD:cvt.obj
 0001:000397b0       __trandisp1                4003a7b0 f   LIBCMTD:87disp.obj
 0001:00039817       __trandisp2                4003a817 f   LIBCMTD:87disp.obj
 0001:000398a3       __rttospopde               4003a8a3 f   LIBCMTD:87disp.obj
 0001:000398a8       __rttospop                 4003a8a8 f   LIBCMTD:87disp.obj
 0001:000398aa       __rtnospop                 4003a8aa f   LIBCMTD:87disp.obj
 0001:000398ac       __rttosnpop                4003a8ac f   LIBCMTD:87disp.obj
 0001:000398ad       __rtnospopde               4003a8ad f   LIBCMTD:87disp.obj
 0001:000398b4       __rtzeropop                4003a8b4 f   LIBCMTD:87disp.obj
 0001:000398b6       __rtzeronpop               4003a8b6 f   LIBCMTD:87disp.obj
 0001:000398bb       __rtonepop                 4003a8bb f   LIBCMTD:87disp.obj
 0001:000398bd       __rtonenpop                4003a8bd f   LIBCMTD:87disp.obj
 0001:000398c2       __tosnan1                  4003a8c2 f   LIBCMTD:87disp.obj
 0001:000398ed       __nosnan2                  4003a8ed f   LIBCMTD:87disp.obj
 0001:000398ef       __tosnan2                  4003a8ef f   LIBCMTD:87disp.obj
 0001:00039917       __nan2                     4003a917 f   LIBCMTD:87disp.obj
 0001:00039956       __rtindfpop                4003a956 f   LIBCMTD:87disp.obj
 0001:00039958       __rtindfnpop               4003a958 f   LIBCMTD:87disp.obj
 0001:00039969       __rttosnpopde              4003a969 f   LIBCMTD:87disp.obj
 0001:00039973       __rtchsifneg               4003a973 f   LIBCMTD:87disp.obj
 0001:00039980       __twoToTOS                 4003a980 f   LIBCMTD:common.obj
 0001:00039995       __load_CW                  4003a995 f   LIBCMTD:common.obj
 0001:000399ac       __convertTOStoQNaN         4003a9ac f   LIBCMTD:common.obj
 0001:000399c5       __fload_withFB             4003a9c5 f   LIBCMTD:common.obj
 0001:00039a08       __checkTOS_withFB          4003aa08 f   LIBCMTD:common.obj
 0001:00039a1e       __fast_exit                4003aa1e f   LIBCMTD:common.obj
 0001:00039a2b       __math_exit                4003aa2b f   LIBCMTD:common.obj
 0001:00039a55       __check_overflow_exit      4003aa55 f   LIBCMTD:common.obj
 0001:00039a69       __check_range_exit         4003aa69 f   LIBCMTD:common.obj
 0001:00039b10       __startTwoArgErrorHandling 4003ab10 f   LIBCMTD:genexcep.obj
 0001:00039b27       __startOneArgErrorHandling 4003ab27 f   LIBCMTD:genexcep.obj
 0001:00039b70       __fltin2                   4003ab70 f   LIBCMTD:cfin.obj
 0001:00039c30       __isctype                  4003ac30 f   LIBCMTD:isctype.obj
 0001:00039d0c       __fFATN2                   4003ad0c f   LIBCMTD:87triga.obj
 0001:00039d5c       __rtpiby2                  4003ad5c f   LIBCMTD:87triga.obj
 0001:00039da0       __cintrindisp2             4003ada0 f   LIBCMTD:87cdisp.obj
 0001:00039dde       __cintrindisp1             4003adde f   LIBCMTD:87cdisp.obj
 0001:00039e1b       __ctrandisp2               4003ae1b f   LIBCMTD:87cdisp.obj
 0001:00039f9b       __ctrandisp1               4003af9b f   LIBCMTD:87cdisp.obj
 0001:00039fce       __fload                    4003afce f   LIBCMTD:87cdisp.obj
 0001:0003a010       _abort                     4003b010 f   LIBCMTD:abort.obj
 0001:0003a030       __cinit                    4003b030 f   LIBCMTD:crt0dat.obj
 0001:0003a070       _exit                      4003b070 f   LIBCMTD:crt0dat.obj
 0001:0003a090       __exit                     4003b090 f   LIBCMTD:crt0dat.obj
 0001:0003a0b0       __cexit                    4003b0b0 f   LIBCMTD:crt0dat.obj
 0001:0003a0d0       __c_exit                   4003b0d0 f   LIBCMTD:crt0dat.obj
 0001:0003a1e0       __lockexit                 4003b1e0 f   LIBCMTD:crt0dat.obj
 0001:0003a1f0       __unlockexit               4003b1f0 f   LIBCMTD:crt0dat.obj
 0001:0003a230       _signal                    4003b230 f   LIBCMTD:winsig.obj
 0001:0003a500       _raise                     4003b500 f   LIBCMTD:winsig.obj
 0001:0003a7a0       ___fpecode                 4003b7a0 f   LIBCMTD:winsig.obj
 0001:0003a7b0       ___pxcptinfoptrs           4003b7b0 f   LIBCMTD:winsig.obj
 0001:0003a7c0       ___crtMessageBoxA          4003b7c0 f   LIBCMTD:crtmbox.obj
 0001:0003a880       __itoa                     4003b880 f   LIBCMTD:xtoa.obj
 0001:0003a9a0       __ltoa                     4003b9a0 f   LIBCMTD:xtoa.obj
 0001:0003a9e0       __ultoa                    4003b9e0 f   LIBCMTD:xtoa.obj
 0001:0003aa00       __i64toa                   4003ba00 f   LIBCMTD:xtoa.obj
 0001:0003ab50       __ui64toa                  4003bb50 f   LIBCMTD:xtoa.obj
 0001:0003ab70       _strncat                   4003bb70 f   LIBCMTD:strncat.obj
 0001:0003aca0       _fflush                    4003bca0 f   LIBCMTD:fflush.obj
 0001:0003acf0       __fflush_lk                4003bcf0 f   LIBCMTD:fflush.obj
 0001:0003ad40       __flush                    4003bd40 f   LIBCMTD:fflush.obj
 0001:0003ae00       __flushall                 4003be00 f   LIBCMTD:fflush.obj
 0001:0003af50       _fprintf                   4003bf50 f   LIBCMTD:fprintf.obj
 0001:0003b020       _setvbuf                   4003c020 f   LIBCMTD:setvbuf.obj
 0001:0003b190       ___initstdio               4003c190 f   LIBCMTD:_file.obj
 0001:0003b2c0       ___endstdio                4003c2c0 f   LIBCMTD:_file.obj
 0001:0003b2e0       __lock_file                4003c2e0 f   LIBCMTD:_file.obj
 0001:0003b320       __lock_file2               4003c320 f   LIBCMTD:_file.obj
 0001:0003b350       __unlock_file              4003c350 f   LIBCMTD:_file.obj
 0001:0003b390       __unlock_file2             4003c390 f   LIBCMTD:_file.obj
 0001:0003b3c0       __handle_qnan1             4003c3c0 f   LIBCMTD:fpexcept.obj
 0001:0003b420       __handle_qnan2             4003c420 f   LIBCMTD:fpexcept.obj
 0001:0003b490       __except1                  4003c490 f   LIBCMTD:fpexcept.obj
 0001:0003b550       __except2                  4003c550 f   LIBCMTD:fpexcept.obj
 0001:0003b620       __raise_exc                4003c620 f   LIBCMTD:fpexcept.obj
 0001:0003baf0       __handle_exc               4003caf0 f   LIBCMTD:fpexcept.obj
 0001:0003be70       __umatherr                 4003ce70 f   LIBCMTD:fpexcept.obj
 0001:0003bf10       __set_errno                4003cf10 f   LIBCMTD:fpexcept.obj
 0001:0003bf90       __errcode                  4003cf90 f   LIBCMTD:fpexcept.obj
 0001:0003c010       __set_exp                  4003d010 f   LIBCMTD:util.obj
 0001:0003c050       __get_exp                  4003d050 f   LIBCMTD:util.obj
 0001:0003c080       __add_exp                  4003d080 f   LIBCMTD:util.obj
 0001:0003c0c0       __set_bexp                 4003d0c0 f   LIBCMTD:util.obj
 0001:0003c100       __sptype                   4003d100 f   LIBCMTD:util.obj
 0001:0003c180       __decomp                   4003d180 f   LIBCMTD:util.obj
 0001:0003c2c0       __statfp                   4003d2c0 f   LIBCMTD:fpctrl.obj
 0001:0003c2e0       __clrfp                    4003d2e0 f   LIBCMTD:fpctrl.obj
 0001:0003c300       __ctrlfp                   4003d300 f   LIBCMTD:fpctrl.obj
 0001:0003c340       __set_statfp               4003d340 f   LIBCMTD:fpctrl.obj
 0001:0003c3c0       __flsbuf                   4003d3c0 f   LIBCMTD:_flsbuf.obj
 0001:0003c640       __output                   4003d640 f   LIBCMTD:output.obj
 0001:0003d4e0       __mtinitlocks              4003e4e0 f   LIBCMTD:mlock.obj
 0001:0003d520       __mtdeletelocks            4003e520 f   LIBCMTD:mlock.obj
 0001:0003d5c0       __lock                     4003e5c0 f   LIBCMTD:mlock.obj
 0001:0003d660       __unlock                   4003e660 f   LIBCMTD:mlock.obj
 0001:0003d680       __lockerr_exit             4003e680 f   LIBCMTD:mlock.obj
 0001:0003d6a0       _setlocale                 4003e6a0 f   LIBCMTD:setlocal.obj
 0001:0003dd30       __expandlocale             4003ed30 f   LIBCMTD:setlocal.obj
 0001:0003dec0       ___init_dummy              4003eec0 f   LIBCMTD:setlocal.obj
 0001:0003ded0       __strcats                  4003eed0 f   LIBCMTD:setlocal.obj
 0001:0003df20       ___lc_strtolc              4003ef20 f   LIBCMTD:setlocal.obj
 0001:0003e080       ___lc_lctostr              4003f080 f   LIBCMTD:setlocal.obj
 0001:0003e0f0       ___crtLCMapStringA         4003f0f0 f   LIBCMTD:a_map.obj
 0001:0003e450       __allmul                   4003f450 f   LIBCMTD:llmul.obj
 0001:0003e490       __mtinit                   4003f490 f   LIBCMTD:tidtable.obj
 0001:0003e520       __mtterm                   4003f520 f   LIBCMTD:tidtable.obj
 0001:0003e550       __initptd                  4003f550 f   LIBCMTD:tidtable.obj
 0001:0003e570       __getptd                   4003f570 f   LIBCMTD:tidtable.obj
 0001:0003e610       __freeptd                  4003f610 f   LIBCMTD:tidtable.obj
 0001:0003e720       ___threadid                4003f720 f   LIBCMTD:tidtable.obj
 0001:0003e730       ___threadhandle            4003f730 f   LIBCMTD:tidtable.obj
 0001:0003e740       __ioinit                   4003f740 f   LIBCMTD:ioinit.obj
 0001:0003ea70       __ioterm                   4003fa70 f   LIBCMTD:ioinit.obj
 0001:0003eb10       _malloc                    4003fb10 f   LIBCMTD:dbgheap.obj
 0001:0003eb30       __malloc_dbg               4003fb30 f   LIBCMTD:dbgheap.obj
 0001:0003eb60       __nh_malloc                4003fb60 f   LIBCMTD:dbgheap.obj
 0001:0003eb80       __nh_malloc_dbg            4003fb80 f   LIBCMTD:dbgheap.obj
 0001:0003ebe0       __heap_alloc               4003fbe0 f   LIBCMTD:dbgheap.obj
 0001:0003ec00       __heap_alloc_dbg           4003fc00 f   LIBCMTD:dbgheap.obj
 0001:0003ef20       _calloc                    4003ff20 f   LIBCMTD:dbgheap.obj
 0001:0003ef40       __calloc_dbg               4003ff40 f   LIBCMTD:dbgheap.obj
 0001:0003efa0       _realloc                   4003ffa0 f   LIBCMTD:dbgheap.obj
 0001:0003efc0       __realloc_dbg              4003ffc0 f   LIBCMTD:dbgheap.obj
 0001:0003f520       __expand                   40040520 f   LIBCMTD:dbgheap.obj
 0001:0003f540       __expand_dbg               40040540 f   LIBCMTD:dbgheap.obj
 0001:0003f580       _free                      40040580 f   LIBCMTD:dbgheap.obj
 0001:0003f5a0       __free_lk                  400405a0 f   LIBCMTD:dbgheap.obj
 0001:0003f5c0       __free_dbg                 400405c0 f   LIBCMTD:dbgheap.obj
 0001:0003f5f0       __free_dbg_lk              400405f0 f   LIBCMTD:dbgheap.obj
 0001:0003f9e0       __msize                    400409e0 f   LIBCMTD:dbgheap.obj
 0001:0003fa00       __msize_dbg                40040a00 f   LIBCMTD:dbgheap.obj
 0001:0003fb60       __CrtSetBreakAlloc         40040b60 f   LIBCMTD:dbgheap.obj
 0001:0003fb80       __CrtSetDbgBlockType       40040b80 f   LIBCMTD:dbgheap.obj
 0001:0003fc20       __CrtSetAllocHook          40040c20 f   LIBCMTD:dbgheap.obj
 0001:0003fcd0       __CrtCheckMemory           40040cd0 f   LIBCMTD:dbgheap.obj
 0001:00040040       __CrtSetDbgFlag            40041040 f   LIBCMTD:dbgheap.obj
 0001:00040070       __CrtDoForAllClientObjects 40041070 f   LIBCMTD:dbgheap.obj
 0001:000400e0       __CrtIsValidPointer        400410e0 f   LIBCMTD:dbgheap.obj
 0001:00040130       __CrtIsValidHeapPointer    40041130 f   LIBCMTD:dbgheap.obj
 0001:000401c0       __CrtIsMemoryBlock         400411c0 f   LIBCMTD:dbgheap.obj
 0001:000402b0       __CrtSetDumpClient         400412b0 f   LIBCMTD:dbgheap.obj
 0001:000402d0       __CrtMemCheckpoint         400412d0 f   LIBCMTD:dbgheap.obj
 0001:00040440       __CrtMemDifference         40041440 f   LIBCMTD:dbgheap.obj
 0001:00040570       __CrtMemDumpAllObjectsSince 40041570 f   LIBCMTD:dbgheap.obj
 0001:00040950       __CrtDumpMemoryLeaks       40041950 f   LIBCMTD:dbgheap.obj
 0001:000409d0       __CrtMemDumpStatistics     400419d0 f   LIBCMTD:dbgheap.obj
 0001:00040aa0       __setenvp                  40041aa0 f   LIBCMTD:stdenvp.obj
 0001:00040bf0       __setargv                  40041bf0 f   LIBCMTD:stdargv.obj
 0001:00041100       ___crtGetEnvironmentStringsA 40042100 f   LIBCMTD:a_env.obj
 0001:00041320       __heap_init                40042320 f   LIBCMTD:heapinit.obj
 0001:00041370       __heap_term                40042370 f   LIBCMTD:heapinit.obj
 0001:00041410       _DllMain@12                40042410 f   LIBCMTD:dllmain.obj
 0001:00041420       __FF_MSGBANNER             40042420 f   LIBCMTD:crt0msg.obj
 0001:00041470       __NMSG_WRITE               40042470 f   LIBCMTD:crt0msg.obj
 0001:00041630       __GET_RTERRMSG             40042630 f   LIBCMTD:crt0msg.obj
 0001:00041680       __snprintf                 40042680 f   LIBCMTD:snprintf.obj
 0001:00041780       __vsnprintf                40042780 f   LIBCMTD:vsnprint.obj
 0001:00041880       __statusfp                 40042880 f   LIBCMTD:ieee87.obj
 0001:000418a0       __clearfp                  400428a0 f   LIBCMTD:ieee87.obj
 0001:000418c0       __control87                400428c0 f   LIBCMTD:ieee87.obj
 0001:00041910       __controlfp                40042910 f   LIBCMTD:ieee87.obj
 0001:00041930       __fpreset                  40042930 f   LIBCMTD:ieee87.obj
 0001:00041d20       __ZeroTail                 40042d20 f   LIBCMTD:intrncvt.obj
 0001:00041db0       __IncMan                   40042db0 f   LIBCMTD:intrncvt.obj
 0001:00041e60       __RoundMan                 40042e60 f   LIBCMTD:intrncvt.obj
 0001:00041f40       __CopyMan                  40042f40 f   LIBCMTD:intrncvt.obj
 0001:00041f90       __FillZeroMan              40042f90 f   LIBCMTD:intrncvt.obj
 0001:00041fc0       __IsZeroMan                40042fc0 f   LIBCMTD:intrncvt.obj
 0001:00042000       __ShrMan                   40043000 f   LIBCMTD:intrncvt.obj
 0001:000420f0       __ld12cvt                  400430f0 f   LIBCMTD:intrncvt.obj
 0001:00042340       __ld12tod                  40043340 f   LIBCMTD:intrncvt.obj
 0001:00042360       __ld12tof                  40043360 f   LIBCMTD:intrncvt.obj
 0001:00042380       __ld12told                 40043380 f   LIBCMTD:intrncvt.obj
 0001:00042440       __atodbl                   40043440 f   LIBCMTD:intrncvt.obj
 0001:00042480       __atoldbl                  40043480 f   LIBCMTD:intrncvt.obj
 0001:000424c0       __atoflt                   400434c0 f   LIBCMTD:intrncvt.obj
 0001:00042500       __fptostr                  40043500 f   LIBCMTD:_fptostr.obj
 0001:00042600       __fltout2                  40043600 f   LIBCMTD:cfout.obj
 0001:00042680       ___dtold                   40043680 f   LIBCMTD:cfout.obj
 0001:000427f0       __fptrap                   400437f0 f   LIBCMTD:crt0fp.obj
 0001:00042800       __87except                 40043800 f   LIBCMTD:87except.obj
 0001:00042980       ___strgtold12              40043980 f   LIBCMTD:strgtold.obj
 0001:000434b0       ___STRINGTOLD              400444b0 f   LIBCMTD:strgtold.obj
 0001:00043500       ___crtGetStringTypeA       40044500 f   LIBCMTD:a_str.obj
 0001:000436c0       __dosmaperr                400446c0 f   LIBCMTD:dosmap.obj
 0001:00043760       __errno                    40044760 f   LIBCMTD:dosmap.obj
 0001:00043770       ___doserrno                40044770 f   LIBCMTD:dosmap.obj
 0001:00043780       __XcptFilter               40044780 f   LIBCMTD:winxfltr.obj
 0001:000439a0       __aulldiv                  400449a0 f   LIBCMTD:ulldiv.obj
 0001:00043a10       __aullrem                  40044a10 f   LIBCMTD:ullrem.obj
 0001:00043a90       __commit                   40044a90 f   LIBCMTD:commit.obj
 0001:00043b70       __write                    40044b70 f   LIBCMTD:write.obj
 0001:00043c00       __write_lk                 40044c00 f   LIBCMTD:write.obj
 0001:00043e80       __stbuf                    40044e80 f   LIBCMTD:_sftbuf.obj
 0001:00043fe0       __ftbuf                    40044fe0 f   LIBCMTD:_sftbuf.obj
 0001:00044080       __freebuf                  40045080 f   LIBCMTD:_freebuf.obj
 0001:00044120       __fcloseall                40045120 f   LIBCMTD:closeall.obj
 0001:00044200       __matherr                  40045200 f   LIBCMTD:matherr.obj
 0001:00044210       __lseek                    40045210 f   LIBCMTD:lseek.obj
 0001:000442a0       __lseek_lk                 400452a0 f   LIBCMTD:lseek.obj
 0001:00044360       __getbuf                   40045360 f   LIBCMTD:_getbuf.obj
 0001:00044430       __isatty                   40045430 f   LIBCMTD:isatty.obj
 0001:00044470       _wctomb                    40045470 f   LIBCMTD:wctomb.obj
 0001:000444f0       __wctomb_lk                400454f0 f   LIBCMTD:wctomb.obj
 0001:00044590       ___init_time               40045590 f   LIBCMTD:inittime.obj
 0001:00044f10       ___init_numeric            40045f10 f   LIBCMTD:initnum.obj
 0001:00045240       ___init_monetary           40046240 f   LIBCMTD:initmon.obj
 0001:000456a0       ___init_ctype              400466a0 f   LIBCMTD:initctyp.obj
 0001:00045a40       ___init_collate            40046a40 f   LIBCMTD:initcoll.obj
 0001:00045a50       _strcspn                   40046a50 f   LIBCMTD:strcspn.obj
 0001:00045a90       _strncmp                   40046a90 f   LIBCMTD:strncmp.obj
 0001:00045ad0       _strpbrk                   40046ad0 f   LIBCMTD:strpbrk.obj
 0001:00045b10       ___get_qualified_locale    40046b10 f   LIBCMTD:getqloc.obj
 0001:000468a8       __global_unwind2           400478a8 f   LIBCMTD:exsup.obj
 0001:000468ea       __local_unwind2            400478ea f   LIBCMTD:exsup.obj
 0001:00046942       __NLG_Return2              40047942 f   LIBCMTD:exsup.obj
 0001:00046952       __abnormal_termination     40047952 f   LIBCMTD:exsup.obj
 0001:00046975       __NLG_Notify1              40047975 f   LIBCMTD:exsup.obj
 0001:0004697e       __NLG_Notify               4004797e f   LIBCMTD:exsup.obj
 0001:00046991       __NLG_Dispatch             40047991 f   LIBCMTD:exsup.obj
 0001:000469a0       __except_handler3          400479a0 f   LIBCMTD:exsup3.obj
 0001:00046a5d       __seh_longjmp_unwind@4     40047a5d f   LIBCMTD:exsup3.obj
 0001:00046a80       ?_set_new_handler@@YAP6AHI@ZP6AHI@Z@Z 40047a80 f   LIBCMTD:handler.obj
 0001:00046ab0       ?_query_new_handler@@YAP6AHI@ZXZ 40047ab0 f   LIBCMTD:handler.obj
 0001:00046ac0       __callnewh                 40047ac0 f   LIBCMTD:handler.obj
 0001:00046af0       __malloc_base              40047af0 f   LIBCMTD:malloc.obj
 0001:00046b10       __nh_malloc_base           40047b10 f   LIBCMTD:malloc.obj
 0001:00046b70       __heap_alloc_base          40047b70 f   LIBCMTD:malloc.obj
 0001:00046be0       __CrtDefaultAllocHook      40047be0 f   LIBCMTD:dbghook.obj
 0001:00046bf0       __expand_base              40047bf0 f   LIBCMTD:expand.obj
 0001:00046ca0       __realloc_base             40047ca0 f   LIBCMTD:realloc.obj
 0001:00046e90       __free_base                40047e90 f   LIBCMTD:free.obj
 0001:00046f00       __heapchk                  40047f00 f   LIBCMTD:heapchk.obj
 0001:00046f80       __heapset                  40047f80 f   LIBCMTD:heapchk.obj
 0001:00046f90       __get_sbh_threshold        40047f90 f   LIBCMTD:sbheap.obj
 0001:00046fa0       __set_sbh_threshold        40047fa0 f   LIBCMTD:sbheap.obj
 0001:00046fc0       ___sbh_heap_init           40047fc0 f   LIBCMTD:sbheap.obj
 0001:00047020       ___sbh_find_block          40048020 f   LIBCMTD:sbheap.obj
 0001:00047080       ___sbh_verify_block        40048080 f   LIBCMTD:sbheap.obj
 0001:000470e0       ___sbh_free_block          400480e0 f   LIBCMTD:sbheap.obj
 0001:000476b0       ___sbh_alloc_block         400486b0 f   LIBCMTD:sbheap.obj
 0001:00047bf0       ___sbh_alloc_new_region    40048bf0 f   LIBCMTD:sbheap.obj
 0001:00047d00       ___sbh_alloc_new_group     40048d00 f   LIBCMTD:sbheap.obj
 0001:00047ef0       ___sbh_resize_block        40048ef0 f   LIBCMTD:sbheap.obj
 0001:000484e0       ___sbh_heapmin             400494e0 f   LIBCMTD:sbheap.obj
 0001:00048610       ___sbh_heap_check          40049610 f   LIBCMTD:sbheap.obj
 0001:00048c30       _sprintf                   40049c30 f   LIBCMTD:sprintf.obj
 0001:00048d30       __setmbcp                  40049d30 f   LIBCMTD:mbctype.obj
 0001:000494f0       __getmbcp                  4004a4f0 f   LIBCMTD:mbctype.obj
 0001:00049510       ___initmbctable            4004a510 f   LIBCMTD:mbctype.obj
 0001:00049540       ___addl                    4004a540 f   LIBCMTD:mantold.obj
 0001:00049580       ___add_12                  4004a580 f   LIBCMTD:mantold.obj
 0001:00049630       ___shl_12                  4004a630 f   LIBCMTD:mantold.obj
 0001:00049690       ___shr_12                  4004a690 f   LIBCMTD:mantold.obj
 0001:00049700       ___mtold12                 4004a700 f   LIBCMTD:mantold.obj
 0001:00049840       _$I10_OUTPUT               4004a840 f   LIBCMTD:x10fout.obj
 0001:00049d60       ___ld12mul                 4004ad60 f   LIBCMTD:tenpow.obj
 0001:0004a1a0       ___multtenpow12            4004b1a0 f   LIBCMTD:tenpow.obj
 0001:0004a270       __alloc_osfhnd             4004b270 f   LIBCMTD:osfinfo.obj
 0001:0004a460       __set_osfhnd               4004b460 f   LIBCMTD:osfinfo.obj
 0001:0004a520       __free_osfhnd              4004b520 f   LIBCMTD:osfinfo.obj
 0001:0004a600       __get_osfhandle            4004b600 f   LIBCMTD:osfinfo.obj
 0001:0004a670       __open_osfhandle           4004b670 f   LIBCMTD:osfinfo.obj
 0001:0004a780       __lock_fhandle             4004b780 f   LIBCMTD:osfinfo.obj
 0001:0004a810       __unlock_fhandle           4004b810 f   LIBCMTD:osfinfo.obj
 0001:0004a840       _fclose                    4004b840 f   LIBCMTD:fclose.obj
 0001:0004a8d0       __fclose_lk                4004b8d0 f   LIBCMTD:fclose.obj
 0001:0004a990       __Getdays                  4004b990 f   LIBCMTD:strftime.obj
 0001:0004aac0       __Getmonths                4004bac0 f   LIBCMTD:strftime.obj
 0001:0004abf0       __Gettnames                4004bbf0 f   LIBCMTD:strftime.obj
 0001:0004af60       _strftime                  4004bf60 f   LIBCMTD:strftime.obj
 0001:0004af80       __Strftime                 4004bf80 f   LIBCMTD:strftime.obj
 0001:0004be00       ___getlocaleinfo           4004ce00 f   LIBCMTD:inithelp.obj
 0001:0004c090       _localeconv                4004d090 f   LIBCMTD:lconv.obj
 0001:0004c0a0       ___crtGetStringTypeW       4004d0a0 f   LIBCMTD:w_str.obj
 0001:0004c310       __stricmp                  4004d310 f   LIBCMTD:stricmp.obj
 0001:0004c310       __strcmpi                  4004d310 f   LIBCMTD:stricmp.obj
 0001:0004c3e0       __strnicmp                 4004d3e0 f   LIBCMTD:strnicmp.obj
 0001:0004c4f0       __close                    4004d4f0 f   LIBCMTD:close.obj
 0001:0004c570       __close_lk                 4004d570 f   LIBCMTD:close.obj
 0001:0004c620       ___tzset                   4004d620 f   LIBCMTD:tzset.obj
 0001:0004c660       __tzset                    4004d660 f   LIBCMTD:tzset.obj
 0001:0004ca30       __isindst                  4004da30 f   LIBCMTD:tzset.obj
 0001:0004cf60       ___crtGetLocaleInfoW       4004df60 f   LIBCMTD:w_loc.obj
 0001:0004d100       ___crtGetLocaleInfoA       4004e100 f   LIBCMTD:a_loc.obj
 0001:0004d2b0       _getenv                    4004e2b0 f   LIBCMTD:getenv.obj
 0001:0004d2e0       __getenv_lk                4004e2e0 f   LIBCMTD:getenv.obj
 0001:0004d3b0       __mbsnbicoll               4004e3b0 f   LIBCMTD:mbsnbico.obj
 0001:0004d400       ___wtomb_environ           4004e400 f   LIBCMTD:wtombenv.obj
 0001:0004d4b0       ___crtCompareStringA       4004e4b0 f   LIBCMTD:a_cmp.obj
 0001:0004d900       ___crtsetenv               4004e900 f   LIBCMTD:setenv.obj
 0001:0004dd50       __mbschr                   4004ed50 f   LIBCMTD:mbschr.obj
 0001:0004de3e       _GetModuleFileNameA@12     4004ee3e f   kernel32:KERNEL32.dll
 0001:0004de44       _InterlockedDecrement@4    4004ee44 f   kernel32:KERNEL32.dll
 0001:0004de4a       _InterlockedIncrement@4    4004ee4a f   kernel32:KERNEL32.dll
 0001:0004de50       _GetCommandLineA@0         4004ee50 f   kernel32:KERNEL32.dll
 0001:0004de56       _GetVersion@0              4004ee56 f   kernel32:KERNEL32.dll
 0001:0004de5c       _DebugBreak@0              4004ee5c f   kernel32:KERNEL32.dll
 0001:0004de62       _GetStdHandle@4            4004ee62 f   kernel32:KERNEL32.dll
 0001:0004de68       _WriteFile@20              4004ee68 f   kernel32:KERNEL32.dll
 0001:0004de6e       _OutputDebugStringA@4      4004ee6e f   kernel32:KERNEL32.dll
 0001:0004de74       _GetProcAddress@8          4004ee74 f   kernel32:KERNEL32.dll
 0001:0004de7a       _LoadLibraryA@4            4004ee7a f   kernel32:KERNEL32.dll
 0001:0004de80       _GetModuleHandleA@4        4004ee80 f   kernel32:KERNEL32.dll
 0001:0004de86       _ExitProcess@4             4004ee86 f   kernel32:KERNEL32.dll
 0001:0004de8c       _TerminateProcess@8        4004ee8c f   kernel32:KERNEL32.dll
 0001:0004de92       _GetCurrentProcess@0       4004ee92 f   kernel32:KERNEL32.dll
 0001:0004de98       _GetLastError@0            4004ee98 f   kernel32:KERNEL32.dll
 0001:0004de9e       _SetConsoleCtrlHandler@8   4004ee9e f   kernel32:KERNEL32.dll
 0001:0004dea4       _EnterCriticalSection@4    4004eea4 f   kernel32:KERNEL32.dll
 0001:0004deaa       _LeaveCriticalSection@4    4004eeaa f   kernel32:KERNEL32.dll
 0001:0004deb0       _RaiseException@16         4004eeb0 f   kernel32:KERNEL32.dll
 0001:0004deb6       _InitializeCriticalSection@4 4004eeb6 f   kernel32:KERNEL32.dll
 0001:0004debc       _DeleteCriticalSection@4   4004eebc f   kernel32:KERNEL32.dll
 0001:0004dec2       _FatalAppExitA@8           4004eec2 f   kernel32:KERNEL32.dll
 0001:0004dec8       _Sleep@4                   4004eec8 f   kernel32:KERNEL32.dll
 0001:0004dece       _WideCharToMultiByte@32    4004eece f   kernel32:KERNEL32.dll
 0001:0004ded4       _MultiByteToWideChar@24    4004eed4 f   kernel32:KERNEL32.dll
 0001:0004deda       _LCMapStringA@24           4004eeda f   kernel32:KERNEL32.dll
 0001:0004dee0       _LCMapStringW@24           4004eee0 f   kernel32:KERNEL32.dll
 0001:0004dee6       _GetCurrentThreadId@0      4004eee6 f   kernel32:KERNEL32.dll
 0001:0004deec       _TlsSetValue@8             4004eeec f   kernel32:KERNEL32.dll
 0001:0004def2       _TlsAlloc@0                4004eef2 f   kernel32:KERNEL32.dll
 0001:0004def8       _TlsFree@4                 4004eef8 f   kernel32:KERNEL32.dll
 0001:0004defe       _SetLastError@4            4004eefe f   kernel32:KERNEL32.dll
 0001:0004df04       _TlsGetValue@4             4004ef04 f   kernel32:KERNEL32.dll
 0001:0004df0a       _GetCurrentThread@0        4004ef0a f   kernel32:KERNEL32.dll
 0001:0004df10       _SetHandleCount@4          4004ef10 f   kernel32:KERNEL32.dll
 0001:0004df16       _GetFileType@4             4004ef16 f   kernel32:KERNEL32.dll
 0001:0004df1c       _GetStartupInfoA@4         4004ef1c f   kernel32:KERNEL32.dll
 0001:0004df22       _IsBadWritePtr@8           4004ef22 f   kernel32:KERNEL32.dll
 0001:0004df28       _IsBadReadPtr@8            4004ef28 f   kernel32:KERNEL32.dll
 0001:0004df2e       _HeapValidate@12           4004ef2e f   kernel32:KERNEL32.dll
 0001:0004df34       _FreeEnvironmentStringsA@4 4004ef34 f   kernel32:KERNEL32.dll
 0001:0004df3a       _FreeEnvironmentStringsW@4 4004ef3a f   kernel32:KERNEL32.dll
 0001:0004df40       _GetEnvironmentStrings@0   4004ef40 f   kernel32:KERNEL32.dll
 0001:0004df46       _GetEnvironmentStringsW@0  4004ef46 f   kernel32:KERNEL32.dll
 0001:0004df4c       _HeapDestroy@4             4004ef4c f   kernel32:KERNEL32.dll
 0001:0004df52       _HeapCreate@12             4004ef52 f   kernel32:KERNEL32.dll
 0001:0004df58       _HeapFree@12               4004ef58 f   kernel32:KERNEL32.dll
 0001:0004df5e       _VirtualFree@12            4004ef5e f   kernel32:KERNEL32.dll
 0001:0004df64       _GetStringTypeA@20         4004ef64 f   kernel32:KERNEL32.dll
 0001:0004df6a       _GetStringTypeW@16         4004ef6a f   kernel32:KERNEL32.dll
 0001:0004df70       _UnhandledExceptionFilter@4 4004ef70 f   kernel32:KERNEL32.dll
 0001:0004df76       _FlushFileBuffers@4        4004ef76 f   kernel32:KERNEL32.dll
 0001:0004df7c       _SetFilePointer@16         4004ef7c f   kernel32:KERNEL32.dll
 0001:0004df82       _GetCPInfo@8               4004ef82 f   kernel32:KERNEL32.dll
 0001:0004df88       _IsValidLocale@8           4004ef88 f   kernel32:KERNEL32.dll
 0001:0004df8e       _IsValidCodePage@4         4004ef8e f   kernel32:KERNEL32.dll
 0001:0004df94       _GetLocaleInfoA@16         4004ef94 f   kernel32:KERNEL32.dll
 0001:0004df9a       _EnumSystemLocalesA@8      4004ef9a f   kernel32:KERNEL32.dll
 0001:0004dfa0       _GetUserDefaultLCID@0      4004efa0 f   kernel32:KERNEL32.dll
 0001:0004dfa6       _GetVersionExA@4           4004efa6 f   kernel32:KERNEL32.dll
 0001:0004dfac       _RtlUnwind@16              4004efac f   kernel32:KERNEL32.dll
 0001:0004dfb2       _HeapAlloc@12              4004efb2 f   kernel32:KERNEL32.dll
 0001:0004dfb8       _HeapReAlloc@16            4004efb8 f   kernel32:KERNEL32.dll
 0001:0004dfbe       _VirtualAlloc@16           4004efbe f   kernel32:KERNEL32.dll
 0001:0004dfc4       _GetACP@0                  4004efc4 f   kernel32:KERNEL32.dll
 0001:0004dfca       _GetOEMCP@0                4004efca f   kernel32:KERNEL32.dll
 0001:0004dfd0       _SetStdHandle@8            4004efd0 f   kernel32:KERNEL32.dll
 0001:0004dfd6       _CloseHandle@4             4004efd6 f   kernel32:KERNEL32.dll
 0001:0004dfdc       _GetTimeZoneInformation@4  4004efdc f   kernel32:KERNEL32.dll
 0001:0004dfe2       _GetLocaleInfoW@16         4004efe2 f   kernel32:KERNEL32.dll
 0001:0004dfe8       _CompareStringA@24         4004efe8 f   kernel32:KERNEL32.dll
 0001:0004dfee       _CompareStringW@24         4004efee f   kernel32:KERNEL32.dll
 0001:0004dff4       _SetEnvironmentVariableA@8 4004eff4 f   kernel32:KERNEL32.dll
 0001:00054e90       __enc$textbss$begin        40055e90     <linker-defined>
 0001:0007b790       __enc$textbss$end          4007c790     <linker-defined>
 0002:0000001c       ??_C@_07CGGI@EV_WALL?$AA@  4007d01c     bg_misc.obj
 0002:00000028       ??_C@_0BA@NBAJ@EV_MANUALORIENT?$AA@ 4007d028     bg_misc.obj
 0002:0000003c       ??_C@_0O@JCAD@EV_AUTOORIENT?$AA@ 4007d03c     bg_misc.obj
 0002:0000004c       ??_C@_0BL@FFOI@EV_TAUNTEV_JUMP_PAD_ENTITY?$AA@ 4007d04c     bg_misc.obj
 0002:0000006c       ??_C@_0BE@BDJC@EV_STOPLOOPINGSOUND?$AA@ 4007d06c     bg_misc.obj
 0002:00000084       ??_C@_0O@BDBB@EV_DEBUG_LINE?$AA@ 4007d084     bg_misc.obj
 0002:00000094       ??_C@_0BB@MBOB@EV_LIGHTNINGBOLT?$AA@ 4007d094     bg_misc.obj
 0002:000000a8       ??_C@_09JFKJ@EV_JUICED?$AA@ 4007d0a8     bg_misc.obj
 0002:000000b4       ??_C@_0BA@GDOI@EV_INVUL_IMPACT?$AA@ 4007d0b4     bg_misc.obj
 0002:000000c8       ??_C@_0BC@POAK@EV_OBELISKEXPLODE?$AA@ 4007d0c8     bg_misc.obj
 0002:000000e0       ??_C@_0M@KIDO@EV_KAMIKAZE?$AA@ 4007d0e0     bg_misc.obj
 0002:000000f0       ??_C@_0BK@KGMO@EV_PROXIMITY_MINE_TRIGGER?$AA@ 4007d0f0     bg_misc.obj
 0002:00000110       ??_C@_0BI@LIAD@EV_PROXIMITY_MINE_STICK?$AA@ 4007d110     bg_misc.obj
 0002:0000012c       ??_C@_0N@CDHP@EV_SCOREPLUM?$AA@ 4007d12c     bg_misc.obj
 0002:0000013c       ??_C@_0O@CIDG@EV_GIB_PLAYER?$AA@ 4007d13c     bg_misc.obj
 0002:0000014c       ??_C@_0BB@LKNF@EV_POWERUP_REGEN?$AA@ 4007d14c     bg_misc.obj
 0002:00000160       ??_C@_0BG@KJJ@EV_POWERUP_BATTLESUIT?$AA@ 4007d160     bg_misc.obj
 0002:0000017c       ??_C@_0BA@EMDG@EV_POWERUP_QUAD?$AA@ 4007d17c     bg_misc.obj
 0002:00000190       ??_C@_0M@MMOI@EV_OBITUARY?$AA@ 4007d190     bg_misc.obj
 0002:000001a0       ??_C@_09EH@EV_DEATH3?$AA@  4007d1a0     bg_misc.obj
 0002:000001ac       ??_C@_09KKNA@EV_DEATH2?$AA@ 4007d1ac     bg_misc.obj
 0002:000001b8       ??_C@_09FFGJ@EV_DEATH1?$AA@ 4007d1b8     bg_misc.obj
 0002:000001c4       ??_C@_07MFPI@EV_PAIN?$AA@  4007d1c4     bg_misc.obj
 0002:000001d0       ??_C@_09PBG@EV_BULLET?$AA@ 4007d1d0     bg_misc.obj
 0002:000001dc       ??_C@_0L@PELA@EV_SHOTGUN?$AA@ 4007d1dc     bg_misc.obj
 0002:000001ec       ??_C@_0N@FBDJ@EV_RAILTRAIL?$AA@ 4007d1ec     bg_misc.obj
 0002:000001fc       ??_C@_0BG@KLM@EV_MISSILE_MISS_METAL?$AA@ 4007d1fc     bg_misc.obj
 0002:00000218       ??_C@_0BA@FHCK@EV_MISSILE_MISS?$AA@ 4007d218     bg_misc.obj
 0002:0000022c       ??_C@_0P@GMEB@EV_MISSILE_HIT?$AA@ 4007d22c     bg_misc.obj
 0002:00000240       ??_C@_0BD@FCGB@EV_BULLET_HIT_WALL?$AA@ 4007d240     bg_misc.obj
 0002:00000258       ??_C@_0BE@OJNL@EV_BULLET_HIT_FLESH?$AA@ 4007d258     bg_misc.obj
 0002:00000270       ??_C@_0BF@GBCB@EV_GLOBAL_TEAM_SOUND?$AA@ 4007d270     bg_misc.obj
 0002:0000028c       ??_C@_0BA@DICP@EV_GLOBAL_SOUND?$AA@ 4007d28c     bg_misc.obj
 0002:000002a0       ??_C@_0BB@PHBP@EV_GENERAL_SOUND?$AA@ 4007d2a0     bg_misc.obj
 0002:000002b4       ??_C@_0BC@MNAB@EV_GRENADE_BOUNCE?$AA@ 4007d2b4     bg_misc.obj
 0002:000002cc       ??_C@_0BH@CBAJ@EV_PLAYER_TELEPORT_OUT?$AA@ 4007d2cc     bg_misc.obj
 0002:000002e8       ??_C@_0BG@JACO@EV_PLAYER_TELEPORT_IN?$AA@ 4007d2e8     bg_misc.obj
 0002:00000304       ??_C@_0M@FEGJ@EV_ITEM_POP?$AA@ 4007d304     bg_misc.obj
 0002:00000314       ??_C@_0BA@KOE@EV_ITEM_RESPAWN?$AA@ 4007d314     bg_misc.obj
 0002:00000328       ??_C@_0O@PBJJ@EV_USE_ITEM15?$AA@ 4007d328     bg_misc.obj
 0002:00000338       ??_C@_0O@FLAO@EV_USE_ITEM14?$AA@ 4007d338     bg_misc.obj
 0002:00000348       ??_C@_0O@OOL@EV_USE_ITEM13?$AA@ 4007d348     bg_misc.obj
 0002:00000358       ??_C@_0O@KEHM@EV_USE_ITEM12?$AA@ 4007d358     bg_misc.obj
 0002:00000368       ??_C@_0O@FLMF@EV_USE_ITEM11?$AA@ 4007d368     bg_misc.obj
 0002:00000378       ??_C@_0O@PBFC@EV_USE_ITEM10?$AA@ 4007d378     bg_misc.obj
 0002:00000388       ??_C@_0N@JGCE@EV_USE_ITEM9?$AA@ 4007d388     bg_misc.obj
 0002:00000398       ??_C@_0N@DMLD@EV_USE_ITEM8?$AA@ 4007d398     bg_misc.obj
 0002:000003a8       ??_C@_0N@DNOO@EV_USE_ITEM7?$AA@ 4007d3a8     bg_misc.obj
 0002:000003b8       ??_C@_0N@JHHJ@EV_USE_ITEM6?$AA@ 4007d3b8     bg_misc.obj
 0002:000003c8       ??_C@_0N@GIMA@EV_USE_ITEM5?$AA@ 4007d3c8     bg_misc.obj
 0002:000003d8       ??_C@_0N@MCFH@EV_USE_ITEM4?$AA@ 4007d3d8     bg_misc.obj
 0002:000003e8       ??_C@_0N@JHLC@EV_USE_ITEM3?$AA@ 4007d3e8     bg_misc.obj
 0002:000003f8       ??_C@_0N@DNCF@EV_USE_ITEM2?$AA@ 4007d3f8     bg_misc.obj
 0002:00000408       ??_C@_0N@MCJM@EV_USE_ITEM1?$AA@ 4007d408     bg_misc.obj
 0002:00000418       ??_C@_0N@GIAL@EV_USE_ITEM0?$AA@ 4007d418     bg_misc.obj
 0002:00000428       ??_C@_0P@HOLG@EV_FIRE_WEAPON?$AA@ 4007d428     bg_misc.obj
 0002:0000043c       ??_C@_0BB@OKAK@EV_CHANGE_WEAPON?$AA@ 4007d43c     bg_misc.obj
 0002:00000450       ??_C@_09MIBL@EV_NOAMMO?$AA@ 4007d450     bg_misc.obj
 0002:0000045c       ??_C@_0BG@LBJI@EV_GLOBAL_ITEM_PICKUP?$AA@ 4007d45c     bg_misc.obj
 0002:00000478       ??_C@_0P@DDBJ@EV_ITEM_PICKUP?$AA@ 4007d478     bg_misc.obj
 0002:0000048c       ??_C@_0P@HGEE@EV_WATER_CLEAR?$AA@ 4007d48c     bg_misc.obj
 0002:000004a0       ??_C@_0P@PGNG@EV_WATER_UNDER?$AA@ 4007d4a0     bg_misc.obj
 0002:000004b4       ??_C@_0P@KHGF@EV_WATER_LEAVE?$AA@ 4007d4b4     bg_misc.obj
 0002:000004c8       ??_C@_0P@NPME@EV_WATER_TOUCH?$AA@ 4007d4c8     bg_misc.obj
 0002:000004dc       ??_C@_07MBMN@EV_JUMP?$AA@  4007d4dc     bg_misc.obj
 0002:000004e8       ??_C@_0M@ONMG@EV_JUMP_PAD?$AA@ 4007d4e8     bg_misc.obj
 0002:000004f8       ??_C@_0M@FCFB@EV_FALL_FAR?$AA@ 4007d4f8     bg_misc.obj
 0002:00000508       ??_C@_0P@DAAM@EV_FALL_MEDIUM?$AA@ 4007d508     bg_misc.obj
 0002:0000051c       ??_C@_0O@MOHH@EV_FALL_SHORT?$AA@ 4007d51c     bg_misc.obj
 0002:0000052c       ??_C@_0L@BPHB@EV_STEP_16?$AA@ 4007d52c     bg_misc.obj
 0002:0000053c       ??_C@_0L@LFCN@EV_STEP_12?$AA@ 4007d53c     bg_misc.obj
 0002:0000054c       ??_C@_09GNLK@EV_STEP_8?$AA@ 4007d54c     bg_misc.obj
 0002:00000558       ??_C@_09JDFO@EV_STEP_4?$AA@ 4007d558     bg_misc.obj
 0002:00000564       ??_C@_07JIKK@EV_SWIM?$AA@  4007d564     bg_misc.obj
 0002:00000570       ??_C@_0M@FIHK@EV_FOOTWADE?$AA@ 4007d570     bg_misc.obj
 0002:00000580       ??_C@_0O@KHFI@EV_FOOTSPLASH?$AA@ 4007d580     bg_misc.obj
 0002:00000590       ??_C@_0BC@OEIA@EV_FOOTSTEP_METAL?$AA@ 4007d590     bg_misc.obj
 0002:000005a8       ??_C@_0M@EJAF@EV_FOOTSTEP?$AA@ 4007d5a8     bg_misc.obj
 0002:000005b8       ??_C@_07NDDD@EV_NONE?$AA@  4007d5b8     bg_misc.obj
 0002:000005c4       ??_C@_09DHIB@Blue?5Flag?$AA@ 4007d5c4     bg_misc.obj
 0002:000005d0       ??_C@_0BB@NLLL@icons?1iconf_blu1?$AA@ 4007d5d0     bg_misc.obj
 0002:000005e4       ??_C@_0BI@ILPD@models?1flags?1b_flag?4md3?$AA@ 4007d5e4     bg_misc.obj
 0002:00000600       ??_C@_0BC@GPLF@team_CTF_blueflag?$AA@ 4007d600     bg_misc.obj
 0002:00000618       ??_C@_08CLEI@Red?5Flag?$AA@ 4007d618     bg_misc.obj
 0002:00000624       ??_C@_0BB@DADK@icons?1iconf_red1?$AA@ 4007d624     bg_misc.obj
 0002:00000638       ??_C@_0BI@HHNH@models?1flags?1r_flag?4md3?$AA@ 4007d638     bg_misc.obj
 0002:00000654       ??_C@_0BB@FOCB@team_CTF_redflag?$AA@ 4007d654     bg_misc.obj
 0002:00000668       ??_C@_06CPDM@Flight?$AA@   4007d668     bg_misc.obj
 0002:00000670       ??_C@_0N@DFIJ@icons?1flight?$AA@ 4007d670     bg_misc.obj
 0002:00000680       ??_C@_0CI@PHJ@models?1powerups?1instant?1flight_r@ 4007d680     bg_misc.obj
 0002:000006b0       ??_C@_0CD@MKAO@models?1powerups?1instant?1flight?4m@ 4007d6b0     bg_misc.obj
 0002:000006dc       ??_C@_0BH@FEAN@sound?1items?1flight?4wav?$AA@ 4007d6dc     bg_misc.obj
 0002:000006f8       ??_C@_0M@NKLB@item_flight?$AA@ 4007d6f8     bg_misc.obj
 0002:00000708       ??_C@_0BG@JFPE@sound?1items?1regen?4wav?$AA@ 4007d708     bg_misc.obj
 0002:00000724       ??_C@_0N@KKJF@Regeneration?$AA@ 4007d724     bg_misc.obj
 0002:00000734       ??_C@_0M@KGFF@icons?1regen?$AA@ 4007d734     bg_misc.obj
 0002:00000744       ??_C@_0CH@LMHA@models?1powerups?1instant?1regen_ri@ 4007d744     bg_misc.obj
 0002:00000774       ??_C@_0CC@JDKK@models?1powerups?1instant?1regen?4md@ 4007d774     bg_misc.obj
 0002:0000079c       ??_C@_0BN@ELHM@sound?1items?1regeneration?4wav?$AA@ 4007d79c     bg_misc.obj
 0002:000007c0       ??_C@_0L@JOKD@item_regen?$AA@ 4007d7c0     bg_misc.obj
 0002:000007d0       ??_C@_0N@PHMD@Invisibility?$AA@ 4007d7d0     bg_misc.obj
 0002:000007e0       ??_C@_0M@GBKC@icons?1invis?$AA@ 4007d7e0     bg_misc.obj
 0002:000007f0       ??_C@_0CH@FMDJ@models?1powerups?1instant?1invis_ri@ 4007d7f0     bg_misc.obj
 0002:00000820       ??_C@_0CC@GFDH@models?1powerups?1instant?1invis?4md@ 4007d820     bg_misc.obj
 0002:00000848       ??_C@_0BN@JBDA@sound?1items?1invisibility?4wav?$AA@ 4007d848     bg_misc.obj
 0002:0000086c       ??_C@_0L@FJFE@item_invis?$AA@ 4007d86c     bg_misc.obj
 0002:0000087c       ??_C@_05PDDA@Speed?$AA@    4007d87c     bg_misc.obj
 0002:00000884       ??_C@_0M@MOBK@icons?1haste?$AA@ 4007d884     bg_misc.obj
 0002:00000894       ??_C@_0CH@HLNN@models?1powerups?1instant?1haste_ri@ 4007d894     bg_misc.obj
 0002:000008c4       ??_C@_0CC@HMKI@models?1powerups?1instant?1haste?4md@ 4007d8c4     bg_misc.obj
 0002:000008ec       ??_C@_0BG@HKPG@sound?1items?1haste?4wav?$AA@ 4007d8ec     bg_misc.obj
 0002:00000908       ??_C@_0L@PGOM@item_haste?$AA@ 4007d908     bg_misc.obj
 0002:00000918       ??_C@_0DA@KGOL@sound?1items?1airout?4wav?5sound?1ite@ 4007d918     bg_misc.obj
 0002:00000954       ??_C@_0M@LDNA@Battle?5Suit?$AA@ 4007d954     bg_misc.obj
 0002:00000964       ??_C@_0BB@LIEJ@icons?1envirosuit?$AA@ 4007d964     bg_misc.obj
 0002:00000978       ??_C@_0CI@BLEN@models?1powerups?1instant?1enviro_r@ 4007d978     bg_misc.obj
 0002:000009a8       ??_C@_0CD@EJAP@models?1powerups?1instant?1enviro?4m@ 4007d9a8     bg_misc.obj
 0002:000009d4       ??_C@_0BI@LHNB@sound?1items?1protect?4wav?$AA@ 4007d9d4     bg_misc.obj
 0002:000009f0       ??_C@_0M@CNAP@item_enviro?$AA@ 4007d9f0     bg_misc.obj
 0002:00000a00       ??_C@_0DA@MMGJ@sound?1items?1damage2?4wav?5sound?1it@ 4007da00     bg_misc.obj
 0002:00000a3c       ??_C@_0P@DLFE@Gravity?5Switch?$AA@ 4007da3c     bg_misc.obj
 0002:00000a50       ??_C@_0L@CMEC@icons?1quad?$AA@ 4007da50     bg_misc.obj
 0002:00000a60       ??_C@_0CG@HCKJ@models?1powerups?1instant?1quad_rin@ 4007da60     bg_misc.obj
 0002:00000a90       ??_C@_0CB@LCDA@models?1powerups?1instant?1quad?4md3@ 4007da90     bg_misc.obj
 0002:00000ab8       ??_C@_0BL@FBJD@sound?1items?1quaddamage?4wav?$AA@ 4007dab8     bg_misc.obj
 0002:00000ad8       ??_C@_09NKAN@item_quad?$AA@ 4007dad8     bg_misc.obj
 0002:00000ae4       ??_C@_0BL@LIGH@sound?1items?1use_medkit?4wav?$AA@ 4007dae4     bg_misc.obj
 0002:00000b04       ??_C@_06MJBN@Medkit?$AA@   4007db04     bg_misc.obj
 0002:00000b0c       ??_C@_0N@NDKI@icons?1medkit?$AA@ 4007db0c     bg_misc.obj
 0002:00000b1c       ??_C@_0CL@EEMI@models?1powerups?1holdable?1medkit_@ 4007db1c     bg_misc.obj
 0002:00000b50       ??_C@_0CE@BLCG@models?1powerups?1holdable?1medkit?4@ 4007db50     bg_misc.obj
 0002:00000b7c       ??_C@_0BA@HJCK@holdable_medkit?$AA@ 4007db7c     bg_misc.obj
 0002:00000b90       ??_C@_0BE@NHOP@Personal?5Teleporter?$AA@ 4007db90     bg_misc.obj
 0002:00000ba8       ??_C@_0BB@EOIF@icons?1teleporter?$AA@ 4007dba8     bg_misc.obj
 0002:00000bbc       ??_C@_0CI@EJIK@models?1powerups?1holdable?1telepor@ 4007dbbc     bg_misc.obj
 0002:00000bec       ??_C@_0BJ@PMCF@sound?1items?1holdable?4wav?$AA@ 4007dbec     bg_misc.obj
 0002:00000c0c       ??_C@_0BE@EFDD@holdable_teleporter?$AA@ 4007dc0c     bg_misc.obj
 0002:00000c24       ??_C@_08HHBB@Bfg?5Ammo?$AA@ 4007dc24     bg_misc.obj
 0002:00000c30       ??_C@_0BA@LIKB@icons?1icona_bfg?$AA@ 4007dc30     bg_misc.obj
 0002:00000c44       ??_C@_0BP@KGME@models?1powerups?1ammo?1bfgam?4md3?$AA@ 4007dc44     bg_misc.obj
 0002:00000c6c       ??_C@_08BHPM@ammo_bfg?$AA@ 4007dc6c     bg_misc.obj
 0002:00000c78       ??_C@_05OJGD@Slugs?$AA@    4007dc78     bg_misc.obj
 0002:00000c80       ??_C@_0BE@KFKB@icons?1icona_railgun?$AA@ 4007dc80     bg_misc.obj
 0002:00000c98       ??_C@_0CD@BHHI@models?1powerups?1ammo?1railgunam?4m@ 4007dc98     bg_misc.obj
 0002:00000cc4       ??_C@_0L@PCJD@ammo_slugs?$AA@ 4007dcc4     bg_misc.obj
 0002:00000cd4       ??_C@_07ONGL@Rockets?$AA@  4007dcd4     bg_misc.obj
 0002:00000ce0       ??_C@_0BD@NDBD@icons?1icona_rocket?$AA@ 4007dce0     bg_misc.obj
 0002:00000cf8       ??_C@_0CC@JMHP@models?1powerups?1ammo?1rocketam?4md@ 4007dcf8     bg_misc.obj
 0002:00000d20       ??_C@_0N@DEF@ammo_rockets?$AA@ 4007dd20     bg_misc.obj
 0002:00000d30       ??_C@_09NPLP@Lightning?$AA@ 4007dd30     bg_misc.obj
 0002:00000d3c       ??_C@_0BG@BLCM@icons?1icona_lightning?$AA@ 4007dd3c     bg_misc.obj
 0002:00000d58       ??_C@_0CF@DECD@models?1powerups?1ammo?1lightningam@ 4007dd58     bg_misc.obj
 0002:00000d84       ??_C@_0P@FNDL@ammo_lightning?$AA@ 4007dd84     bg_misc.obj
 0002:00000d98       ??_C@_05IJJG@Cells?$AA@    4007dd98     bg_misc.obj
 0002:00000da0       ??_C@_0BD@PPKI@icons?1icona_plasma?$AA@ 4007dda0     bg_misc.obj
 0002:00000db8       ??_C@_0CC@GNJA@models?1powerups?1ammo?1plasmaam?4md@ 4007ddb8     bg_misc.obj
 0002:00000de0       ??_C@_0L@JCGG@ammo_cells?$AA@ 4007dde0     bg_misc.obj
 0002:00000df0       ??_C@_08CFEJ@Grenades?$AA@ 4007ddf0     bg_misc.obj
 0002:00000dfc       ??_C@_0BE@MMLE@icons?1icona_grenade?$AA@ 4007ddfc     bg_misc.obj
 0002:00000e14       ??_C@_0CD@NMEK@models?1powerups?1ammo?1grenadeam?4m@ 4007de14     bg_misc.obj
 0002:00000e40       ??_C@_0O@KBKH@ammo_grenades?$AA@ 4007de40     bg_misc.obj
 0002:00000e50       ??_C@_07EDBM@Bullets?$AA@  4007de50     bg_misc.obj
 0002:00000e5c       ??_C@_0BH@DHGM@icons?1icona_machinegun?$AA@ 4007de5c     bg_misc.obj
 0002:00000e78       ??_C@_0CG@KHPE@models?1powerups?1ammo?1machineguna@ 4007de78     bg_misc.obj
 0002:00000ea8       ??_C@_0N@KNDC@ammo_bullets?$AA@ 4007dea8     bg_misc.obj
 0002:00000eb8       ??_C@_06OAJC@Shells?$AA@   4007deb8     bg_misc.obj
 0002:00000ec0       ??_C@_0BE@MPL@icons?1icona_shotgun?$AA@ 4007dec0     bg_misc.obj
 0002:00000ed8       ??_C@_0CD@LJLN@models?1powerups?1ammo?1shotgunam?4m@ 4007ded8     bg_misc.obj
 0002:00000f04       ??_C@_0BH@EMHN@sound?1misc?1am_pkup?4wav?$AA@ 4007df04     bg_misc.obj
 0002:00000f20       ??_C@_0M@MOIJ@ammo_shells?$AA@ 4007df20     bg_misc.obj
 0002:00000f30       ??_C@_0P@MANM@Grappling?5Hook?$AA@ 4007df30     bg_misc.obj
 0002:00000f44       ??_C@_0BE@IDGG@icons?1iconw_grapple?$AA@ 4007df44     bg_misc.obj
 0002:00000f5c       ??_C@_0CE@LPMO@models?1weapons2?1grapple?1grapple?4@ 4007df5c     bg_misc.obj
 0002:00000f88       ??_C@_0BF@GCPL@weapon_grapplinghook?$AA@ 4007df88     bg_misc.obj
 0002:00000fa4       ??_C@_06KEGK@BFG10K?$AA@   4007dfa4     bg_misc.obj
 0002:00000fac       ??_C@_0BA@HKCL@icons?1iconw_bfg?$AA@ 4007dfac     bg_misc.obj
 0002:00000fc0       ??_C@_0BM@MFN@models?1weapons2?1bfg?1bfg?4md3?$AA@ 4007dfc0     bg_misc.obj
 0002:00000fe4       ??_C@_0L@NOHL@weapon_bfg?$AA@ 4007dfe4     bg_misc.obj
 0002:00000ff4       ??_C@_0L@OMHC@Plasma?5Gun?$AA@ 4007dff4     bg_misc.obj
 0002:00001004       ??_C@_0BD@MNKG@icons?1iconw_plasma?$AA@ 4007e004     bg_misc.obj
 0002:0000101c       ??_C@_0CC@DOHF@models?1weapons2?1plasma?1plasma?4md@ 4007e01c     bg_misc.obj
 0002:00001044       ??_C@_0BB@IMNM@weapon_plasmagun?$AA@ 4007e044     bg_misc.obj
 0002:00001058       ??_C@_05BEPM@LASER?$AA@    4007e058     bg_misc.obj
 0002:00001060       ??_C@_0BE@MJD@icons?1iconw_railgun?$AA@ 4007e060     bg_misc.obj
 0002:00001078       ??_C@_0CE@GDNL@models?1weapons2?1railgun?1railgun?4@ 4007e078     bg_misc.obj
 0002:000010a4       ??_C@_0P@FOOL@weapon_railgun?$AA@ 4007e0a4     bg_misc.obj
 0002:000010b8       ??_C@_0O@JANJ@Lightning?5Gun?$AA@ 4007e0b8     bg_misc.obj
 0002:000010c8       ??_C@_0BG@MMPA@icons?1iconw_lightning?$AA@ 4007e0c8     bg_misc.obj
 0002:000010e4       ??_C@_0CI@OODD@models?1weapons2?1lightning?1lightn@ 4007e0e4     bg_misc.obj
 0002:00001114       ??_C@_0BB@GAKO@weapon_lightning?$AA@ 4007e114     bg_misc.obj
 0002:00001128       ??_C@_0BA@JFMN@Rocket?5Launcher?$AA@ 4007e128     bg_misc.obj
 0002:0000113c       ??_C@_0BD@OBBN@icons?1iconw_rocket?$AA@ 4007e13c     bg_misc.obj
 0002:00001154       ??_C@_0CE@CDMO@models?1weapons2?1rocketl?1rocketl?4@ 4007e154     bg_misc.obj
 0002:00001180       ??_C@_0BG@EKMA@weapon_rocketlauncher?$AA@ 4007e180     bg_misc.obj
 0002:0000119c       ??_C@_0EG@FCJ@sound?1weapons?1grenade?1hgrenb1a?4w@ 4007e19c     bg_misc.obj
 0002:000011f0       ??_C@_0BB@KEFG@Grenade?5Launcher?$AA@ 4007e1f0     bg_misc.obj
 0002:00001204       ??_C@_0BE@GFIG@icons?1iconw_grenade?$AA@ 4007e204     bg_misc.obj
 0002:0000121c       ??_C@_0CG@MONC@models?1weapons2?1grenadel?1grenade@ 4007e21c     bg_misc.obj
 0002:0000124c       ??_C@_0BH@FDFB@weapon_grenadelauncher?$AA@ 4007e24c     bg_misc.obj
 0002:00001268       ??_C@_0L@OIKI@Machinegun?$AA@ 4007e268     bg_misc.obj
 0002:00001278       ??_C@_0BH@IFLL@icons?1iconw_machinegun?$AA@ 4007e278     bg_misc.obj
 0002:00001294       ??_C@_0CK@BP@models?1weapons2?1machinegun?1machi@ 4007e294     bg_misc.obj
 0002:000012c8       ??_C@_0BC@JMBH@weapon_machinegun?$AA@ 4007e2c8     bg_misc.obj
 0002:000012e0       ??_C@_07GAKK@Shotgun?$AA@  4007e2e0     bg_misc.obj
 0002:000012ec       ??_C@_0BE@KFMJ@icons?1iconw_shotgun?$AA@ 4007e2ec     bg_misc.obj
 0002:00001304       ??_C@_0CE@FIBC@models?1weapons2?1shotgun?1shotgun?4@ 4007e304     bg_misc.obj
 0002:00001330       ??_C@_0P@PHLB@weapon_shotgun?$AA@ 4007e330     bg_misc.obj
 0002:00001344       ??_C@_08MFME@Gauntlet?$AA@ 4007e344     bg_misc.obj
 0002:00001350       ??_C@_0BF@IKAB@icons?1iconw_gauntlet?$AA@ 4007e350     bg_misc.obj
 0002:0000136c       ??_C@_0CG@ENLL@models?1weapons2?1gauntlet?1gauntle@ 4007e36c     bg_misc.obj
 0002:0000139c       ??_C@_0BG@OBIE@sound?1misc?1w_pkup?4wav?$AA@ 4007e39c     bg_misc.obj
 0002:000013b8       ??_C@_0BA@NEFD@weapon_gauntlet?$AA@ 4007e3b8     bg_misc.obj
 0002:000013cc       ??_C@_0M@MPBK@Mega?5Health?$AA@ 4007e3cc     bg_misc.obj
 0002:000013dc       ??_C@_0BB@FCLL@icons?1iconh_mega?$AA@ 4007e3dc     bg_misc.obj
 0002:000013f0       ??_C@_0CH@HNCC@models?1powerups?1health?1mega_sphe@ 4007e3f0     bg_misc.obj
 0002:00001420       ??_C@_0CG@GJOF@models?1powerups?1health?1mega_cros@ 4007e420     bg_misc.obj
 0002:00001450       ??_C@_0BJ@GHGJ@sound?1items?1m_health?4wav?$AA@ 4007e450     bg_misc.obj
 0002:00001470       ??_C@_0BB@KJE@item_health_mega?$AA@ 4007e470     bg_misc.obj
 0002:00001484       ??_C@_09DDEP@50?5Health?$AA@ 4007e484     bg_misc.obj
 0002:00001490       ??_C@_0BA@PMIC@icons?1iconh_red?$AA@ 4007e490     bg_misc.obj
 0002:000014a4       ??_C@_0CI@LKJF@models?1powerups?1health?1large_sph@ 4007e4a4     bg_misc.obj
 0002:000014d4       ??_C@_0CH@NOLN@models?1powerups?1health?1large_cro@ 4007e4d4     bg_misc.obj
 0002:00001504       ??_C@_0BJ@KID@sound?1items?1l_health?4wav?$AA@ 4007e504     bg_misc.obj
 0002:00001524       ??_C@_0BC@KFF@item_health_large?$AA@ 4007e524     bg_misc.obj
 0002:0000153c       ??_C@_09BECD@25?5Health?$AA@ 4007e53c     bg_misc.obj
 0002:00001548       ??_C@_0BD@IBDP@icons?1iconh_yellow?$AA@ 4007e548     bg_misc.obj
 0002:00001560       ??_C@_0CJ@KCHG@models?1powerups?1health?1medium_sp@ 4007e560     bg_misc.obj
 0002:00001594       ??_C@_0CI@DNPD@models?1powerups?1health?1medium_cr@ 4007e594     bg_misc.obj
 0002:000015c4       ??_C@_0BJ@NBFG@sound?1items?1n_health?4wav?$AA@ 4007e5c4     bg_misc.obj
 0002:000015e4       ??_C@_0M@DFKC@item_health?$AA@ 4007e5e4     bg_misc.obj
 0002:000015f4       ??_C@_08PNDE@5?5Health?$AA@ 4007e5f4     bg_misc.obj
 0002:00001600       ??_C@_0BC@CNMA@icons?1iconh_green?$AA@ 4007e600     bg_misc.obj
 0002:00001618       ??_C@_0CI@MNOG@models?1powerups?1health?1small_sph@ 4007e618     bg_misc.obj
 0002:00001648       ??_C@_0CH@KNOH@models?1powerups?1health?1small_cro@ 4007e648     bg_misc.obj
 0002:00001678       ??_C@_0BJ@LKOK@sound?1items?1s_health?4wav?$AA@ 4007e678     bg_misc.obj
 0002:00001698       ??_C@_0BC@HBNN@item_health_small?$AA@ 4007e698     bg_misc.obj
 0002:000016b0       ??_C@_0M@LPCG@Heavy?5Armor?$AA@ 4007e6b0     bg_misc.obj
 0002:000016c0       ??_C@_0BA@LPLH@icons?1iconr_red?$AA@ 4007e6c0     bg_misc.obj
 0002:000016d4       ??_C@_0CE@HDBK@models?1powerups?1armor?1armor_red?4@ 4007e6d4     bg_misc.obj
 0002:00001700       ??_C@_0BA@GFMA@item_armor_body?$AA@ 4007e700     bg_misc.obj
 0002:00001714       ??_C@_05KFDN@Armor?$AA@    4007e714     bg_misc.obj
 0002:0000171c       ??_C@_0BD@NCPP@icons?1iconr_yellow?$AA@ 4007e71c     bg_misc.obj
 0002:00001734       ??_C@_0CE@HFCD@models?1powerups?1armor?1armor_yel?4@ 4007e734     bg_misc.obj
 0002:00001760       ??_C@_0BI@BDMK@sound?1misc?1ar2_pkup?4wav?$AA@ 4007e760     bg_misc.obj
 0002:0000177c       ??_C@_0BC@GPNI@item_armor_combat?$AA@ 4007e77c     bg_misc.obj
 0002:00001794       ??_C@_0M@KPGH@Armor?5Shard?$AA@ 4007e794     bg_misc.obj
 0002:000017a4       ??_C@_0BC@BIPJ@icons?1iconr_shard?$AA@ 4007e7a4     bg_misc.obj
 0002:000017bc       ??_C@_0CH@FIOC@models?1powerups?1armor?1shard_sphe@ 4007e7bc     bg_misc.obj
 0002:000017ec       ??_C@_0CA@DPKE@models?1powerups?1armor?1shard?4md3?$AA@ 4007e7ec     bg_misc.obj
 0002:00001814       ??_C@_0BI@IDIM@sound?1misc?1ar1_pkup?4wav?$AA@ 4007e814     bg_misc.obj
 0002:00001830       ??_C@_0BB@JODA@item_armor_shard?$AA@ 4007e830     bg_misc.obj
 0002:00001844       ??_C@_00A@?$AA@            4007e844     bg_misc.obj
 0002:00001848       ??_C@_07EHJG@warmach?$AA@  4007e848     bg_misc.obj
 0002:00001854       ??_C@_05BEID@crash?$AA@    4007e854     bg_misc.obj
 0002:0000185c       ??_C@_04IKIB@doom?$AA@     4007e85c     bg_misc.obj
 0002:00001864       ??_C@_0BH@HPPA@HoldableItem?5not?5found?$AA@ 4007e864     bg_misc.obj
 0002:00001880       ??_C@_0CB@NJCB@Couldn?8t?5find?5item?5for?5weapon?5?$CFi@ 4007e880     bg_misc.obj
 0002:000018a8       __real@4@c0049000000000000000 4007e8a8     bg_misc.obj
 0002:000018ac       __real@4@40049000000000000000 4007e8ac     bg_misc.obj
 0002:000018b0       __real@4@c004c800000000000000 4007e8b0     bg_misc.obj
 0002:000018b4       __real@4@4004b000000000000000 4007e8b4     bg_misc.obj
 0002:000018b8       ??_C@_0CG@LBIF@BG_CanItemBeGrabbed?3?5unknown?5enu@ 4007e8b8     bg_misc.obj
 0002:000018e8       ??_C@_0BM@HEIN@BG_CanItemBeGrabbed?3?5IT_BAD?$AA@ 4007e8e8     bg_misc.obj
 0002:0000190c       ??_C@_0CI@DJME@BG_CanItemBeGrabbed?3?5index?5out?5o@ 4007e90c     bg_misc.obj
 0002:0000193c       ??_C@_0CK@CFCO@BG_EvaluateTrajectory?3?5unknown?5t@ 4007e93c     bg_misc.obj
 0002:00001970       __real@8@4007c800000000000000 4007e970     bg_misc.obj
 0002:0000197c       __real@4@00000000000000000000 4007e97c     bg_misc.obj
 0002:00001980       __real@4@4000c90fdb0000000000 4007e980     bg_misc.obj
 0002:00001988       __real@8@3ff583126e978d4fe000 4007e988     bg_misc.obj
 0002:00001994       ??_C@_0CP@HAJH@BG_EvaluateTrajectoryDelta?3?5unkn@ 4007e994     bg_misc.obj
 0002:000019cc       __real@4@4008c800000000000000 4007e9cc     bg_misc.obj
 0002:000019d0       __real@8@3ffe8000000000000000 4007e9d0     bg_misc.obj
 0002:000019dc       ??_C@_0DA@GE@Cgame?5event?5svt?5?$CF5d?5?9?$DO?5?$CF5d?3?5num?5@ 4007e9dc     bg_misc.obj
 0002:00001a18       __real@8@00000000000000000000 4007ea18     bg_misc.obj
 0002:00001a24       ??_C@_0L@IGHG@showevents?$AA@ 4007ea24     bg_misc.obj
 0002:00001a34       __real@4@400f8000000000000000 4007ea34     q_math.obj
 0002:00001a38       __real@4@4006ff00000000000000 4007ea38     q_math.obj
 0002:00001a3c       __real@4@4006b400000000000000 4007ea3c     q_math.obj
 0002:00001a40       __real@4@4007b400000000000000 4007ea40     q_math.obj
 0002:00001a48       __real@8@4000c90fdb0000000000 4007ea48     q_math.obj
 0002:00001a58       __real@8@4006b400000000000000 4007ea58     q_math.obj
 0002:00001a64       __real@4@3fff8000000000000000 4007ea64     q_math.obj
 0002:00001a68       ??_C@_0BK@OJK@Q_fabs?$CIinv_denom?$CJ?5?$CB?$DN?50?40f?$AA@ 4007ea68     q_math.obj
 0002:00001a88       ??_C@_0CP@GPPI@c?3?2ygpip?2quake3?2escherspace?2code@ 4007ea88     q_math.obj
 0002:00001ac0       __real@4@3ffe8000000000000000 4007eac0     q_math.obj
 0002:00001ac4       __real@4@c006b400000000000000 4007eac4     q_math.obj
 0002:00001ac8       __real@8@3ff7b400000000000000 4007eac8     q_math.obj
 0002:00001ad8       __real@8@4006b60b60b60b60b800 4007ead8     q_math.obj
 0002:00001ae8       __real@8@4007b400000000000000 4007eae8     q_math.obj
 0002:00001af4       __real@4@bfff8000000000000000 4007eaf4     q_math.obj
 0002:00001af8       __real@4@3ff98efa350000000000 4007eaf8     q_math.obj
 0002:00001afc       ??_C@_04DCMN@?$CFs?$CFs?$AA@ 4007eafc     q_shared.obj
 0002:00001b04       ??_C@_02DILL@?$CFs?$AA@    4007eb04     q_shared.obj
 0002:00001b08       ??_C@_0BI@KJOD@ERROR?3?5?$CFs?0?5line?5?$CFd?3?5?$CFs?6?$AA@ 4007eb08     q_shared.obj
 0002:00001b24       ??_C@_0BK@EEPA@WARNING?3?5?$CFs?0?5line?5?$CFd?3?5?$CFs?6?$AA@ 4007eb24     q_shared.obj
 0002:00001b44       ??_C@_0BF@JENF@MatchToken?3?5?$CFs?5?$CB?$DN?5?$CFs?$AA@ 4007eb44     q_shared.obj
 0002:00001b60       ??_C@_01KMMP@?$CJ?$AA@     4007eb60     q_shared.obj
 0002:00001b64       ??_C@_01GFI@?$CI?$AA@      4007eb64     q_shared.obj
 0002:00001b68       ??_C@_0BJ@GDCK@Q_strncpyz?3?5destsize?5?$DM?51?$AA@ 4007eb68     q_shared.obj
 0002:00001b88       ??_C@_0BF@OBLI@Q_strncpyz?3?5NULL?5src?$AA@ 4007eb88     q_shared.obj
 0002:00001ba4       ??_C@_0BG@BANA@Q_strncpyz?3?5NULL?5dest?$AA@ 4007eba4     q_shared.obj
 0002:00001bc0       ??_C@_0BN@PKJG@Q_strcat?3?5already?5overflowed?$AA@ 4007ebc0     q_shared.obj
 0002:00001be4       ??_C@_0CD@KCEE@Com_sprintf?3?5overflow?5of?5?$CFi?5in?5?$CF@ 4007ebe4     q_shared.obj
 0002:00001c10       ??_C@_0CC@NDC@Com_sprintf?3?5overflowed?5bigbuffe@ 4007ec10     q_shared.obj
 0002:00001c38       ??_C@_0CG@FAFH@Info_ValueForKey?3?5oversize?5infos@ 4007ec38     q_shared.obj
 0002:00001c68       ??_C@_0CE@CNEE@Info_RemoveKey?3?5oversize?5infostr@ 4007ec68     q_shared.obj
 0002:00001c94       ??_C@_0CI@EHFL@Info_RemoveKey_Big?3?5oversize?5inf@ 4007ec94     q_shared.obj
 0002:00001cc4       ??_C@_0BN@DPCF@Info?5string?5length?5exceeded?6?$AA@ 4007ecc4     q_shared.obj
 0002:00001ce8       ??_C@_06GNBE@?2?$CFs?2?$CFs?$AA@ 4007ece8     q_shared.obj
 0002:00001cf0       ??_C@_0CD@NLGB@Can?8t?5use?5keys?5or?5values?5with?5a?5@ 4007ecf0     q_shared.obj
 0002:00001d1c       ??_C@_0CL@GPCB@Can?8t?5use?5keys?5or?5values?5with?5a?5@ 4007ed1c     q_shared.obj
 0002:00001d50       ??_C@_0CD@MJE@Can?8t?5use?5keys?5or?5values?5with?5a?5@ 4007ed50     q_shared.obj
 0002:00001d7c       ??_C@_0CJ@GBHP@Info_SetValueForKey?3?5oversize?5in@ 4007ed7c     q_shared.obj
 0002:00001db0       ??_C@_0CB@GPOG@BIG?5Info?5string?5length?5exceeded?6@ 4007edb0     q_shared.obj
 0002:00001dd8       ??_C@_04KPAE@Blue?$AA@     4007edd8     ui_addbots.obj
 0002:00001de0       ??_C@_03GOGG@Red?$AA@      4007ede0     ui_addbots.obj
 0002:00001de4       ??_C@_04NEN@Free?$AA@      4007ede4     ui_addbots.obj
 0002:00001dec       ??_C@_0L@POAD@Nightmare?$CB?$AA@ 4007edec     ui_addbots.obj
 0002:00001dfc       ??_C@_08IEMG@Hardcore?$AA@ 4007edfc     ui_addbots.obj
 0002:00001e08       ??_C@_0P@PDMK@Hurt?5Me?5Plenty?$AA@ 4007ee08     ui_addbots.obj
 0002:00001e1c       ??_C@_0M@JFCJ@Bring?5It?5On?$AA@ 4007ee1c     ui_addbots.obj
 0002:00001e2c       ??_C@_09CEKA@I?5Can?5Win?$AA@ 4007ee2c     ui_addbots.obj
 0002:00001e38       ??_C@_0BJ@ENDM@menu?1art?1arrows_vert_bot?$AA@ 4007ee38     ui_addbots.obj
 0002:00001e58       ??_C@_0BJ@CKHN@menu?1art?1arrows_vert_top?$AA@ 4007ee58     ui_addbots.obj
 0002:00001e78       ??_C@_0BH@JOAE@menu?1art?1arrows_vert_0?$AA@ 4007ee78     ui_addbots.obj
 0002:00001e94       ??_C@_0BF@JJJM@menu?1art?1addbotframe?$AA@ 4007ee94     ui_addbots.obj
 0002:00001eb0       ??_C@_0BC@BMCM@menu?1art?1accept_1?$AA@ 4007eeb0     ui_addbots.obj
 0002:00001ec8       ??_C@_0BC@LGLL@menu?1art?1accept_0?$AA@ 4007eec8     ui_addbots.obj
 0002:00001ee0       ??_C@_0BA@EHCE@menu?1art?1back_1?$AA@ 4007eee0     ui_addbots.obj
 0002:00001ef4       ??_C@_0BA@ONLD@menu?1art?1back_0?$AA@ 4007eef4     ui_addbots.obj
 0002:00001f08       ??_C@_06KKMM@Team?3?5?$AA@ 4007ef08     ui_addbots.obj
 0002:00001f10       ??_C@_09DOO@g_spSkill?$AA@ 4007ef10     ui_addbots.obj
 0002:00001f1c       ??_C@_06OEMK@Skill?3?$AA@  4007ef1c     ui_addbots.obj
 0002:00001f24       ??_C@_0L@IEJM@g_gametype?$AA@ 4007ef24     ui_addbots.obj
 0002:00001f34       ??_C@_0BE@HDLF@addbot?5?$CFs?5?$CFi?5?$CFs?5?$CFi?6?$AA@ 4007ef34     ui_addbots.obj
 0002:00001f4c       ??_C@_04OPJK@name?$AA@     4007ef4c     ui_addbots.obj
 0002:00001f54       ??_C@_08LKGG@ADD?5BOTS?$AA@ 4007ef54     ui_addbots.obj
 0002:00001f60       ??_C@_03CHOC@d1?6?$AA@     4007ef60     ui_atoms.obj
 0002:00001f64       ??_C@_0CB@ONGH@UI_PushMenu?3?5menu?5stack?5overflow@ 4007ef64     ui_atoms.obj
 0002:00001f8c       ??_C@_0CB@JNIB@UI_PopMenu?3?5menu?5stack?5underflow@ 4007ef8c     ui_atoms.obj
 0002:00001fb4       ??_C@_09ENJF@cl_paused?$AA@ 4007efb4     ui_atoms.obj
 0002:00001fc0       ??_C@_01PLJA@0?$AA@        4007efc0     ui_atoms.obj
 0002:00001fc8       __real@8@3fff8000000000000000 4007efc8     ui_atoms.obj
 0002:00001fd4       __real@4@40018000000000000000 4007efd4     ui_atoms.obj
 0002:00001fd8       __real@4@40078000000000000000 4007efd8     ui_atoms.obj
 0002:00001fdc       __real@4@40038000000000000000 4007efdc     ui_atoms.obj
 0002:00001fe0       __real@4@3ffec000000000000000 4007efe0     ui_atoms.obj
 0002:00001fe8       __real@8@3ffeb333333333333000 4007efe8     ui_atoms.obj
 0002:00001ff4       __real@4@4000c000000000000000 4007eff4     ui_atoms.obj
 0002:00001ff8       __real@4@4003d800000000000000 4007eff8     ui_atoms.obj
 0002:00001ffc       __real@4@40028000000000000000 4007effc     ui_atoms.obj
 0002:00002000       __real@8@3ffeccccccccccccd000 4007f000     ui_atoms.obj
 0002:00002010       __real@8@3ffb8000000000000000 4007f010     ui_atoms.obj
 0002:0000201c       ??_C@_0BP@BIJ@UI_SetActiveMenu?3?5bad?5enum?5?$CFd?6?$AA@ 4007f01c     ui_atoms.obj
 0002:00002044       ??_C@_01FBAH@1?$AA@        4007f044     ui_atoms.obj
 0002:00002048       ??_C@_0L@IPOP@Bad?5CD?5Key?$AA@ 4007f048     ui_atoms.obj
 0002:00002058       ??_C@_0O@NDMM@Insert?5the?5CD?$AA@ 4007f058     ui_atoms.obj
 0002:00002068       ??_C@_05PPMM@quit?6?$AA@   4007f068     ui_atoms.obj
 0002:00002070       ??_C@_08KOD@ui_cdkey?$AA@  4007f070     ui_atoms.obj
 0002:0000207c       ??_C@_0L@HJFD@iamamonkey?$AA@ 4007f07c     ui_atoms.obj
 0002:0000208c       ??_C@_0M@JKON@iamacheater?$AA@ 4007f08c     ui_atoms.obj
 0002:0000209c       ??_C@_0O@DMPO@ui_teamOrders?$AA@ 4007f09c     ui_atoms.obj
 0002:000020ac       ??_C@_0O@DFFH@ui_cinematics?$AA@ 4007f0ac     ui_atoms.obj
 0002:000020bc       ??_C@_08IEIM@ui_cache?$AA@ 4007f0bc     ui_atoms.obj
 0002:000020c8       ??_C@_08BBIO@postgame?$AA@ 4007f0c8     ui_atoms.obj
 0002:000020d4       ??_C@_0M@CACI@levelselect?$AA@ 4007f0d4     ui_atoms.obj
 0002:000020e8       __real@8@3fffaaaaaaaaaaaaa800 4007f0e8     ui_atoms.obj
 0002:000020f8       __real@8@3ff68888888888888800 4007f0f8     ui_atoms.obj
 0002:00002104       ??_C@_07JIMH@?$CI?$CFd?0?$CFd?$CJ?$AA@ 4007f104     ui_atoms.obj
 0002:00002110       ??_C@_0BD@KNHF@menu?1art?1cut_frame?$AA@ 4007f110     ui_cdkey.obj
 0002:00002128       ??_C@_07GMID@CD?5Key?3?$AA@ 4007f128     ui_cdkey.obj
 0002:00002134       ??_C@_06CHE@CD?5KEY?$AA@   4007f134     ui_cdkey.obj
 0002:0000213c       ??_C@_0BA@IOOA@ui_cdkeychecked?$AA@ 4007f13c     ui_cdkey.obj
 0002:00002150       ??_C@_0BI@PEBG@The?5CD?5Key?5is?5not?5valid?$AA@ 4007f150     ui_cdkey.obj
 0002:0000216c       ??_C@_0CK@JJHG@The?5CD?5Key?5appears?5to?5be?5valid?0?5@ 4007f16c     ui_cdkey.obj
 0002:000021a0       ??_C@_0BJ@DEBN@Please?5enter?5your?5CD?5Key?$AA@ 4007f1a0     ui_cdkey.obj
 0002:000021c0       ??_C@_03DNBD@end?$AA@      4007f1c0     ui_cinematics.obj
 0002:000021c4       ??_C@_05DFHG@tier7?$AA@    4007f1c4     ui_cinematics.obj
 0002:000021cc       ??_C@_05JPOB@tier6?$AA@    4007f1cc     ui_cinematics.obj
 0002:000021d4       ??_C@_05GAFI@tier5?$AA@    4007f1d4     ui_cinematics.obj
 0002:000021dc       ??_C@_05MKMP@tier4?$AA@    4007f1dc     ui_cinematics.obj
 0002:000021e4       ??_C@_05JPCK@tier3?$AA@    4007f1e4     ui_cinematics.obj
 0002:000021ec       ??_C@_05DFLN@tier2?$AA@    4007f1ec     ui_cinematics.obj
 0002:000021f4       ??_C@_05MKAE@tier1?$AA@    4007f1f4     ui_cinematics.obj
 0002:000021fc       ??_C@_05MHHD@intro?$AA@    4007f1fc     ui_cinematics.obj
 0002:00002204       ??_C@_06CJKM@idlogo?$AA@   4007f204     ui_cinematics.obj
 0002:0000220c       ??_C@_0BC@CJOE@menu?1art?1frame1_r?$AA@ 4007f20c     ui_cinematics.obj
 0002:00002224       ??_C@_0BC@NNGF@menu?1art?1frame2_l?$AA@ 4007f224     ui_cinematics.obj
 0002:0000223c       ??_C@_03PIHE@END?$AA@      4007f23c     ui_cinematics.obj
 0002:00002240       ??_C@_06LPLI@Tier?57?$AA@  4007f240     ui_cinematics.obj
 0002:00002248       ??_C@_06BFCP@Tier?56?$AA@  4007f248     ui_cinematics.obj
 0002:00002250       ??_C@_06OKJG@Tier?55?$AA@  4007f250     ui_cinematics.obj
 0002:00002258       ??_C@_06EAAB@Tier?54?$AA@  4007f258     ui_cinematics.obj
 0002:00002260       ??_C@_06BFOE@Tier?53?$AA@  4007f260     ui_cinematics.obj
 0002:00002268       ??_C@_06LPHD@Tier?52?$AA@  4007f268     ui_cinematics.obj
 0002:00002270       ??_C@_06EAMK@Tier?51?$AA@  4007f270     ui_cinematics.obj
 0002:00002278       ??_C@_05KMPM@INTRO?$AA@    4007f278     ui_cinematics.obj
 0002:00002280       ??_C@_07OKDN@ID?5LOGO?$AA@ 4007f280     ui_cinematics.obj
 0002:0000228c       ??_C@_0L@PHKE@CINEMATICS?$AA@ 4007f28c     ui_cinematics.obj
 0002:0000229c       ??_C@_0BO@LJAG@disconnect?$DL?5cinematic?5?$CFs?4RoQ?6?$AA@ 4007f29c     ui_cinematics.obj
 0002:000022c0       ??_C@_0CF@HIJA@disconnect?$DL?5cinematic?5demoEnd?4Ro@ 4007f2c0     ui_cinematics.obj
 0002:000022ec       ??_C@_07LBIF@nextmap?$AA@  4007f2ec     ui_cinematics.obj
 0002:000022f8       ??_C@_0BB@PFKC@ui_cinematics?5?$CFi?$AA@ 4007f2f8     ui_cinematics.obj
 0002:0000230c       ??_C@_02MMJD@NO?$AA@       4007f30c     ui_confirm.obj
 0002:00002310       ??_C@_01FDLN@?1?$AA@       4007f310     ui_confirm.obj
 0002:00002314       ??_C@_03HDMP@YES?$AA@      4007f314     ui_confirm.obj
 0002:00002318       ??_C@_06ONIO@YES?1NO?$AA@  4007f318     ui_confirm.obj
 0002:00002320       ??_C@_02HAGF@OK?$AA@       4007f320     ui_confirm.obj
 0002:00002324       ??_C@_0BG@FJIE@Awaiting?5gamestate?4?4?4?$AA@ 4007f324     ui_connect.obj
 0002:00002340       ??_C@_0BA@COHM@cl_downloadName?$AA@ 4007f340     ui_connect.obj
 0002:00002354       ??_C@_0BJ@LHKC@Awaiting?5connection?4?4?4?$CFi?$AA@ 4007f354     ui_connect.obj
 0002:00002374       ??_C@_0BI@EGDO@Awaiting?5challenge?4?4?4?$CFi?$AA@ 4007f374     ui_connect.obj
 0002:00002390       ??_C@_04JPGO@motd?$AA@     4007f390     ui_connect.obj
 0002:00002398       ??_C@_0BB@EPPK@Connecting?5to?5?$CFs?$AA@ 4007f398     ui_connect.obj
 0002:000023ac       ??_C@_0L@OKFN@Loading?5?$CFs?$AA@ 4007f3ac     ui_connect.obj
 0002:000023bc       ??_C@_07DOCO@mapname?$AA@  4007f3bc     ui_connect.obj
 0002:000023c8       ??_C@_06ILBJ@?$CFs?1Sec?$AA@ 4007f3c8     ui_connect.obj
 0002:000023d0       ??_C@_0M@MGID@?$CI?$CFs?5copied?$CJ?$AA@ 4007f3d0     ui_connect.obj
 0002:000023e0       ??_C@_0BC@FCKF@?$CI?$CFs?5of?5?$CFs?5copied?$CJ?$AA@ 4007f3e0     ui_connect.obj
 0002:000023f8       ??_C@_0L@LLJI@estimating?$AA@ 4007f3f8     ui_connect.obj
 0002:00002408       ??_C@_09DPKA@?$CFs?5?$CI?$CFd?$CF?$CF?$CJ?$AA@ 4007f408     ui_connect.obj
 0002:00002414       ??_C@_0BA@ILNM@cl_downloadTime?$AA@ 4007f414     ui_connect.obj
 0002:00002428       ??_C@_0BB@GOLA@cl_downloadCount?$AA@ 4007f428     ui_connect.obj
 0002:0000243c       ??_C@_0BA@HKJO@cl_downloadSize?$AA@ 4007f43c     ui_connect.obj
 0002:00002450       ??_C@_08MBAJ@?$CFd?5bytes?$AA@ 4007f450     ui_connect.obj
 0002:0000245c       ??_C@_05NJKA@?$CFd?5KB?$AA@ 4007f45c     ui_connect.obj
 0002:00002464       ??_C@_08JAMA@?4?$CF02d?5MB?$AA@ 4007f464     ui_connect.obj
 0002:00002470       ??_C@_08IMB@?4?$CF02d?5GB?$AA@ 4007f470     ui_connect.obj
 0002:0000247c       ??_C@_02MECO@?$CFd?$AA@    4007f47c     ui_connect.obj
 0002:00002480       ??_C@_06HLEN@?$CFd?5sec?$AA@ 4007f480     ui_connect.obj
 0002:00002488       ??_C@_0O@IDNP@?$CFd?5min?5?$CFd?5sec?$AA@ 4007f488     ui_connect.obj
 0002:00002498       ??_C@_0N@FNDP@?$CFd?5hr?5?$CFd?5min?$AA@ 4007f498     ui_connect.obj
 0002:000024a8       ??_C@_0M@PFMJ@disconnect?6?$AA@ 4007f4a8     ui_connect.obj
 0002:000024b8       ??_C@_08MAF@m_filter?$AA@  4007f4b8     ui_controls2.obj
 0002:000024c4       ??_C@_0M@CKB@sensitivity?$AA@ 4007f4c4     ui_controls2.obj
 0002:000024d4       ??_C@_0O@LDOP@cg_autoswitch?$AA@ 4007f4d4     ui_controls2.obj
 0002:000024e4       ??_C@_07FHKJ@m_pitch?$AA@  4007f4e4     ui_controls2.obj
 0002:000024f0       ??_C@_06HIKK@cl_run?$AA@   4007f4f0     ui_controls2.obj
 0002:000024f8       ??_C@_0BB@PLKJ@auto?5orientation?$AA@ 4007f4f8     ui_controls2.obj
 0002:0000250c       ??_C@_09OOGO@?$CLbutton13?$AA@ 4007f50c     ui_controls2.obj
 0002:00002518       ??_C@_06BLON@thrust?$AA@   4007f518     ui_controls2.obj
 0002:00002520       ??_C@_09EEPJ@?$CLbutton12?$AA@ 4007f520     ui_controls2.obj
 0002:0000252c       ??_C@_0BC@BODF@reset?5orientation?$AA@ 4007f52c     ui_controls2.obj
 0002:00002544       ??_C@_09OOOK@resetgrav?$AA@ 4007f544     ui_controls2.obj
 0002:00002550       ??_C@_0M@CLJL@chat?5?9?5team?$AA@ 4007f550     ui_controls2.obj
 0002:00002560       ??_C@_0N@OKBC@messagemode2?$AA@ 4007f560     ui_controls2.obj
 0002:00002570       ??_C@_04FLKK@chat?$AA@     4007f570     ui_controls2.obj
 0002:00002578       ??_C@_0M@KMFF@messagemode?$AA@ 4007f578     ui_controls2.obj
 0002:00002588       ??_C@_0P@MMF@toggle?5gravity?$AA@ 4007f588     ui_controls2.obj
 0002:0000259c       ??_C@_08BCED@?$CLbutton3?$AA@ 4007f59c     ui_controls2.obj
 0002:000025a8       ??_C@_0M@HLKG@next?5weapon?$AA@ 4007f5a8     ui_controls2.obj
 0002:000025b8       ??_C@_08FDMA@weapnext?$AA@ 4007f5b8     ui_controls2.obj
 0002:000025c4       ??_C@_0M@MGJJ@prev?5weapon?$AA@ 4007f5c4     ui_controls2.obj
 0002:000025d4       ??_C@_08KKEF@weapprev?$AA@ 4007f5d4     ui_controls2.obj
 0002:000025e0       ??_C@_06HFHN@attack?$AA@   4007f5e0     ui_controls2.obj
 0002:000025e8       ??_C@_07KANK@?$CLattack?$AA@ 4007f5e8     ui_controls2.obj
 0002:000025f4       ??_C@_03MPI@BFG?$AA@       4007f5f4     ui_controls2.obj
 0002:000025f8       ??_C@_08JEPH@weapon?59?$AA@ 4007f5f8     ui_controls2.obj
 0002:00002604       ??_C@_0L@FGOO@plasma?5gun?$AA@ 4007f604     ui_controls2.obj
 0002:00002614       ??_C@_08DOGA@weapon?58?$AA@ 4007f614     ui_controls2.obj
 0002:00002620       ??_C@_07BLEE@railgun?$AA@  4007f620     ui_controls2.obj
 0002:0000262c       ??_C@_08DPDN@weapon?57?$AA@ 4007f62c     ui_controls2.obj
 0002:00002638       ??_C@_09JGLK@lightning?$AA@ 4007f638     ui_controls2.obj
 0002:00002644       ??_C@_08JFKK@weapon?56?$AA@ 4007f644     ui_controls2.obj
 0002:00002650       ??_C@_0BA@MEBF@rocket?5launcher?$AA@ 4007f650     ui_controls2.obj
 0002:00002664       ??_C@_08GKBD@weapon?55?$AA@ 4007f664     ui_controls2.obj
 0002:00002670       ??_C@_0BB@JJNA@grenade?5launcher?$AA@ 4007f670     ui_controls2.obj
 0002:00002684       ??_C@_08MAIE@weapon?54?$AA@ 4007f684     ui_controls2.obj
 0002:00002690       ??_C@_07LCBO@shotgun?$AA@  4007f690     ui_controls2.obj
 0002:0000269c       ??_C@_08JFGB@weapon?53?$AA@ 4007f69c     ui_controls2.obj
 0002:000026a8       ??_C@_0L@BAOB@machinegun?$AA@ 4007f6a8     ui_controls2.obj
 0002:000026b8       ??_C@_08DPPG@weapon?52?$AA@ 4007f6b8     ui_controls2.obj
 0002:000026c4       ??_C@_08MABG@gauntlet?$AA@ 4007f6c4     ui_controls2.obj
 0002:000026d0       ??_C@_08MAEP@weapon?51?$AA@ 4007f6d0     ui_controls2.obj
 0002:000026dc       ??_C@_09OLBM@zoom?5view?$AA@ 4007f6dc     ui_controls2.obj
 0002:000026e8       ??_C@_05MPDD@?$CLzoom?$AA@ 4007f6e8     ui_controls2.obj
 0002:000026f0       ??_C@_0M@JODN@center?5view?$AA@ 4007f6f0     ui_controls2.obj
 0002:00002700       ??_C@_0L@EKJH@centerview?$AA@ 4007f700     ui_controls2.obj
 0002:00002710       ??_C@_0L@NGD@mouse?5look?$AA@ 4007f710     ui_controls2.obj
 0002:00002720       ??_C@_06NEOC@?$CLmlook?$AA@ 4007f720     ui_controls2.obj
 0002:00002728       ??_C@_09NMLP@look?5down?$AA@ 4007f728     ui_controls2.obj
 0002:00002734       ??_C@_09GHKO@?$CLlookdown?$AA@ 4007f734     ui_controls2.obj
 0002:00002740       ??_C@_07LCBP@look?5up?$AA@ 4007f740     ui_controls2.obj
 0002:0000274c       ??_C@_07BGBD@?$CLlookup?$AA@ 4007f74c     ui_controls2.obj
 0002:00002758       ??_C@_0BA@LAJC@sidestep?5?1?5turn?$AA@ 4007f758     ui_controls2.obj
 0002:0000276c       ??_C@_07OJLO@?$CLstrafe?$AA@ 4007f76c     ui_controls2.obj
 0002:00002778       ??_C@_0L@EKIM@turn?5right?$AA@ 4007f778     ui_controls2.obj
 0002:00002788       ??_C@_06FOLA@?$CLright?$AA@ 4007f788     ui_controls2.obj
 0002:00002790       ??_C@_09LJEF@turn?5left?$AA@ 4007f790     ui_controls2.obj
 0002:0000279c       ??_C@_05IFMH@?$CLleft?$AA@ 4007f79c     ui_controls2.obj
 0002:000027a4       ??_C@_0O@DMKO@down?5?1?5crouch?$AA@ 4007f7a4     ui_controls2.obj
 0002:000027b4       ??_C@_09IMNG@?$CLmovedown?$AA@ 4007f7b4     ui_controls2.obj
 0002:000027c0       ??_C@_09CFFI@up?5?1?5jump?$AA@ 4007f7c0     ui_controls2.obj
 0002:000027cc       ??_C@_07KFJC@?$CLmoveup?$AA@ 4007f7cc     ui_controls2.obj
 0002:000027d8       ??_C@_0L@CHCB@step?5right?$AA@ 4007f7d8     ui_controls2.obj
 0002:000027e8       ??_C@_0L@DMHD@?$CLmoveright?$AA@ 4007f7e8     ui_controls2.obj
 0002:000027f8       ??_C@_09BEOC@step?5left?$AA@ 4007f7f8     ui_controls2.obj
 0002:00002804       ??_C@_09EGDL@?$CLmoveleft?$AA@ 4007f804     ui_controls2.obj
 0002:00002810       ??_C@_09HMID@backpedal?$AA@ 4007f810     ui_controls2.obj
 0002:0000281c       ??_C@_05NMMM@?$CLback?$AA@ 4007f81c     ui_controls2.obj
 0002:00002824       ??_C@_0N@CEKH@walk?5forward?$AA@ 4007f824     ui_controls2.obj
 0002:00002834       ??_C@_08HLLP@?$CLforward?$AA@ 4007f834     ui_controls2.obj
 0002:00002840       ??_C@_0L@PBJ@run?5?1?5walk?$AA@ 4007f840     ui_controls2.obj
 0002:00002850       ??_C@_06FAHP@?$CLspeed?$AA@ 4007f850     ui_controls2.obj
 0002:00002858       ??_C@_08NNFL@use?5item?$AA@ 4007f858     ui_controls2.obj
 0002:00002864       ??_C@_08LINE@?$CLbutton2?$AA@ 4007f864     ui_controls2.obj
 0002:00002870       ??_C@_0M@BIEI@show?5scores?$AA@ 4007f870     ui_controls2.obj
 0002:00002880       ??_C@_07POBG@?$CLscores?$AA@ 4007f880     ui_controls2.obj
 0002:0000288c       ??_C@_0M@PPMI@mouse?5speed?$AA@ 4007f88c     ui_controls2.obj
 0002:0000289c       ??_C@_0BD@LMEH@autoswitch?5weapons?$AA@ 4007f89c     ui_controls2.obj
 0002:000028b4       ??_C@_0L@NGMM@always?5run?$AA@ 4007f8b4     ui_controls2.obj
 0002:000028c4       ??_C@_0N@CKFN@smooth?5mouse?$AA@ 4007f8c4     ui_controls2.obj
 0002:000028d4       ??_C@_0N@HDIH@invert?5mouse?$AA@ 4007f8d4     ui_controls2.obj
 0002:000028e4       ??_C@_04CIIM@MISC?$AA@     4007f8e4     ui_controls2.obj
 0002:000028ec       ??_C@_05OGEN@SHOOT?$AA@    4007f8ec     ui_controls2.obj
 0002:000028f4       ??_C@_04HHIJ@MOVE?$AA@     4007f8f4     ui_controls2.obj
 0002:000028fc       ??_C@_04DAEG@LOOK?$AA@     4007f8fc     ui_controls2.obj
 0002:00002904       ??_C@_08KOIL@CONTROLS?$AA@ 4007f904     ui_controls2.obj
 0002:00002910       ??_C@_0BJ@PGJ@Press?5BACKSPACE?5to?5clear?$AA@ 4007f910     ui_controls2.obj
 0002:00002930       ??_C@_0BP@EFJL@Press?5ENTER?5or?5CLICK?5to?5change?$AA@ 4007f930     ui_controls2.obj
 0002:00002958       ??_C@_0CJ@OINL@Waiting?5for?5new?5key?5?4?4?4?5ESCAPE?5t@ 4007f958     ui_controls2.obj
 0002:0000298c       ??_C@_04CJAC@?5or?5?$AA@   4007f98c     ui_controls2.obj
 0002:00002994       ??_C@_03NMFM@?$DP?$DP?$DP?$AA@ 4007f994     ui_controls2.obj
 0002:00002998       ??_C@_0CC@FJCH@Use?5Arrow?5Keys?5or?5CLICK?5to?5chang@ 4007f998     ui_controls2.obj
 0002:000029c0       ??_C@_05LHJL@model?$AA@    4007f9c0     ui_controls2.obj
 0002:000029c8       __real@4@4005b400000000000000 4007f9c8     ui_controls2.obj
 0002:000029cc       ??_C@_0M@GOEP@in_restart?6?$AA@ 4007f9cc     ui_controls2.obj
 0002:000029dc       ??_C@_0BB@DAGC@SET?5TO?5DEFAULTS?$DP?$AA@ 4007f9dc     ui_controls2.obj
 0002:000029f0       ??_C@_0CC@GODH@controls?5to?5their?5default?5values@ 4007f9f0     ui_controls2.obj
 0002:00002a18       ??_C@_0BN@JDAE@WARNING?3?5This?5will?5reset?5all?$AA@ 4007fa18     ui_controls2.obj
 0002:00002a3c       ??_C@_0P@HGKI@By?5ID?5Software?$AA@ 4007fa3c     ui_credits.obj
 0002:00002a50       ??_C@_0BE@HIKD@And?5Quake?5III?5Arena?$AA@ 4007fa50     ui_credits.obj
 0002:00002a68       ??_C@_0BC@DGLD@By?5Johnny?5Goodnow?$AA@ 4007fa68     ui_credits.obj
 0002:00002a80       ??_C@_0BF@LCML@Based?5on?5EscherQuake?$AA@ 4007fa80     ui_credits.obj
 0002:00002a9c       ??_C@_0BG@KHKK@With?5help?5from?5Rev?4?5O?$AA@ 4007fa9c     ui_credits.obj
 0002:00002ab8       ??_C@_0M@GBLK@Jacob?5Adams?$AA@ 4007fab8     ui_credits.obj
 0002:00002ac8       __real@8@4003e60a3d70a3d70000 4007fac8     ui_credits.obj
 0002:00002ad4       ??_C@_0BL@HHL@SpaceQuake?5was?5created?5by?3?$AA@ 4007fad4     ui_credits.obj
 0002:00002af4       ??_C@_0BL@PPGH@menu?1art?1arrows_horz_right?$AA@ 4007faf4     ui_demo2.obj
 0002:00002b14       ??_C@_0BK@FCMC@menu?1art?1arrows_horz_left?$AA@ 4007fb14     ui_demo2.obj
 0002:00002b34       ??_C@_0BH@CJGF@menu?1art?1arrows_horz_0?$AA@ 4007fb34     ui_demo2.obj
 0002:00002b50       ??_C@_0BA@NIBP@menu?1art?1play_1?$AA@ 4007fb50     ui_demo2.obj
 0002:00002b64       ??_C@_0BA@HCII@menu?1art?1play_0?$AA@ 4007fb64     ui_demo2.obj
 0002:00002b78       ??_C@_04FCJB@?4dm3?$AA@    4007fb78     ui_demo2.obj
 0002:00002b80       ??_C@_0BA@NOKN@No?5Demos?5Found?4?$AA@ 4007fb80     ui_demo2.obj
 0002:00002b94       ??_C@_05IECP@demos?$AA@    4007fb94     ui_demo2.obj
 0002:00002b9c       ??_C@_05KHBM@dm_?$CFd?$AA@ 4007fb9c     ui_demo2.obj
 0002:00002ba4       ??_C@_08OEPO@protocol?$AA@ 4007fba4     ui_demo2.obj
 0002:00002bb0       ??_C@_05OPKA@DEMOS?$AA@    4007fbb0     ui_demo2.obj
 0002:00002bb8       ??_C@_08MODM@demo?5?$CFs?6?$AA@ 4007fbb8     ui_demo2.obj
 0002:00002bc4       ??_C@_0M@FLKF@cg_viewsize?$AA@ 4007fbc4     ui_display.obj
 0002:00002bd4       __real@4@4002a000000000000000 4007fbd4     ui_display.obj
 0002:00002bd8       ??_C@_07JEME@r_gamma?$AA@  4007fbd8     ui_display.obj
 0002:00002be4       ??_C@_0N@BDEN@Screen?5Size?3?$AA@ 4007fbe4     ui_display.obj
 0002:00002bf4       ??_C@_0M@PFIM@Brightness?3?$AA@ 4007fbf4     ui_display.obj
 0002:00002c04       ??_C@_07KFPJ@NETWORK?$AA@  4007fc04     ui_display.obj
 0002:00002c10       ??_C@_05LGNL@SOUND?$AA@    4007fc10     ui_display.obj
 0002:00002c18       ??_C@_07LGIJ@DISPLAY?$AA@  4007fc18     ui_display.obj
 0002:00002c24       ??_C@_08EPJC@GRAPHICS?$AA@ 4007fc24     ui_display.obj
 0002:00002c30       ??_C@_0N@HFHE@SYSTEM?5SETUP?$AA@ 4007fc30     ui_display.obj
 0002:00002c40       ??_C@_05JKL@?2num?2?$AA@   4007fc40     ui_gameinfo.obj
 0002:00002c48       ??_C@_06CENM@?$DMNULL?$DO?$AA@ 4007fc48     ui_gameinfo.obj
 0002:00002c50       ??_C@_01KCD@?$HN?$AA@      4007fc50     ui_gameinfo.obj
 0002:00002c54       ??_C@_0BN@HAGP@Unexpected?5end?5of?5info?5file?6?$AA@ 4007fc54     ui_gameinfo.obj
 0002:00002c78       ??_C@_0BE@NIAP@Max?5infos?5exceeded?6?$AA@ 4007fc78     ui_gameinfo.obj
 0002:00002c90       ??_C@_0BI@FBJM@Missing?5?$HL?5in?5info?5file?6?$AA@ 4007fc90     ui_gameinfo.obj
 0002:00002cac       ??_C@_01PFFB@?$HL?$AA@     4007fcac     ui_gameinfo.obj
 0002:00002cb0       ??_C@_03EBLA@num?$AA@      4007fcb0     ui_gameinfo.obj
 0002:00002cb4       ??_C@_0BM@KHCF@?$FO1Invalid?5arena?5number?3?5?$CFi?6?$AA@ 4007fcb4     ui_gameinfo.obj
 0002:00002cd8       ??_C@_03HKIL@map?$AA@      4007fcd8     ui_gameinfo.obj
 0002:00002cdc       ??_C@_07LCAN@special?$AA@  4007fcdc     ui_gameinfo.obj
 0002:00002ce8       ??_C@_0BK@DPGC@?$FO1Invalid?5bot?5number?3?5?$CFi?6?$AA@ 4007fce8     ui_gameinfo.obj
 0002:00002d08       ??_C@_03IPMN@l?$CFi?$AA@   4007fd08     ui_gameinfo.obj
 0002:00002d0c       ??_C@_0N@NKPB@g_spScores?$CFi?$AA@ 4007fd0c     ui_gameinfo.obj
 0002:00002d1c       ??_C@_02JAFN@?$CFi?$AA@    4007fd1c     ui_gameinfo.obj
 0002:00002d20       ??_C@_03FDE@a?$CFi?$AA@    4007fd20     ui_gameinfo.obj
 0002:00002d24       ??_C@_0L@JCO@g_spAwards?$AA@ 4007fd24     ui_gameinfo.obj
 0002:00002d34       ??_C@_0CD@HEIC@?$FO1Bad?5award?5?$CFi?5in?5UI_LogAwardDat@ 4007fd34     ui_gameinfo.obj
 0002:00002d60       ??_C@_05OHAA@final?$AA@    4007fd60     ui_gameinfo.obj
 0002:00002d68       ??_C@_08JLCL@training?$AA@ 4007fd68     ui_gameinfo.obj
 0002:00002d74       ??_C@_06OAMG@tier?$CFi?$AA@ 4007fd74     ui_gameinfo.obj
 0002:00002d7c       ??_C@_0L@NJFG@g_spVideos?$AA@ 4007fd7c     ui_gameinfo.obj
 0002:00002d8c       ??_C@_0M@FHEC@g_spScores5?$AA@ 4007fd8c     ui_gameinfo.obj
 0002:00002d9c       ??_C@_0M@PNNF@g_spScores4?$AA@ 4007fd9c     ui_gameinfo.obj
 0002:00002dac       ??_C@_0M@KIDA@g_spScores3?$AA@ 4007fdac     ui_gameinfo.obj
 0002:00002dbc       ??_C@_0M@CKH@g_spScores2?$AA@ 4007fdbc     ui_gameinfo.obj
 0002:00002dcc       ??_C@_0M@PNBO@g_spScores1?$AA@ 4007fdcc     ui_gameinfo.obj
 0002:00002ddc       ??_C@_0CG@NHPN@All?5levels?5unlocked?5at?5skill?5lev@ 4007fddc     ui_gameinfo.obj
 0002:00002e0c       ??_C@_0BM@CHON@All?5levels?5unlocked?5at?5100?6?$AA@ 4007fe0c     ui_gameinfo.obj
 0002:00002e30       ??_C@_03HFMC@100?$AA@      4007fe30     ui_gameinfo.obj
 0002:00002e34       ??_C@_0M@BODG@fs_restrict?$AA@ 4007fe34     ui_gameinfo.obj
 0002:00002e44       ??_C@_0DB@HFAI@?$CFi?5arenas?5ignored?5to?5make?5count?5@ 4007fe44     ui_gameinfo.obj
 0002:00002e80       ??_C@_06IBFJ@single?$AA@   4007fe80     ui_gameinfo.obj
 0002:00002e88       ??_C@_04PIKN@type?$AA@     4007fe88     ui_gameinfo.obj
 0002:00002e90       ??_C@_0DJ@JCGB@?$FO3WARNING?3?5not?5anough?5memory?5in?5@ 4007fe90     ui_gameinfo.obj
 0002:00002ed4       ??_C@_0BC@LFAD@?$CFi?5arenas?5parsed?6?$AA@ 4007fed4     ui_gameinfo.obj
 0002:00002eec       ??_C@_08CJIE@scripts?1?$AA@ 4007feec     ui_gameinfo.obj
 0002:00002ef8       ??_C@_07DJDJ@scripts?$AA@  4007fef8     ui_gameinfo.obj
 0002:00002f04       ??_C@_06BFIE@?4arena?$AA@  4007ff04     ui_gameinfo.obj
 0002:00002f0c       ??_C@_0BD@HCGB@scripts?1arenas?4txt?$AA@ 4007ff0c     ui_gameinfo.obj
 0002:00002f24       ??_C@_0N@DNGO@g_arenasFile?$AA@ 4007ff24     ui_gameinfo.obj
 0002:00002f34       ??_C@_0CO@CPGF@?$FO1file?5too?5large?3?5?$CFs?5is?5?$CFi?0?5max?5@ 4007ff34     ui_gameinfo.obj
 0002:00002f6c       ??_C@_0BG@FOLB@?$FO1file?5not?5found?3?5?$CFs?6?$AA@ 4007ff6c     ui_gameinfo.obj
 0002:00002f88       ??_C@_0BA@PAJG@?$CFi?5bots?5parsed?6?$AA@ 4007ff88     ui_gameinfo.obj
 0002:00002f9c       ??_C@_04GDJG@?4bot?$AA@    4007ff9c     ui_gameinfo.obj
 0002:00002fa4       ??_C@_0BB@CNHD@scripts?1bots?4txt?$AA@ 4007ffa4     ui_gameinfo.obj
 0002:00002fb8       ??_C@_0L@MOAL@g_botsFile?$AA@ 4007ffb8     ui_gameinfo.obj
 0002:00002fc8       ??_C@_0DH@DFKI@?$FO3WARNING?3?5not?5anough?5memory?5in?5@ 4007ffc8     ui_gameinfo.obj
 0002:0000300c       ??_C@_0L@KPEM@EXIT?5GAME?$DP?$AA@ 4008000c     ui_ingame.obj
 0002:0000301c       ??_C@_0P@HGJE@RESTART?5ARENA?$DP?$AA@ 4008001c     ui_ingame.obj
 0002:00003030       ??_C@_0P@IGLO@map_restart?50?6?$AA@ 40080030     ui_ingame.obj
 0002:00003044       ??_C@_09IBFH@EXIT?5GAME?$AA@ 40080044     ui_ingame.obj
 0002:00003050       ??_C@_0M@OLGB@LEAVE?5ARENA?$AA@ 40080050     ui_ingame.obj
 0002:00003060       ??_C@_0M@OKDL@RESUME?5GAME?$AA@ 40080060     ui_ingame.obj
 0002:00003070       ??_C@_0O@FJED@RESTART?5ARENA?$AA@ 40080070     ui_ingame.obj
 0002:00003080       ??_C@_0M@IINF@SERVER?5INFO?$AA@ 40080080     ui_ingame.obj
 0002:00003090       ??_C@_05GDNH@SETUP?$AA@    40080090     ui_ingame.obj
 0002:00003098       ??_C@_01PEAM@t?$AA@        40080098     ui_ingame.obj
 0002:0000309c       ??_C@_0M@GHIA@TEAM?5ORDERS?$AA@ 4008009c     ui_ingame.obj
 0002:000030ac       ??_C@_0M@LPEM@REMOVE?5BOTS?$AA@ 400800ac     ui_ingame.obj
 0002:000030bc       __real@4@40008000000000000000 400800bc     ui_ingame.obj
 0002:000030c0       ??_C@_0L@MALI@bot_enable?$AA@ 400800c0     ui_ingame.obj
 0002:000030d0       ??_C@_0L@HNAD@sv_running?$AA@ 400800d0     ui_ingame.obj
 0002:000030e0       ??_C@_05ODIL@START?$AA@    400800e0     ui_ingame.obj
 0002:000030e8       ??_C@_08HEJP@server16?$AA@ 400800e8     ui_main.obj
 0002:000030f4       ??_C@_08ILCG@server15?$AA@ 400800f4     ui_main.obj
 0002:00003100       ??_C@_08CBLB@server14?$AA@ 40080100     ui_main.obj
 0002:0000310c       ??_C@_08HEFE@server13?$AA@ 4008010c     ui_main.obj
 0002:00003118       ??_C@_08NOMD@server12?$AA@ 40080118     ui_main.obj
 0002:00003124       ??_C@_08CBHK@server11?$AA@ 40080124     ui_main.obj
 0002:00003130       ??_C@_08ILON@server10?$AA@ 40080130     ui_main.obj
 0002:0000313c       ??_C@_07CJHJ@server9?$AA@  4008013c     ui_main.obj
 0002:00003148       ??_C@_07IDOO@server8?$AA@  40080148     ui_main.obj
 0002:00003154       ??_C@_07ICLD@server7?$AA@  40080154     ui_main.obj
 0002:00003160       ??_C@_07CICE@server6?$AA@  40080160     ui_main.obj
 0002:0000316c       ??_C@_07NHJN@server5?$AA@  4008016c     ui_main.obj
 0002:00003178       ??_C@_07HNAK@server4?$AA@  40080178     ui_main.obj
 0002:00003184       ??_C@_07CIOP@server3?$AA@  40080184     ui_main.obj
 0002:00003190       ??_C@_07ICHI@server2?$AA@  40080190     ui_main.obj
 0002:0000319c       ??_C@_07HNMB@server1?$AA@  4008019c     ui_main.obj
 0002:000031a8       ??_C@_08PKCG@cg_marks?$AA@ 400801a8     ui_main.obj
 0002:000031b4       ??_C@_0BG@JAIH@cg_drawCrosshairNames?$AA@ 400801b4     ui_main.obj
 0002:000031d0       ??_C@_0BB@BIJH@cg_drawCrosshair?$AA@ 400801d0     ui_main.obj
 0002:000031e4       ??_C@_04IIFP@2500?$AA@     400801e4     ui_main.obj
 0002:000031ec       ??_C@_0N@OGMG@cg_brassTime?$AA@ 400801ec     ui_main.obj
 0002:000031fc       ??_C@_0BE@KEME@ui_browserShowEmpty?$AA@ 400801fc     ui_main.obj
 0002:00003214       ??_C@_0BD@BNEL@ui_browserShowFull?$AA@ 40080214     ui_main.obj
 0002:0000322c       ??_C@_01FBMM@4?$AA@        4008022c     ui_main.obj
 0002:00003230       ??_C@_0BC@GCMK@ui_browserSortKey?$AA@ 40080230     ui_main.obj
 0002:00003248       ??_C@_0BD@DAGN@ui_browserGameType?$AA@ 40080248     ui_main.obj
 0002:00003260       ??_C@_0BB@DABH@ui_browserMaster?$AA@ 40080260     ui_main.obj
 0002:00003274       ??_C@_0P@NMKH@ui_spSelection?$AA@ 40080274     ui_main.obj
 0002:00003288       ??_C@_01KOLO@2?$AA@        40080288     ui_main.obj
 0002:0000328c       ??_C@_0BA@JAAL@ui_ctf_friendly?$AA@ 4008028c     ui_main.obj
 0002:000032a0       ??_C@_02HPJE@30?$AA@       400802a0     ui_main.obj
 0002:000032a4       ??_C@_0BB@LBEJ@ui_ctf_timelimit?$AA@ 400802a4     ui_main.obj
 0002:000032b8       ??_C@_01KPCI@8?$AA@        400802b8     ui_main.obj
 0002:000032bc       ??_C@_0BE@OMKO@ui_ctf_capturelimit?$AA@ 400802bc     ui_main.obj
 0002:000032d4       ??_C@_0BB@KGEM@ui_team_friendly?$AA@ 400802d4     ui_main.obj
 0002:000032e8       ??_C@_0BC@FPHP@ui_team_timelimit?$AA@ 400802e8     ui_main.obj
 0002:00003300       ??_C@_0BC@BDI@ui_team_fraglimit?$AA@ 40080300     ui_main.obj
 0002:00003318       ??_C@_02FCAK@15?$AA@       40080318     ui_main.obj
 0002:0000331c       ??_C@_0BF@PJDA@ui_tourney_timelimit?$AA@ 4008031c     ui_main.obj
 0002:00003338       ??_C@_0BF@KHHH@ui_tourney_fraglimit?$AA@ 40080338     ui_main.obj
 0002:00003354       ??_C@_0BB@DFEB@ui_ffa_timelimit?$AA@ 40080354     ui_main.obj
 0002:00003368       ??_C@_02GJDO@20?$AA@       40080368     ui_main.obj
 0002:0000336c       ??_C@_0BB@GLAG@ui_ffa_fraglimit?$AA@ 4008036c     ui_main.obj
 0002:00003380       ??_C@_0N@CLPL@vid_restart?$DL?$AA@ 40080380     ui_menu.obj
 0002:00003390       ??_C@_07CCMH@fs_game?$AA@  40080390     ui_menu.obj
 0002:0000339c       ??_C@_0M@KMFB@missionpack?$AA@ 4008039c     ui_menu.obj
 0002:000033ac       ??_C@_0CF@OBIH@models?1mapobjects?1banner?1banner5@ 400803ac     ui_menu.obj
 0002:000033d8       ??_C@_0BB@CNGM@com_errorMessage?$AA@ 400803d8     ui_menu.obj
 0002:000033ec       ??_C@_08CCKC@?9?9EXIT?9?9?$AA@ 400803ec     ui_menu.obj
 0002:000033f8       ??_C@_06EGNA@?9MODS?9?$AA@ 400803f8     ui_menu.obj
 0002:00003400       ??_C@_06DHPA@?9TEAM?9?$AA@ 40080400     ui_menu.obj
 0002:00003408       ??_C@_06OCEB@MOVIES?$AA@   40080408     ui_menu.obj
 0002:00003410       ??_C@_06DFIF@?9DEMOS?$AA@  40080410     ui_menu.obj
 0002:00003418       ??_C@_06EJPA@SETUP?9?$AA@  40080418     ui_menu.obj
 0002:00003420       ??_C@_06NPFJ@?9MULTI?$AA@  40080420     ui_menu.obj
 0002:00003428       ??_C@_06FONC@SINGLE?$AA@   40080428     ui_menu.obj
 0002:00003430       ??_C@_0O@NBEJ@sv_killserver?$AA@ 40080430     ui_menu.obj
 0002:00003440       ??_C@_0EF@OMIP@Quake?5III?5Arena?$CIc?$CJ?51999?92000?0?5Id@ 40080440     ui_menu.obj
 0002:00003494       ??_C@_0CJ@FDGG@DEMO?5?5?5?5?5?5FOR?5MATURE?5AUDIENCES?5?5@ 40080494     ui_menu.obj
 0002:000034c8       __real@8@4001a000000000000000 400804c8     ui_menu.obj
 0002:000034d4       __real@4@400b9c40000000000000 400804d4     ui_menu.obj
 0002:000034d8       __real@8@40039d80000000000000 400804d8     ui_menu.obj
 0002:000034e4       __real@4@4004f000000000000000 400804e4     ui_menu.obj
 0002:000034e8       ??_C@_08DILD@$modlist?$AA@ 400804e8     ui_menu.obj
 0002:000034f4       ??_C@_0BM@MJON@drawLen?5?$DO?$DN?5MAX_STRING_CHARS?$AA@ 400804f4     ui_mfield.obj
 0002:00003518       ??_C@_0BA@DCGA@menu?1art?1load_1?$AA@ 40080518     ui_mods.obj
 0002:0000352c       ??_C@_0BA@JIPH@menu?1art?1load_0?$AA@ 4008052c     ui_mods.obj
 0002:00003540       ??_C@_04GGHH@MODS?$AA@     40080540     ui_mods.obj
 0002:00003548       ??_C@_0BA@GCHD@?$CFi?5mods?5parsed?6?$AA@ 40080548     ui_mods.obj
 0002:0000355c       ??_C@_0BA@HHEF@Quake?5III?5Arena?$AA@ 4008055c     ui_mods.obj
 0002:00003570       ??_C@_0P@LMLK@LAN?1Cable?1xDSL?$AA@ 40080570     ui_network.obj
 0002:00003584       ??_C@_04PHLJ@ISDN?$AA@     40080584     ui_network.obj
 0002:0000358c       ??_C@_03LPDG@56K?$AA@      4008058c     ui_network.obj
 0002:00003590       ??_C@_05IONH@33?46K?$AA@   40080590     ui_network.obj
 0002:00003598       ??_C@_08CAEO@?$DM?$DN?528?48K?$AA@ 40080598     ui_network.obj
 0002:000035a4       ??_C@_04MMDE@rate?$AA@     400805a4     ui_network.obj
 0002:000035ac       ??_C@_0L@GANE@Data?5Rate?3?$AA@ 400805ac     ui_network.obj
 0002:000035bc       ??_C@_0BF@NKCH@menu?1art?1gs_arrows_r?$AA@ 400805bc     ui_playermodel.obj
 0002:000035d8       ??_C@_0BF@NIJN@menu?1art?1gs_arrows_l?$AA@ 400805d8     ui_playermodel.obj
 0002:000035f4       ??_C@_0BF@CKMJ@menu?1art?1gs_arrows_0?$AA@ 400805f4     ui_playermodel.obj
 0002:00003610       ??_C@_0BN@MJI@menu?1art?1player_models_ports?$AA@ 40080610     ui_playermodel.obj
 0002:00003634       ??_C@_0BC@CLFO@menu?1art?1frame1_l?$AA@ 40080634     ui_playermodel.obj
 0002:0000364c       ??_C@_0BM@HCJP@menu?1art?1opponents_selected?$AA@ 4008064c     ui_playermodel.obj
 0002:00003670       ??_C@_0BK@PP@menu?1art?1opponents_select?$AA@ 40080670     ui_playermodel.obj
 0002:00003690       ??_C@_0CC@EMMI@sound?1player?1announce?1?$CFs_wins?4wa@ 40080690     ui_playermodel.obj
 0002:000036b8       ??_C@_0BF@FNPL@models?1players?1?$CFs?1?$CFs?$AA@ 400806b8     ui_playermodel.obj
 0002:000036d4       ??_C@_05GENK@icon_?$AA@    400806d4     ui_playermodel.obj
 0002:000036dc       ??_C@_0BC@JCPL@models?1players?1?$CFs?$AA@ 400806dc     ui_playermodel.obj
 0002:000036f4       ??_C@_03ONFK@tga?$AA@      400806f4     ui_playermodel.obj
 0002:000036f8       ??_C@_02OOND@?4?4?$AA@     400806f8     ui_playermodel.obj
 0002:000036fc       ??_C@_01PJCK@?4?$AA@       400806fc     ui_playermodel.obj
 0002:00003700       ??_C@_0P@MHP@models?1players?$AA@ 40080700     ui_playermodel.obj
 0002:00003714       ??_C@_0BA@PPKI@com_buildscript?$AA@ 40080714     ui_playermodel.obj
 0002:00003728       ??_C@_0N@PKFC@PLAYER?5MODEL?$AA@ 40080728     ui_playermodel.obj
 0002:00003738       ??_C@_0P@KCPO@team_headmodel?$AA@ 40080738     ui_playermodel.obj
 0002:0000374c       ??_C@_0L@MKIK@team_model?$AA@ 4008074c     ui_playermodel.obj
 0002:0000375c       ??_C@_09MLPD@headmodel?$AA@ 4008075c     ui_playermodel.obj
 0002:00003768       ??_C@_0BA@KNLB@models?1players?1?$AA@ 40080768     ui_playermodel.obj
 0002:0000377c       ??_C@_0L@IIHB@LOW?5MEMORY?$AA@ 4008077c     ui_playermodel.obj
 0002:0000378c       __real@4@4008fa00000000000000 4008078c     ui_players.obj
 0002:00003790       __real@4@3ffee666660000000000 40080790     ui_players.obj
 0002:00003794       __real@4@4005c800000000000000 40080794     ui_players.obj
 0002:00003798       ??_C@_0BB@GJFJ@sprites?1balloon3?$AA@ 40080798     ui_players.obj
 0002:000037ac       ??_C@_09ONMF@tag_flash?$AA@ 400807ac     ui_players.obj
 0002:000037b8       ??_C@_0L@BGKG@tag_barrel?$AA@ 400807b8     ui_players.obj
 0002:000037c8       ??_C@_0L@FMME@tag_weapon?$AA@ 400807c8     ui_players.obj
 0002:000037d8       ??_C@_08JGJE@tag_head?$AA@ 400807d8     ui_players.obj
 0002:000037e4       ??_C@_09ECJI@tag_torso?$AA@ 400807e4     ui_players.obj
 0002:000037f0       __real@8@bffe8000000000000000 400807f0     ui_players.obj
 0002:000037fc       __real@4@4005e52ee00000000000 400807fc     ui_players.obj
 0002:00003800       __real@4@4008a000000000000000 40080800     ui_players.obj
 0002:00003804       ??_C@_0L@LKFC@_flash?4md3?$AA@ 40080804     ui_players.obj
 0002:00003814       ??_C@_0M@LLAK@_barrel?4md3?$AA@ 40080814     ui_players.obj
 0002:00003828       __real@8@4004e000000000000000 40080828     ui_players.obj
 0002:00003834       ??_C@_0BJ@MCPI@Bad?5animation?5number?3?5?$CFi?$AA@ 40080834     ui_players.obj
 0002:00003858       __real@8@3ffec000000000000000 40080858     ui_players.obj
 0002:00003864       __real@4@c007b400000000000000 40080864     ui_players.obj
 0002:00003868       __real@8@3ffd8000000000000000 40080868     ui_players.obj
 0002:00003874       __real@4@c004b400000000000000 40080874     ui_players.obj
 0002:00003878       __real@4@c003b000000000000000 40080878     ui_players.obj
 0002:0000387c       __real@4@4004b400000000000000 4008087c     ui_players.obj
 0002:00003880       __real@4@4003b000000000000000 40080880     ui_players.obj
 0002:00003888       __real@8@3ff8a3d70a3d70a3d800 40080888     ui_players.obj
 0002:00003894       __real@4@4004c000000000000000 40080894     ui_players.obj
 0002:00003898       ??_C@_0CC@OHOC@Failed?5to?5load?5animation?5file?5?$CFs@ 40080898     ui_players.obj
 0002:000038c0       ??_C@_0CA@ELJL@models?1players?1?$CFs?1animation?4cfg?$AA@ 400808c0     ui_players.obj
 0002:000038e8       ??_C@_0CD@LDNL@Failed?5to?5load?5skin?5file?3?5?$CFs?5?3?5?$CF@ 400808e8     ui_players.obj
 0002:00003914       ??_C@_0BL@MPJF@models?1players?1?$CFs?1head?4md3?$AA@ 40080914     ui_players.obj
 0002:00003934       ??_C@_0BM@CCGI@models?1players?1?$CFs?1upper?4md3?$AA@ 40080934     ui_players.obj
 0002:00003958       ??_C@_0BO@ELEH@Failed?5to?5load?5model?5file?5?$CFs?6?$AA@ 40080958     ui_players.obj
 0002:0000397c       ??_C@_0BM@CEFP@models?1players?1?$CFs?1lower?4md3?$AA@ 4008097c     ui_players.obj
 0002:000039a0       ??_C@_07FMEP@default?$AA@  400809a0     ui_players.obj
 0002:000039ac       ??_C@_0BP@GEHB@models?1players?1?$CFs?1head_?$CFs?4skin?$AA@ 400809ac     ui_players.obj
 0002:000039d4       ??_C@_0CA@LBBA@models?1players?1?$CFs?1upper_?$CFs?4skin?$AA@ 400809d4     ui_players.obj
 0002:000039fc       ??_C@_0CA@FIAK@models?1players?1?$CFs?1lower_?$CFs?4skin?$AA@ 400809fc     ui_players.obj
 0002:00003a24       ??_C@_0CB@GMGP@Error?5parsing?5animation?5file?3?5?$CFs@ 40080a24     ui_players.obj
 0002:00003a4c       ??_C@_0BK@LJDE@unknown?5token?5?8?$CFs?8?5is?5?$CFs?6?$AA@ 40080a4c     ui_players.obj
 0002:00003a6c       ??_C@_03CJDB@sex?$AA@      40080a6c     ui_players.obj
 0002:00003a70       ??_C@_0L@EPMP@headoffset?$AA@ 40080a70     ui_players.obj
 0002:00003a80       ??_C@_09EDIM@footsteps?$AA@ 40080a80     ui_players.obj
 0002:00003a8c       ??_C@_0BC@GFDL@File?5?$CFs?5too?5long?6?$AA@ 40080a8c     ui_players.obj
 0002:00003aa4       ??_C@_01PLFL@5?$AA@        40080aa4     ui_playersettings.obj
 0002:00003aa8       ??_C@_02FCMB@10?$AA@       40080aa8     ui_playersettings.obj
 0002:00003aac       ??_C@_02GJPF@25?$AA@       40080aac     ui_playersettings.obj
 0002:00003ab0       ??_C@_02HPFP@35?$AA@       40080ab0     ui_playersettings.obj
 0002:00003ab4       ??_C@_02BOMB@40?$AA@       40080ab4     ui_playersettings.obj
 0002:00003ab8       ??_C@_02BOAK@45?$AA@       40080ab8     ui_playersettings.obj
 0002:00003abc       ??_C@_02IGL@50?$AA@        40080abc     ui_playersettings.obj
 0002:00003ac0       ??_C@_02IKA@55?$AA@        40080ac0     ui_playersettings.obj
 0002:00003ac4       ??_C@_02DDJE@60?$AA@       40080ac4     ui_playersettings.obj
 0002:00003ac8       ??_C@_02DDFP@65?$AA@       40080ac8     ui_playersettings.obj
 0002:00003acc       ??_C@_02CFDO@70?$AA@       40080acc     ui_playersettings.obj
 0002:00003ad0       ??_C@_02CFPF@75?$AA@       40080ad0     ui_playersettings.obj
 0002:00003ad4       ??_C@_02PBDP@80?$AA@       40080ad4     ui_playersettings.obj
 0002:00003ad8       ??_C@_02PBPE@85?$AA@       40080ad8     ui_playersettings.obj
 0002:00003adc       ??_C@_02OHJF@90?$AA@       40080adc     ui_playersettings.obj
 0002:00003ae0       ??_C@_02OHFO@95?$AA@       40080ae0     ui_playersettings.obj
 0002:00003ae4       ??_C@_04COF@None?$AA@      40080ae4     ui_playersettings.obj
 0002:00003aec       ??_C@_0BC@HEAD@menu?1art?1fx_white?$AA@ 40080aec     ui_playersettings.obj
 0002:00003b04       ??_C@_0BB@EGCG@menu?1art?1fx_cyan?$AA@ 40080b04     ui_playersettings.obj
 0002:00003b18       ??_C@_0BB@MDFA@menu?1art?1fx_blue?$AA@ 40080b18     ui_playersettings.obj
 0002:00003b2c       ??_C@_0BB@EFBC@menu?1art?1fx_teal?$AA@ 40080b2c     ui_playersettings.obj
 0002:00003b40       ??_C@_0BA@LEB@menu?1art?1fx_grn?$AA@ 40080b40     ui_playersettings.obj
 0002:00003b54       ??_C@_0BA@IDL@menu?1art?1fx_yel?$AA@ 40080b54     ui_playersettings.obj
 0002:00003b68       ??_C@_0BA@DKAN@menu?1art?1fx_red?$AA@ 40080b68     ui_playersettings.obj
 0002:00003b7c       ??_C@_0BB@DOFG@menu?1art?1fx_base?$AA@ 40080b7c     ui_playersettings.obj
 0002:00003b90       ??_C@_0BB@IAJK@menu?1art?1model_1?$AA@ 40080b90     ui_playersettings.obj
 0002:00003ba4       ??_C@_0BB@CKAN@menu?1art?1model_0?$AA@ 40080ba4     ui_playersettings.obj
 0002:00003bb8       ??_C@_0BA@BFAM@PLAYER?5SETTINGS?$AA@ 40080bb8     ui_playersettings.obj
 0002:00003bcc       ??_C@_04EFNI@Name?$AA@     40080bcc     ui_playersettings.obj
 0002:00003bd4       ??_C@_08GFHD@Handicap?$AA@ 40080bd4     ui_playersettings.obj
 0002:00003be0       ??_C@_07MMMD@Effects?$AA@  40080be0     ui_playersettings.obj
 0002:00003bec       ??_C@_06MPHL@color1?$AA@   40080bec     ui_playersettings.obj
 0002:00003bf4       ??_C@_08GAKB@handicap?$AA@ 40080bf4     ui_playersettings.obj
 0002:00003c00       ??_C@_0L@JBPC@lower?5left?$AA@ 40080c00     ui_preferences.obj
 0002:00003c10       ??_C@_0M@INKE@lower?5right?$AA@ 40080c10     ui_preferences.obj
 0002:00003c20       ??_C@_0M@PJCI@upper?5right?$AA@ 40080c20     ui_preferences.obj
 0002:00003c30       ??_C@_03OJPB@off?$AA@      40080c30     ui_preferences.obj
 0002:00003c34       ??_C@_0BD@LP@gfx?12d?1crosshair?$CFc?$AA@ 40080c34     ui_preferences.obj
 0002:00003c4c       ??_C@_0BH@BNHF@Automatic?5Downloading?3?$AA@ 40080c4c     ui_preferences.obj
 0002:00003c68       ??_C@_0BD@HFHI@Draw?5Team?5Overlay?3?$AA@ 40080c68     ui_preferences.obj
 0002:00003c80       ??_C@_0BF@FCMM@Force?5Player?5Models?3?$AA@ 40080c80     ui_preferences.obj
 0002:00003c9c       ??_C@_0BC@IMGL@Sync?5Every?5Frame?3?$AA@ 40080c9c     ui_preferences.obj
 0002:00003cb4       ??_C@_0BC@MAEF@High?5Quality?5Sky?3?$AA@ 40080cb4     ui_preferences.obj
 0002:00003ccc       ??_C@_0BB@PANO@Identify?5Target?3?$AA@ 40080ccc     ui_preferences.obj
 0002:00003ce0       ??_C@_0BA@GALO@Dynamic?5Lights?3?$AA@ 40080ce0     ui_preferences.obj
 0002:00003cf4       ??_C@_0BA@FFDL@Ejecting?5Brass?3?$AA@ 40080cf4     ui_preferences.obj
 0002:00003d08       ??_C@_0BA@NMBJ@Marks?5on?5Walls?3?$AA@ 40080d08     ui_preferences.obj
 0002:00003d1c       ??_C@_0O@BFDF@Simple?5Items?3?$AA@ 40080d1c     ui_preferences.obj
 0002:00003d2c       ??_C@_0L@GJEF@Crosshair?3?$AA@ 40080d2c     ui_preferences.obj
 0002:00003d3c       ??_C@_0N@JKDP@GAME?5OPTIONS?$AA@ 40080d3c     ui_preferences.obj
 0002:00003d4c       ??_C@_0BB@DJDM@cl_allowDownload?$AA@ 40080d4c     ui_preferences.obj
 0002:00003d60       ??_C@_0BD@HGHB@cg_drawTeamOverlay?$AA@ 40080d60     ui_preferences.obj
 0002:00003d78       ??_C@_0O@JHDN@cg_forcemodel?$AA@ 40080d78     ui_preferences.obj
 0002:00003d88       ??_C@_08GDNG@r_finish?$AA@ 40080d88     ui_preferences.obj
 0002:00003d94       ??_C@_09CIG@r_fastsky?$AA@ 40080d94     ui_preferences.obj
 0002:00003da0       ??_C@_0P@KCDM@r_dynamiclight?$AA@ 40080da0     ui_preferences.obj
 0002:00003db4       ??_C@_0P@CMNJ@cg_simpleItems?$AA@ 40080db4     ui_preferences.obj
 0002:00003dc8       ??_C@_0BB@JPFB@sv_allowDownload?$AA@ 40080dc8     ui_preferences.obj
 0002:00003ddc       ??_C@_0BL@OHAA@Menu_Init?3?5unknown?5type?5?$CFd?$AA@ 40080ddc     ui_qmenu.obj
 0002:00003dfc       ??_C@_0BO@PLK@Menu_AddItem?3?5excessive?5items?$AA@ 40080dfc     ui_qmenu.obj
 0002:00003e20       ??_C@_0BL@FFAJ@Menu_Draw?3?5unknown?5type?5?$CFd?$AA@ 40080e20     ui_qmenu.obj
 0002:00003e40       ??_C@_02PHBM@on?$AA@       40080e40     ui_qmenu.obj
 0002:00003e44       __real@4@40059000000000000000 40080e44     ui_qmenu.obj
 0002:00003e48       ??_C@_0M@JDIP@screenshot?6?$AA@ 40080e48     ui_qmenu.obj
 0002:00003e58       __real@4@4005a000000000000000 40080e58     ui_qmenu.obj
 0002:00003e5c       ??_C@_0BG@JDNC@menu?1art?1sliderbutt_1?$AA@ 40080e5c     ui_qmenu.obj
 0002:00003e78       ??_C@_0BG@DJEF@menu?1art?1sliderbutt_0?$AA@ 40080e78     ui_qmenu.obj
 0002:00003e94       ??_C@_0BB@FBCE@menu?1art?1slider2?$AA@ 40080e94     ui_qmenu.obj
 0002:00003ea8       ??_C@_0BJ@IJDF@sound?1weapons?1change?4wav?$AA@ 40080ea8     ui_qmenu.obj
 0002:00003ec8       ??_C@_0BF@GICL@sound?1misc?1menu4?4wav?$AA@ 40080ec8     ui_qmenu.obj
 0002:00003ee4       ??_C@_0BF@INB@sound?1misc?1menu3?4wav?$AA@ 40080ee4     ui_qmenu.obj
 0002:00003f00       ??_C@_0BF@KIPE@sound?1misc?1menu2?4wav?$AA@ 40080f00     ui_qmenu.obj
 0002:00003f1c       ??_C@_0BF@EIJL@sound?1misc?1menu1?4wav?$AA@ 40080f1c     ui_qmenu.obj
 0002:00003f38       ??_C@_0P@JDC@menubacknologo?$AA@ 40080f38     ui_qmenu.obj
 0002:00003f4c       ??_C@_08NOHM@menuback?$AA@ 40080f4c     ui_qmenu.obj
 0002:00003f58       ??_C@_0BA@HMPC@menubackRagePro?$AA@ 40080f58     ui_qmenu.obj
 0002:00003f6c       ??_C@_05GMF@white?$AA@     40080f6c     ui_qmenu.obj
 0002:00003f74       ??_C@_0BE@DIDN@menu?1art?1switch_off?$AA@ 40080f74     ui_qmenu.obj
 0002:00003f8c       ??_C@_0BD@DLPH@menu?1art?1switch_on?$AA@ 40080f8c     ui_qmenu.obj
 0002:00003fa4       ??_C@_0BD@OBFN@menu?1art?13_cursor2?$AA@ 40080fa4     ui_qmenu.obj
 0002:00003fbc       ??_C@_0BI@GNCN@menu?1art?1font2_prop?4tga?$AA@ 40080fbc     ui_qmenu.obj
 0002:00003fd8       ??_C@_0BM@LJCL@menu?1art?1font1_prop_glo?4tga?$AA@ 40080fd8     ui_qmenu.obj
 0002:00003ffc       ??_C@_0BI@PNGL@menu?1art?1font1_prop?4tga?$AA@ 40080ffc     ui_qmenu.obj
 0002:00004018       ??_C@_0BA@OLJD@gfx?12d?1bigchars?$AA@ 40081018     ui_qmenu.obj
 0002:0000402c       ??_C@_0BC@DAJA@menu?1art?1delete_1?$AA@ 4008102c     ui_removebots.obj
 0002:00004044       ??_C@_0BC@JKAH@menu?1art?1delete_0?$AA@ 40081044     ui_removebots.obj
 0002:0000405c       ??_C@_01FMOK@n?$AA@        4008105c     ui_removebots.obj
 0002:00004060       ??_C@_0P@IKAA@clientkick?5?$CFi?6?$AA@ 40081060     ui_removebots.obj
 0002:00004074       ??_C@_05MIHE@skill?$AA@    40081074     ui_removebots.obj
 0002:0000407c       ??_C@_0O@KKJL@sv_maxclients?$AA@ 4008107c     ui_removebots.obj
 0002:0000408c       ??_C@_08BNAC@server?$CFd?$AA@ 4008108c     ui_serverinfo.obj
 0002:00004098       ??_C@_0BI@CKIO@cl_currentServerAddress?$AA@ 40081098     ui_serverinfo.obj
 0002:000040b4       ??_C@_0BB@PBLI@ADD?5TO?5FAVORITES?$AA@ 400810b4     ui_serverinfo.obj
 0002:000040c8       ??_C@_01PKAG@?3?$AA@       400810c8     ui_serverinfo.obj
 0002:000040cc       ??_C@_0M@CINO@is?5started?4?$AA@ 400810cc     ui_servers2.obj
 0002:000040dc       ??_C@_0BH@MCAF@disabled?5the?5next?5time?$AA@ 400810dc     ui_servers2.obj
 0002:000040f8       ??_C@_0BD@MEGI@PunkBuster?5will?5be?$AA@ 400810f8     ui_servers2.obj
 0002:00004110       ??_C@_07FFME@Enabled?$AA@  40081110     ui_servers2.obj
 0002:0000411c       ??_C@_08FGLH@Disabled?$AA@ 4008111c     ui_servers2.obj
 0002:00004128       ??_C@_03NPAN@IPX?$AA@      40081128     ui_servers2.obj
 0002:0000412c       ??_C@_03ECDD@UDP?$AA@      4008112c     ui_servers2.obj
 0002:00004130       ??_C@_03FMDN@OSP?$AA@      40081130     ui_servers2.obj
 0002:00004134       ??_C@_0N@JINO@Urban?5Terror?$AA@ 40081134     ui_servers2.obj
 0002:00004144       ??_C@_03CIGA@Q3F?$AA@      40081144     ui_servers2.obj
 0002:00004148       ??_C@_0P@PNFG@Rocket?5Arena?53?$AA@ 40081148     ui_servers2.obj
 0002:0000415c       ??_C@_09IBOJ@Harvester?$AA@ 4008115c     ui_servers2.obj
 0002:00004168       ??_C@_08KNPI@OverLoad?$AA@ 40081168     ui_servers2.obj
 0002:00004174       ??_C@_0N@DCK@One?5Flag?5CTF?$AA@ 40081174     ui_servers2.obj
 0002:00004184       ??_C@_03LDIF@CTF?$AA@      40081184     ui_servers2.obj
 0002:00004188       ??_C@_07GDLG@Team?5DM?$AA@ 40081188     ui_servers2.obj
 0002:00004194       ??_C@_03MABH@SP?5?$AA@     40081194     ui_servers2.obj
 0002:00004198       ??_C@_03CAP@1v1?$AA@       40081198     ui_servers2.obj
 0002:0000419c       ??_C@_03MMOB@DM?5?$AA@     4008119c     ui_servers2.obj
 0002:000041a0       ??_C@_09IFBH@Ping?5Time?$AA@ 400811a0     ui_servers2.obj
 0002:000041ac       ??_C@_09EFHA@Game?5Type?$AA@ 400811ac     ui_servers2.obj
 0002:000041b8       ??_C@_0BC@KDHP@Open?5Player?5Spots?$AA@ 400811b8     ui_servers2.obj
 0002:000041d0       ??_C@_08LMHB@Map?5Name?$AA@ 400811d0     ui_servers2.obj
 0002:000041dc       ??_C@_0M@MEML@Server?5Name?$AA@ 400811dc     ui_servers2.obj
 0002:000041ec       ??_C@_0BG@NIJM@DroneCapture?5the?5Flag?$AA@ 400811ec     ui_servers2.obj
 0002:00004208       ??_C@_0BA@MBBA@Team?5Deathmatch?$AA@ 40081208     ui_servers2.obj
 0002:0000421c       ??_C@_0N@EEDI@Free?5For?5All?$AA@ 4008121c     ui_servers2.obj
 0002:0000422c       ??_C@_03EOHB@All?$AA@      4008122c     ui_servers2.obj
 0002:00004230       ??_C@_09DLMA@Favorites?$AA@ 40081230     ui_servers2.obj
 0002:0000423c       ??_C@_08IGDG@Internet?$AA@ 4008123c     ui_servers2.obj
 0002:00004248       ??_C@_05PHNP@Local?$AA@    40081248     ui_servers2.obj
 0002:00004250       ??_C@_08NNNB@hostname?$AA@ 40081250     ui_servers2.obj
 0002:0000425c       ??_C@_0M@JJHJ@No?5Response?$AA@ 4008125c     ui_servers2.obj
 0002:0000426c       ??_C@_0L@KDHM@cl_maxPing?$AA@ 4008126c     ui_servers2.obj
 0002:0000427c       ??_C@_08MIDI@gametype?$AA@ 4008127c     ui_servers2.obj
 0002:00004288       ??_C@_04OAFI@game?$AA@     40081288     ui_servers2.obj
 0002:00004290       ??_C@_07IMLC@nettype?$AA@  40081290     ui_servers2.obj
 0002:0000429c       ??_C@_0L@MFLA@punkbuster?$AA@ 4008129c     ui_servers2.obj
 0002:000042ac       ??_C@_07MLHP@maxPing?$AA@  400812ac     ui_servers2.obj
 0002:000042b8       ??_C@_07KEPE@minPing?$AA@  400812b8     ui_servers2.obj
 0002:000042c4       ??_C@_07JEGC@clients?$AA@  400812c4     ui_servers2.obj
 0002:000042d0       ??_C@_0BG@EKEP@hit?5refresh?5to?5update?$AA@ 400812d0     ui_servers2.obj
 0002:000042ec       ??_C@_0DA@GDOK@?$CF?920?420s?5?$CF?912?412s?5?$CF2d?1?$CF2d?5?$CF?98?48s@ 400812ec     ui_servers2.obj
 0002:00004328       ??_C@_02JOHD@No?$AA@       40081328     ui_servers2.obj
 0002:0000432c       ??_C@_03PEHN@Yes?$AA@      4008132c     ui_servers2.obj
 0002:00004330       ??_C@_02FDKA@?$FO1?$AA@    40081330     ui_servers2.obj
 0002:00004334       ??_C@_02GIO@?$FO3?$AA@     40081334     ui_servers2.obj
 0002:00004338       ??_C@_02KMBJ@?$FO2?$AA@    40081338     ui_servers2.obj
 0002:0000433c       ??_C@_02FDGL@?$FO4?$AA@    4008133c     ui_servers2.obj
 0002:00004340       ??_C@_0BC@FCGI@No?5Servers?5Found?4?$AA@ 40081340     ui_servers2.obj
 0002:00004358       ??_C@_0CA@KBIC@No?5Response?5From?5Master?5Server?4?$AA@ 40081358     ui_servers2.obj
 0002:00004380       ??_C@_0BG@IDIF@Scanning?5For?5Servers?4?$AA@ 40081380     ui_servers2.obj
 0002:0000439c       ??_C@_0BE@JPEB@Press?5SPACE?5to?5stop?$AA@ 4008139c     ui_servers2.obj
 0002:000043b4       ??_C@_0BI@GGJF@?$CFd?5of?5?$CFd?5Arena?5Servers?4?$AA@ 400813b4     ui_servers2.obj
 0002:000043d0       ??_C@_0BC@PKPD@levelshots?1?$CFs?4tga?$AA@ 400813d0     ui_servers2.obj
 0002:000043e8       ??_C@_0BH@KBGK@globalservers?5?$CFd?5?$CFd?$CFs?6?$AA@ 400813e8     ui_servers2.obj
 0002:00004404       ??_C@_0BH@OPF@globalservers?5?$CFd?5?$CFs?$CFs?6?$AA@ 40081404     ui_servers2.obj
 0002:00004420       ??_C@_0P@FDBH@debug_protocol?$AA@ 40081420     ui_servers2.obj
 0002:00004434       ??_C@_05EABF@?5full?$AA@   40081434     ui_servers2.obj
 0002:0000443c       ??_C@_06PEJJ@?5empty?$AA@  4008143c     ui_servers2.obj
 0002:00004444       ??_C@_04NMKA@?5ctf?$AA@    40081444     ui_servers2.obj
 0002:0000444c       ??_C@_08FOAC@?5tourney?$AA@ 4008144c     ui_servers2.obj
 0002:00004458       ??_C@_05CNDJ@?5team?$AA@   40081458     ui_servers2.obj
 0002:00004460       ??_C@_04NEPF@?5ffa?$AA@    40081460     ui_servers2.obj
 0002:00004468       ??_C@_0O@GNNJ@localservers?6?$AA@ 40081468     ui_servers2.obj
 0002:00004478       ??_C@_0BA@ODKI@menu?1art?1pblogo?$AA@ 40081478     ui_servers2.obj
 0002:0000448c       ??_C@_0BE@GNPF@menu?1art?1unknownmap?$AA@ 4008148c     ui_servers2.obj
 0002:000044a4       ??_C@_0BB@DBHD@menu?1art?1fight_1?$AA@ 400814a4     ui_servers2.obj
 0002:000044b8       ??_C@_0BB@JLOE@menu?1art?1fight_0?$AA@ 400814b8     ui_servers2.obj
 0002:000044cc       ??_C@_0BD@JENO@menu?1art?1refresh_1?$AA@ 400814cc     ui_servers2.obj
 0002:000044e4       ??_C@_0BD@DOEJ@menu?1art?1refresh_0?$AA@ 400814e4     ui_servers2.obj
 0002:000044fc       ??_C@_0BD@BHAP@menu?1art?1specify_1?$AA@ 400814fc     ui_servers2.obj
 0002:00004514       ??_C@_0BD@LNJI@menu?1art?1specify_0?$AA@ 40081514     ui_servers2.obj
 0002:0000452c       ??_C@_0BC@FANP@menu?1art?1create_1?$AA@ 4008152c     ui_servers2.obj
 0002:00004544       ??_C@_0BC@PKEI@menu?1art?1create_0?$AA@ 40081544     ui_servers2.obj
 0002:0000455c       ??_C@_0O@JFBA@cl_punkbuster?$AA@ 4008155c     ui_servers2.obj
 0002:0000456c       ??_C@_0M@DNDL@Punkbuster?3?$AA@ 4008156c     ui_servers2.obj
 0002:0000457c       ??_C@_0M@KMED@Show?5Empty?3?$AA@ 4008157c     ui_servers2.obj
 0002:0000458c       ??_C@_0L@KGPH@Show?5Full?3?$AA@ 4008158c     ui_servers2.obj
 0002:0000459c       ??_C@_08HOLE@Sort?5By?3?$AA@ 4008159c     ui_servers2.obj
 0002:000045a8       ??_C@_0L@DGED@Game?5Type?3?$AA@ 400815a8     ui_servers2.obj
 0002:000045b8       ??_C@_08IFJ@Servers?3?$AA@ 400815b8     ui_servers2.obj
 0002:000045c4       ??_C@_0O@ONAF@ARENA?5SERVERS?$AA@ 400815c4     ui_servers2.obj
 0002:000045d4       ??_C@_0BE@LJKB@Disable?5Punkbuster?$DP?$AA@ 400815d4     ui_servers2.obj
 0002:000045ec       ??_C@_0BD@EFMK@Enable?5Punkbuster?$DP?$AA@ 400815ec     ui_servers2.obj
 0002:00004604       ??_C@_0M@HMCF@connect?5?$CFs?6?$AA@ 40081604     ui_servers2.obj
 0002:00004614       ??_C@_08BNFO@ping?5?$CFs?6?$AA@ 40081614     ui_servers2.obj
 0002:00004620       ??_C@_08CDFI@DEFAULTS?$AA@ 40081620     ui_setup.obj
 0002:0000462c       ??_C@_06IFMG@CD?5Key?$AA@  4008162c     ui_setup.obj
 0002:00004634       ??_C@_06LDDL@SYSTEM?$AA@   40081634     ui_setup.obj
 0002:0000463c       ??_C@_06BCGP@PLAYER?$AA@   4008163c     ui_setup.obj
 0002:00004644       ??_C@_0N@HKPM@vid_restart?6?$AA@ 40081644     ui_setup.obj
 0002:00004654       ??_C@_0O@HHFK@cvar_restart?6?$AA@ 40081654     ui_setup.obj
 0002:00004664       ??_C@_0BC@LCK@exec?5default?4cfg?6?$AA@ 40081664     ui_setup.obj
 0002:0000467c       ??_C@_0CB@KBOE@options?5to?5their?5default?5values?4@ 4008167c     ui_setup.obj
 0002:000046a4       ??_C@_0BP@FPFF@WARNING?3?5This?5will?5reset?5?$CKALL?$CK?$AA@ 400816a4     ui_setup.obj
 0002:000046cc       ??_C@_04MGPD@High?$AA@     400816cc     ui_sound.obj
 0002:000046d4       ??_C@_03PNAG@Low?$AA@      400816d4     ui_sound.obj
 0002:000046d8       ??_C@_0O@MGFG@s_compression?$AA@ 400816d8     ui_sound.obj
 0002:000046e8       ??_C@_0O@BKGD@s_musicvolume?$AA@ 400816e8     ui_sound.obj
 0002:000046f8       ??_C@_08POHF@s_volume?$AA@ 400816f8     ui_sound.obj
 0002:00004704       ??_C@_0P@MDKL@Sound?5Quality?3?$AA@ 40081704     ui_sound.obj
 0002:00004718       ??_C@_0O@CCFH@Music?5Volume?3?$AA@ 40081718     ui_sound.obj
 0002:00004728       ??_C@_0BA@KILM@Effects?5Volume?3?$AA@ 40081728     ui_sound.obj
 0002:0000473c       ??_C@_0N@DFBD@snd_restart?6?$AA@ 4008173c     ui_sound.obj
 0002:0000474c       ??_C@_05KNK@s_khz?$AA@     4008174c     ui_sound.obj
 0002:00004754       ??_C@_09DJJC@spmap?5?$CFs?6?$AA@ 40081754     ui_sparena.obj
 0002:00004760       ??_C@_05NCCC@Port?3?$AA@   40081760     ui_specifyserver.obj
 0002:00004768       ??_C@_08MBDJ@Address?3?$AA@ 40081768     ui_specifyserver.obj
 0002:00004774       ??_C@_0P@NFEB@SPECIFY?5SERVER?$AA@ 40081774     ui_specifyserver.obj
 0002:00004788       ??_C@_03GPJM@?3?$CFs?$AA@  40081788     ui_specifyserver.obj
 0002:0000478c       ??_C@_0BE@HOOM@menu?1art?1skirmish_1?$AA@ 4008178c     ui_splevel.obj
 0002:000047a4       ??_C@_0BE@NEHL@menu?1art?1skirmish_0?$AA@ 400817a4     ui_splevel.obj
 0002:000047bc       ??_C@_0BB@IBLE@menu?1art?1reset_1?$AA@ 400817bc     ui_splevel.obj
 0002:000047d0       ??_C@_0BB@CLCD@menu?1art?1reset_0?$AA@ 400817d0     ui_splevel.obj
 0002:000047e4       ??_C@_0BJ@BLBC@menu?1art?1level_complete5?$AA@ 400817e4     ui_splevel.obj
 0002:00004804       ??_C@_0BJ@LBIF@menu?1art?1level_complete4?$AA@ 40081804     ui_splevel.obj
 0002:00004824       ??_C@_0BJ@OEGA@menu?1art?1level_complete3?$AA@ 40081824     ui_splevel.obj
 0002:00004844       ??_C@_0BJ@EOPH@menu?1art?1level_complete2?$AA@ 40081844     ui_splevel.obj
 0002:00004864       ??_C@_0BJ@LBEO@menu?1art?1level_complete1?$AA@ 40081864     ui_splevel.obj
 0002:00004884       ??_C@_0BC@CGID@menu?1art?1narrow_1?$AA@ 40081884     ui_splevel.obj
 0002:0000489c       ??_C@_0BC@IMBE@menu?1art?1narrow_0?$AA@ 4008189c     ui_splevel.obj
 0002:000048b4       ??_C@_0BH@DEGB@menu?1art?1maps_selected?$AA@ 400818b4     ui_splevel.obj
 0002:000048d0       ??_C@_0BF@CKNJ@menu?1art?1maps_select?$AA@ 400818d0     ui_splevel.obj
 0002:000048ec       ??_C@_0N@JILN@CHOOSE?5LEVEL?$AA@ 400818ec     ui_splevel.obj
 0002:000048fc       ??_C@_0CD@HEAG@models?1players?1?$CFs?1icon_default?4t@ 400818fc     ui_splevel.obj
 0002:00004928       ??_C@_0BO@BKAG@models?1players?1?$CFs?1icon_?$CFs?4tga?$AA@ 40081928     ui_splevel.obj
 0002:0000494c       ??_C@_04LDNF@bots?$AA@     4008194c     ui_splevel.obj
 0002:00004954       ??_C@_0M@EEAI@RESET?5GAME?$DP?$AA@ 40081954     ui_splevel.obj
 0002:00004964       ??_C@_0BP@FKN@start?5over?5from?5the?5beginning?4?$AA@ 40081964     ui_splevel.obj
 0002:0000498c       ??_C@_0BM@GOEI@Do?5this?5only?5if?5you?5want?5to?$AA@ 4008198c     ui_splevel.obj
 0002:000049b0       ??_C@_0BO@ELPL@single?5player?5game?5variables?4?$AA@ 400819b0     ui_splevel.obj
 0002:000049d4       ??_C@_0CA@FNKA@WARNING?3?5This?5resets?5all?5of?5the?$AA@ 400819d4     ui_splevel.obj
 0002:000049fc       ??_C@_01PKMN@?$DP?$AA@     400819fc     ui_splevel.obj
 0002:00004a00       ??_C@_06HNNJ@?$CFs?3?5?$CFs?$AA@ 40081a00     ui_splevel.obj
 0002:00004a08       ??_C@_08CLHC@longname?$AA@ 40081a08     ui_splevel.obj
 0002:00004a14       ??_C@_0O@HBMM@ACCESS?5DENIED?$AA@ 40081a14     ui_splevel.obj
 0002:00004a24       ??_C@_07MEM@Tier?5?$CFi?$AA@ 40081a24     ui_splevel.obj
 0002:00004a30       ??_C@_03NILB@?$CFik?$AA@   40081a30     ui_splevel.obj
 0002:00004a34       ??_C@_03CHMD@?$CFim?$AA@   40081a34     ui_splevel.obj
 0002:00004a38       ??_C@_0BL@LONI@sound?1feedback?1perfect?4wav?$AA@ 40081a38     ui_sppostgame.obj
 0002:00004a58       ??_C@_0BJ@KGLG@sound?1feedback?1frags?4wav?$AA@ 40081a58     ui_sppostgame.obj
 0002:00004a78       ??_C@_0BM@HJFG@sound?1feedback?1gauntlet?4wav?$AA@ 40081a78     ui_sppostgame.obj
 0002:00004a9c       ??_C@_0BP@HDKJ@sound?1feedback?1excellent_a?4wav?$AA@ 40081a9c     ui_sppostgame.obj
 0002:00004ac4       ??_C@_0CA@JGD@sound?1feedback?1impressive_a?4wav?$AA@ 40081ac4     ui_sppostgame.obj
 0002:00004aec       ??_C@_0BM@GAFH@sound?1feedback?1accuracy?4wav?$AA@ 40081aec     ui_sppostgame.obj
 0002:00004b10       ??_C@_0BK@HHBK@menu?1medals?1medal_victory?$AA@ 40081b10     ui_sppostgame.obj
 0002:00004b30       ??_C@_0BI@NBBB@menu?1medals?1medal_frags?$AA@ 40081b30     ui_sppostgame.obj
 0002:00004b4c       ??_C@_0BL@DCFO@menu?1medals?1medal_gauntlet?$AA@ 40081b4c     ui_sppostgame.obj
 0002:00004b6c       ??_C@_0BM@FHAM@menu?1medals?1medal_excellent?$AA@ 40081b6c     ui_sppostgame.obj
 0002:00004b90       ??_C@_0BN@GPLI@menu?1medals?1medal_impressive?$AA@ 40081b90     ui_sppostgame.obj
 0002:00004bb4       ??_C@_0BL@GNNJ@menu?1medals?1medal_accuracy?$AA@ 40081bb4     ui_sppostgame.obj
 0002:00004bd4       ??_C@_07FAOC@Perfect?$AA@  40081bd4     ui_sppostgame.obj
 0002:00004be0       ??_C@_05COL@Frags?$AA@     40081be0     ui_sppostgame.obj
 0002:00004be8       ??_C@_09NGPL@Excellent?$AA@ 40081be8     ui_sppostgame.obj
 0002:00004bf4       ??_C@_0L@OIDJ@Impressive?$AA@ 40081bf4     ui_sppostgame.obj
 0002:00004c04       ??_C@_08JKED@Accuracy?$AA@ 40081c04     ui_sppostgame.obj
 0002:00004c10       ??_C@_0CB@FAFP@sound?1player?1announce?1youwin?4wav@ 40081c10     ui_sppostgame.obj
 0002:00004c38       ??_C@_0O@CHEC@music?1win?4wav?$AA@ 40081c38     ui_sppostgame.obj
 0002:00004c48       ??_C@_0P@JLKJ@music?1loss?4wav?$AA@ 40081c48     ui_sppostgame.obj
 0002:00004c5c       ??_C@_0BA@CDMJ@menu?1art?1next_1?$AA@ 40081c5c     ui_sppostgame.obj
 0002:00004c70       ??_C@_0BA@IJFO@menu?1art?1next_0?$AA@ 40081c70     ui_sppostgame.obj
 0002:00004c84       ??_C@_0BC@BOKM@menu?1art?1replay_1?$AA@ 40081c84     ui_sppostgame.obj
 0002:00004c9c       ??_C@_0BC@LEDL@menu?1art?1replay_0?$AA@ 40081c9c     ui_sppostgame.obj
 0002:00004cb4       ??_C@_0BA@EFPC@menu?1art?1menu_1?$AA@ 40081cb4     ui_sppostgame.obj
 0002:00004cc8       ??_C@_0BA@OPGF@menu?1art?1menu_0?$AA@ 40081cc8     ui_sppostgame.obj
 0002:00004cdc       ??_C@_0BB@ONEO@music?5music?1win?6?$AA@ 40081cdc     ui_sppostgame.obj
 0002:00004cf0       ??_C@_0BC@JKLE@music?5music?1loss?6?$AA@ 40081cf0     ui_sppostgame.obj
 0002:00004d08       ??_C@_0M@CHP@sv_serverid?$AA@ 40081d08     ui_sppostgame.obj
 0002:00004d18       ??_C@_0BJ@GHNN@disconnect?$DL?5levelselect?6?$AA@ 40081d18     ui_sppostgame.obj
 0002:00004d38       ??_C@_0O@CFJK@abort_podium?6?$AA@ 40081d38     ui_sppostgame.obj
 0002:00004d48       ??_C@_0BA@NOOC@ui_spScoreboard?$AA@ 40081d48     ui_sppostgame.obj
 0002:00004d5c       ??_C@_0CC@PEIG@disconnect?$DL?5cinematic?5tier?$CFi?4RoQ@ 40081d5c     ui_sppostgame.obj
 0002:00004d84       ??_C@_0BP@GDNB@disconnect?$DL?5cinematic?5end?4RoQ?6?$AA@ 40081d84     ui_sppostgame.obj
 0002:00004dac       ??_C@_0CD@KKMC@disconnect?$DL?5cinematic?5demoEnd?4Ro@ 40081dac     ui_sppostgame.obj
 0002:00004dd8       ??_C@_04NEPN@?$CFi?$CF?$CF?$AA@ 40081dd8     ui_sppostgame.obj
 0002:00004de0       __real@4@4009fa00000000000000 40081de0     ui_sppostgame.obj
 0002:00004de4       ??_C@_0P@DIIF@?$CD?$CFi?3?5?$CF?916s?5?$CF2i?$AA@ 40081de4     ui_sppostgame.obj
 0002:00004df8       ??_C@_05KBMK@?$CItie?$CJ?$AA@ 40081df8     ui_sppostgame.obj
 0002:00004e00       ??_C@_0BH@FOFB@sound?1misc?1silence?4wav?$AA@ 40081e00     ui_spskill.obj
 0002:00004e1c       ??_C@_0BJ@MBP@sound?1misc?1nightmare?4wav?$AA@ 40081e1c     ui_spskill.obj
 0002:00004e3c       ??_C@_0BE@FCEJ@menu?1art?1back_1?4tga?$AA@ 40081e3c     ui_spskill.obj
 0002:00004e54       ??_C@_0BE@PCGM@menu?1art?1back_0?4tga?$AA@ 40081e54     ui_spskill.obj
 0002:00004e6c       ??_C@_0L@ONAL@NIGHTMARE?$CB?$AA@ 40081e6c     ui_spskill.obj
 0002:00004e7c       ??_C@_0L@EJJP@DIFFICULTY?$AA@ 40081e7c     ui_spskill.obj
 0002:00004e8c       ??_C@_04NCHB@?9?9?9?9?$AA@ 40081e8c     ui_startserver.obj
 0002:00004e94       ??_C@_03HOHN@Bot?$AA@      40081e94     ui_startserver.obj
 0002:00004e98       ??_C@_04NKD@Open?$AA@      40081e98     ui_startserver.obj
 0002:00004ea0       ??_C@_03OPEA@LAN?$AA@      40081ea0     ui_startserver.obj
 0002:00004ea4       ??_C@_0BB@EEMI@Capture?5the?5Flag?$AA@ 40081ea4     ui_startserver.obj
 0002:00004eb8       ??_C@_05MLJP@Drone?$AA@    40081eb8     ui_startserver.obj
 0002:00004ec0       ??_C@_0O@CJGC@levelshots?1?$CFs?$AA@ 40081ec0     ui_startserver.obj
 0002:00004ed0       ??_C@_03HGOC@ctf?$AA@      40081ed0     ui_startserver.obj
 0002:00004ed4       ??_C@_04CJJD@team?$AA@     40081ed4     ui_startserver.obj
 0002:00004edc       ??_C@_07FLNA@tourney?$AA@  40081edc     ui_startserver.obj
 0002:00004ee8       ??_C@_03HOLH@ffa?$AA@      40081ee8     ui_startserver.obj
 0002:00004eec       ??_C@_0M@KKCL@GAME?5SERVER?$AA@ 40081eec     ui_startserver.obj
 0002:00004efc       ??_C@_0O@IKBB@NO?5MAPS?5FOUND?$AA@ 40081efc     ui_startserver.obj
 0002:00004f0c       ??_C@_0L@CONO@g_gameType?$AA@ 40081f0c     ui_startserver.obj
 0002:00004f1c       ??_C@_0N@MIML@Bot?5Skill?3?5?5?$AA@ 40081f1c     ui_startserver.obj
 0002:00004f2c       ??_C@_09JJNO@Hostname?3?$AA@ 40081f2c     ui_startserver.obj
 0002:00004f38       ??_C@_0L@CPCE@Dedicated?3?$AA@ 40081f38     ui_startserver.obj
 0002:00004f48       ??_C@_0N@EEPE@Pure?5Server?3?$AA@ 40081f48     ui_startserver.obj
 0002:00004f58       ??_C@_0P@EIKE@Friendly?5Fire?3?$AA@ 40081f58     ui_startserver.obj
 0002:00004f6c       ??_C@_0M@FFC@Time?5Limit?3?$AA@ 40081f6c     ui_startserver.obj
 0002:00004f7c       ??_C@_08KFPE@Gravity?3?$AA@ 40081f7c     ui_startserver.obj
 0002:00004f88       ??_C@_0M@PKK@MaxClients?3?$AA@ 40081f88     ui_startserver.obj
 0002:00004f98       ??_C@_0O@FOOE@Player?5Speed?3?$AA@ 40081f98     ui_startserver.obj
 0002:00004fa8       ??_C@_0P@FKPG@Capture?5Limit?3?$AA@ 40081fa8     ui_startserver.obj
 0002:00004fbc       ??_C@_0M@OBPN@Frag?5Limit?3?$AA@ 40081fbc     ui_startserver.obj
 0002:00004fcc       ??_C@_0O@OJOH@sv_punkbuster?$AA@ 40081fcc     ui_startserver.obj
 0002:00004fdc       ??_C@_0BB@EGOA@wait?55?$DL?5team?5?$CFs?6?$AA@ 40081fdc     ui_startserver.obj
 0002:00004ff0       ??_C@_0O@FHBJ@addbot?5?$CFs?5?$CFi?6?$AA@ 40081ff0     ui_startserver.obj
 0002:00005000       ??_C@_0BB@HHDC@addbot?5?$CFs?5?$CFi?5?$CFs?6?$AA@ 40082000     ui_startserver.obj
 0002:00005014       ??_C@_07ELNL@wait?53?6?$AA@ 40082014     ui_startserver.obj
 0002:00005020       ??_C@_0BG@JEJC@wait?5?$DL?5wait?5?$DL?5map?5?$CFs?6?$AA@ 40082020     ui_startserver.obj
 0002:0000503c       ??_C@_0M@IHPH@sv_hostname?$AA@ 4008203c     ui_startserver.obj
 0002:0000504c       ??_C@_07OEHJ@sv_pure?$AA@  4008204c     ui_startserver.obj
 0002:00005058       ??_C@_0P@JCFA@g_friendlyfire?$AA@ 40082058     ui_startserver.obj
 0002:0000506c       ??_C@_0N@ELFE@capturelimit?$AA@ 4008206c     ui_startserver.obj
 0002:0000507c       ??_C@_09DPJO@fraglimit?$AA@ 4008207c     ui_startserver.obj
 0002:00005088       ??_C@_09GBNJ@timelimit?$AA@ 40082088     ui_startserver.obj
 0002:00005094       ??_C@_09IEPK@g_gravity?$AA@ 40082094     ui_startserver.obj
 0002:000050a0       ??_C@_07CAPN@gravity?$AA@  400820a0     ui_startserver.obj
 0002:000050ac       ??_C@_0M@DGHM@playerspeed?$AA@ 400820ac     ui_startserver.obj
 0002:000050bc       ??_C@_09GLCL@dedicated?$AA@ 400820bc     ui_startserver.obj
 0002:000050c8       ??_C@_0BA@MEHI@ui_ctf_friendlt?$AA@ 400820c8     ui_startserver.obj
 0002:000050dc       ??_C@_0BB@OPAO@ui_ctf_fraglimit?$AA@ 400820dc     ui_startserver.obj
 0002:000050f0       ??_C@_0BB@PCDP@ui_team_friendlt?$AA@ 400820f0     ui_startserver.obj
 0002:00005104       ??_C@_07DOME@g_speed?$AA@  40082104     ui_startserver.obj
 0002:00005110       ??_C@_05GLLD@Human?$AA@    40082110     ui_startserver.obj
 0002:00005118       ??_C@_0N@JEOH@0?5?$DN?5NO?5LIMIT?$AA@ 40082118     ui_startserver.obj
 0002:00005128       ??_C@_0BE@OBHF@1?$DNFastest?53?$DNSlowest?$AA@ 40082128     ui_startserver.obj
 0002:00005140       ??_C@_0P@OMLL@800?5?$DN?5Standard?$AA@ 40082140     ui_startserver.obj
 0002:00005154       ??_C@_08DDIM@?9?9?9?9?9?9?9?9?$AA@ 40082154     ui_startserver.obj
 0002:00005160       ??_C@_05JPCA@sarge?$AA@    40082160     ui_startserver.obj
 0002:00005168       ??_C@_05IONH@visor?$AA@    40082168     ui_startserver.obj
 0002:00005170       ??_C@_05KEJO@major?$AA@    40082170     ui_startserver.obj
 0002:00005178       ??_C@_05DJEP@grunt?$AA@    40082178     ui_startserver.obj
 0002:00005180       ??_C@_0L@JAKD@SELECT?5BOT?$AA@ 40082180     ui_startserver.obj
 0002:00005190       ??_C@_08CDOC@SPECTATE?$AA@ 40082190     ui_team.obj
 0002:0000519c       ??_C@_09HKIN@JOIN?5GAME?$AA@ 4008219c     ui_team.obj
 0002:000051a8       ??_C@_09JPJD@JOIN?5BLUE?$AA@ 400821a8     ui_team.obj
 0002:000051b4       ??_C@_08BJDO@JOIN?5RED?$AA@ 400821b4     ui_team.obj
 0002:000051c0       ??_C@_0BE@ICFL@cmd?5team?5spectator?6?$AA@ 400821c0     ui_team.obj
 0002:000051d8       ??_C@_0P@ELBJ@cmd?5team?5free?6?$AA@ 400821d8     ui_team.obj
 0002:000051ec       ??_C@_0P@EKLL@cmd?5team?5blue?6?$AA@ 400821ec     ui_team.obj
 0002:00005200       ??_C@_0O@DAND@cmd?5team?5red?6?$AA@ 40082200     ui_team.obj
 0002:00005210       ??_C@_07LINF@?$CFs?5roam?$AA@ 40082210     ui_teamorders.obj
 0002:0000521c       ??_C@_04GIKF@Roam?$AA@     4008221c     ui_teamorders.obj
 0002:00005224       ??_C@_0BI@LFIC@i?5stop?5being?5the?5leader?$AA@ 40082224     ui_teamorders.obj
 0002:00005240       ??_C@_09KHP@?$CFs?5report?$AA@ 40082240     ui_teamorders.obj
 0002:0000524c       ??_C@_0N@PCCA@?$CFs?5camp?5here?$AA@ 4008224c     ui_teamorders.obj
 0002:0000525c       ??_C@_0BC@GCEJ@?$CFs?5get?5enemy?5flag?$AA@ 4008225c     ui_teamorders.obj
 0002:00005274       ??_C@_0N@ILAI@?$CFs?5follow?5me?$AA@ 40082274     ui_teamorders.obj
 0002:00005284       ??_C@_0BD@LIDF@?$CFs?5defend?5the?5base?$AA@ 40082284     ui_teamorders.obj
 0002:0000529c       ??_C@_0BA@PFDA@i?5am?5the?5leader?$AA@ 4008229c     ui_teamorders.obj
 0002:000052b0       ??_C@_0BF@JDFF@I?5Relinquish?5Command?$AA@ 400822b0     ui_teamorders.obj
 0002:000052cc       ??_C@_06LKEP@Report?$AA@   400822cc     ui_teamorders.obj
 0002:000052d4       ??_C@_09OLFL@Camp?5Here?$AA@ 400822d4     ui_teamorders.obj
 0002:000052e0       ??_C@_0P@PIGK@Get?5Enemy?5Flag?$AA@ 400822e0     ui_teamorders.obj
 0002:000052f4       ??_C@_09ONGD@Follow?5Me?$AA@ 400822f4     ui_teamorders.obj
 0002:00005300       ??_C@_0BA@FALP@Defend?5the?5Base?$AA@ 40082300     ui_teamorders.obj
 0002:00005314       ??_C@_0BA@DIID@I?5Am?5the?5Leader?$AA@ 40082314     ui_teamorders.obj
 0002:00005328       ??_C@_0P@EHI@say_team?5?$CC?$CFs?$CC?6?$AA@ 40082328     ui_teamorders.obj
 0002:0000533c       ??_C@_08ENDO@Everyone?$AA@ 4008233c     ui_teamorders.obj
 0002:00005348       ??_C@_02CCEO@On?$AA@       40082348     ui_video.obj
 0002:0000534c       ??_C@_03KLCE@Off?$AA@      4008234c     ui_video.obj
 0002:00005350       ??_C@_06LPDI@Medium?$AA@   40082350     ui_video.obj
 0002:00005358       ??_C@_09LBFI@Trilinear?$AA@ 40082358     ui_video.obj
 0002:00005364       ??_C@_08IJMK@Bilinear?$AA@ 40082364     ui_video.obj
 0002:00005370       ??_C@_0BE@PNLI@856x480?5wide?5screen?$AA@ 40082370     ui_video.obj
 0002:00005388       ??_C@_09IBDG@2048x1536?$AA@ 40082388     ui_video.obj
 0002:00005394       ??_C@_09BKLC@1600x1200?$AA@ 40082394     ui_video.obj
 0002:000053a0       ??_C@_09GNIB@1280x1024?$AA@ 400823a0     ui_video.obj
 0002:000053ac       ??_C@_08FKEJ@1152x864?$AA@ 400823ac     ui_video.obj
 0002:000053b8       ??_C@_08IMFD@1024x768?$AA@ 400823b8     ui_video.obj
 0002:000053c4       ??_C@_07MBHJ@960x720?$AA@  400823c4     ui_video.obj
 0002:000053d0       ??_C@_07ONGP@800x600?$AA@  400823d0     ui_video.obj
 0002:000053dc       ??_C@_07DJEG@640x480?$AA@  400823dc     ui_video.obj
 0002:000053e8       ??_C@_07NNKP@512x384?$AA@  400823e8     ui_video.obj
 0002:000053f4       ??_C@_07DJNI@400x300?$AA@  400823f4     ui_video.obj
 0002:00005400       ??_C@_07NDMM@320x240?$AA@  40082400     ui_video.obj
 0002:0000540c       ??_C@_06BEJH@Vertex?$AA@   4008240c     ui_video.obj
 0002:00005414       ??_C@_08DLBD@Lightmap?$AA@ 40082414     ui_video.obj
 0002:00005420       ??_C@_06JLAI@Custom?$AA@   40082420     ui_video.obj
 0002:00005428       ??_C@_07NNEM@Fastest?$AA@  40082428     ui_video.obj
 0002:00005434       ??_C@_04MEKN@Fast?$AA@     40082434     ui_video.obj
 0002:0000543c       ??_C@_06BILL@Normal?$AA@   4008243c     ui_video.obj
 0002:00005444       ??_C@_0N@BDBM@High?5Quality?$AA@ 40082444     ui_video.obj
 0002:00005454       ??_C@_06PHEG@32?5bit?$AA@  40082454     ui_video.obj
 0002:0000545c       ??_C@_06FMJD@16?5bit?$AA@  4008245c     ui_video.obj
 0002:00005464       ??_C@_06NPKC@Voodoo?$AA@   40082464     ui_video.obj
 0002:0000546c       ??_C@_07IOPL@Default?$AA@  4008246c     ui_video.obj
 0002:00005478       ??_C@_07JDIO@3dfxvgl?$AA@  40082478     ui_video.obj
 0002:00005484       ??_C@_08MLDJ@opengl32?$AA@ 40082484     ui_video.obj
 0002:00005490       ??_C@_0M@IBLP@Driver?5Info?$AA@ 40082490     ui_video.obj
 0002:000054a0       ??_C@_0BA@BNJH@Texture?5Filter?3?$AA@ 400824a0     ui_video.obj
 0002:000054b4       ??_C@_0BB@EDDB@Texture?5Quality?3?$AA@ 400824b4     ui_video.obj
 0002:000054c8       ??_C@_0BA@CNJE@Texture?5Detail?3?$AA@ 400824c8     ui_video.obj
 0002:000054dc       ??_C@_0BC@KKFH@Geometric?5Detail?3?$AA@ 400824dc     ui_video.obj
 0002:000054f4       ??_C@_09GAFN@Lighting?3?$AA@ 400824f4     ui_video.obj
 0002:00005500       ??_C@_0M@CDLC@Fullscreen?3?$AA@ 40082500     ui_video.obj
 0002:00005510       ??_C@_0N@NIIO@Color?5Depth?3?$AA@ 40082510     ui_video.obj
 0002:00005520       ??_C@_0M@HIE@Video?5Mode?3?$AA@ 40082520     ui_video.obj
 0002:00005530       ??_C@_0P@JFBN@GL?5Extensions?3?$AA@ 40082530     ui_video.obj
 0002:00005544       ??_C@_0L@KGNB@GL?5Driver?3?$AA@ 40082544     ui_video.obj
 0002:00005554       ??_C@_0BD@LJDA@Graphics?5Settings?3?$AA@ 40082554     ui_video.obj
 0002:0000556c       ??_C@_0BJ@CJFK@GL_LINEAR_MIPMAP_NEAREST?$AA@ 4008256c     ui_video.obj
 0002:0000558c       ??_C@_0O@HOGM@r_textureMode?$AA@ 4008258c     ui_video.obj
 0002:0000559c       ??_C@_0BI@KDJA@GL_LINEAR_MIPMAP_LINEAR?$AA@ 4008259c     ui_video.obj
 0002:000055b8       ??_C@_0P@CKPN@r_subdivisions?$AA@ 400825b8     ui_video.obj
 0002:000055cc       ??_C@_09DFIE@r_lodBias?$AA@ 400825cc     ui_video.obj
 0002:000055d8       ??_C@_0O@LELK@r_vertexLight?$AA@ 400825d8     ui_video.obj
 0002:000055e8       ??_C@_0O@HKDF@r_stencilbits?$AA@ 400825e8     ui_video.obj
 0002:000055f8       ??_C@_0M@PLLC@r_depthbits?$AA@ 400825f8     ui_video.obj
 0002:00005608       ??_C@_0M@EIBE@r_colorbits?$AA@ 40082608     ui_video.obj
 0002:00005618       ??_C@_0L@PNFE@r_glDriver?$AA@ 40082618     ui_video.obj
 0002:00005628       ??_C@_0N@EEGM@r_fullscreen?$AA@ 40082628     ui_video.obj
 0002:00005638       ??_C@_06JIMO@r_mode?$AA@   40082638     ui_video.obj
 0002:00005640       ??_C@_0BC@NJAA@r_allowExtensions?$AA@ 40082640     ui_video.obj
 0002:00005658       ??_C@_08JJKE@r_picmip?$AA@ 40082658     ui_video.obj
 0002:00005664       ??_C@_0O@NENM@r_texturebits?$AA@ 40082664     ui_video.obj
 0002:00005674       ??_C@_0M@JGPG@DRIVER?5INFO?$AA@ 40082674     ui_video.obj
 0002:00005684       ??_C@_0CL@JDBA@color?$CI?$CFd?9bits?$CJ?5Z?$CI?$CFd?9bits?$CJ?5stenci@ 40082684     ui_video.obj
 0002:000056b8       ??_C@_0L@EEFE@EXTENSIONS?$AA@ 400826b8     ui_video.obj
 0002:000056c8       ??_C@_0M@IFNJ@PIXELFORMAT?$AA@ 400826c8     ui_video.obj
 0002:000056d8       ??_C@_06CNBM@VENDOR?$AA@   400826d8     ui_video.obj
 0002:000056e0       __real@4@4003a000000000000000 400826e0     ui_video.obj
 0002:000056e4       ??_C@_0O@FHMD@i386?2chkesp?4c?$AA@ 400826e4     LIBCMTD:chkesp.obj
 0002:000056f4       ??_C@_0NM@ELEE@The?5value?5of?5ESP?5was?5not?5properl@ 400826f4     LIBCMTD:chkesp.obj
 0002:000057d0       ??_C@_02JJJH@?6?6?$AA@     400827d0     LIBCMTD:assert.obj
 0002:000057d4       ??_C@_01BJG@?6?$AA@        400827d4     LIBCMTD:assert.obj
 0002:000057d8       ??_C@_03NAME@?4?4?4?$AA@   400827d8     LIBCMTD:assert.obj
 0002:000057dc       ??_C@_0CF@JPDF@Microsoft?5Visual?5C?$CL?$CL?5Runtime?5Lib@ 400827dc     LIBCMTD:assert.obj
 0002:00005804       ??_C@_0DN@MHHJ@?$CIPress?5Retry?5to?5debug?5the?5applic@ 40082804     LIBCMTD:assert.obj
 0002:00005844       ??_C@_0HA@EJLJ@For?5information?5on?5how?5your?5prog@ 40082844     LIBCMTD:assert.obj
 0002:000058b4       ??_C@_0N@NOAB@Expression?3?5?$AA@ 400828b4     LIBCMTD:assert.obj
 0002:000058c4       ??_C@_06JMOL@Line?3?5?$AA@ 400828c4     LIBCMTD:assert.obj
 0002:000058cc       ??_C@_06FAAO@File?3?5?$AA@ 400828cc     LIBCMTD:assert.obj
 0002:000058d4       ??_C@_0BH@NNCD@?$DMprogram?5name?5unknown?$DO?$AA@ 400828d4     LIBCMTD:assert.obj
 0002:000058ec       ??_C@_09PIFG@Program?3?5?$AA@ 400828ec     LIBCMTD:assert.obj
 0002:000058f8       ??_C@_0BC@OIMC@Assertion?5failed?$CB?$AA@ 400828f8     LIBCMTD:assert.obj
 0002:0000590c       ??_C@_0P@LNLA@format?5?$CB?$DN?5NULL?$AA@ 4008290c     LIBCMTD:vsprintf.obj
 0002:0000591c       ??_C@_0L@HE@vsprintf?4c?$AA@ 4008291c     LIBCMTD:vsprintf.obj
 0002:00005928       ??_C@_0P@OOIN@string?5?$CB?$DN?5NULL?$AA@ 40082928     LIBCMTD:vsprintf.obj
 0002:00005938       ??_C@_0BB@BLL@Assertion?5Failed?$AA@ 40082938     LIBCMTD:dbgrpt.obj
 0002:0000594c       ??_C@_05CKBG@Error?$AA@    4008294c     LIBCMTD:dbgrpt.obj
 0002:00005954       ??_C@_07JCGI@Warning?$AA@  40082954     LIBCMTD:dbgrpt.obj
 0002:0000595c       ??_C@_0M@ODEP@?$CFs?$CI?$CFd?$CJ?5?3?5?$CFs?$AA@ 4008295c     LIBCMTD:dbgrpt.obj
 0002:00005968       ??_C@_01FEHD@?$AN?$AA@     40082968     LIBCMTD:dbgrpt.obj
 0002:0000596c       ??_C@_0BD@BEAK@Assertion?5failed?3?5?$AA@ 4008296c     LIBCMTD:dbgrpt.obj
 0002:00005980       ??_C@_0CL@LCCP@_CrtDbgReport?3?5String?5too?5long?5o@ 40082980     LIBCMTD:dbgrpt.obj
 0002:000059ac       ??_C@_0DC@EMDK@Second?5Chance?5Assertion?5Failed?3?5@ 400829ac     LIBCMTD:dbgrpt.obj
 0002:000059e0       ??_C@_09NJAK@wsprintfA?$AA@ 400829e0     LIBCMTD:dbgrpt.obj
 0002:000059ec       ??_C@_0L@HKL@user32?4dll?$AA@ 400829ec     LIBCMTD:dbgrpt.obj
 0002:000059f8       ??_C@_0CD@GCMD@Microsoft?5Visual?5C?$CL?$CL?5Debug?5Libra@ 400829f8     LIBCMTD:dbgrpt.obj
 0002:00005a1c       ??_C@_0FD@EBDD@Debug?5?$CFs?$CB?6?6Program?3?5?$CFs?$CFs?$CFs?$CFs?$CFs?$CFs@ 40082a1c     LIBCMTD:dbgrpt.obj
 0002:00005a70       ??_C@_09DCKN@?6Module?3?5?$AA@ 40082a70     LIBCMTD:dbgrpt.obj
 0002:00005a7c       ??_C@_07HJII@?6File?3?5?$AA@ 40082a7c     LIBCMTD:dbgrpt.obj
 0002:00005a84       ??_C@_07LFGN@?6Line?3?5?$AA@ 40082a84     LIBCMTD:dbgrpt.obj
 0002:00005a8c       ??_C@_0HD@BHFH@?6?6For?5information?5on?5how?5your?5pr@ 40082a8c     LIBCMTD:dbgrpt.obj
 0002:00005b00       ??_C@_08GFHP@dbgrpt?4c?$AA@ 40082b00     LIBCMTD:dbgrpt.obj
 0002:00005b0c       ??_C@_0BG@FBEA@szUserMessage?5?$CB?$DN?5NULL?$AA@ 40082b0c     LIBCMTD:dbgrpt.obj
 0002:00005b24       ??_C@_0BK@JEGK@IsProcessorFeaturePresent?$AA@ 40082b24     LIBCMTD:testfdiv.obj
 0002:00005b40       ??_C@_08OBID@KERNEL32?$AA@ 40082b40     LIBCMTD:testfdiv.obj
 0002:00005b4c       ??_C@_05OFLO@e?$CL000?$AA@ 40082b4c     LIBCMTD:cvt.obj
 0002:00005b68       __DEFAULT_CW_in_mem        40082b68     LIBCMTD:common.obj
 0002:00005b6a       __pi_by_2_to_61            40082b6a     LIBCMTD:common.obj
 0002:00005be0       ??_C@_08CNMA@winsig?4c?$AA@ 40082be0     LIBCMTD:winsig.obj
 0002:00005bec       ??_C@_0BD@NJFP@GetLastActivePopup?$AA@ 40082bec     LIBCMTD:crtmbox.obj
 0002:00005c00       ??_C@_0BA@GILI@GetActiveWindow?$AA@ 40082c00     LIBCMTD:crtmbox.obj
 0002:00005c10       ??_C@_0M@PKCK@MessageBoxA?$AA@ 40082c10     LIBCMTD:crtmbox.obj
 0002:00005c1c       ??_C@_09DLOM@fprintf?4c?$AA@ 40082c1c     LIBCMTD:fprintf.obj
 0002:00005c28       ??_C@_0M@KJPK@str?5?$CB?$DN?5NULL?$AA@ 40082c28     LIBCMTD:fprintf.obj
 0002:00005c34       ??_C@_09GCII@setvbuf?4c?$AA@ 40082c34     LIBCMTD:setvbuf.obj
 0002:00005c40       ??_C@_07HPAH@_file?4c?$AA@ 40082c40     LIBCMTD:_file.obj
 0002:00005c48       ??_C@_03GAFO@_yn?$AA@      40082c48     LIBCMTD:fpexcept.obj
 0002:00005c4c       ??_C@_03GNLD@_y1?$AA@      40082c4c     LIBCMTD:fpexcept.obj
 0002:00005c50       ??_C@_03MHCE@_y0?$AA@      40082c50     LIBCMTD:fpexcept.obj
 0002:00005c54       ??_C@_05PAK@frexp?$AA@     40082c54     LIBCMTD:fpexcept.obj
 0002:00005c5c       ??_C@_04JKCH@fmod?$AA@     40082c5c     LIBCMTD:fpexcept.obj
 0002:00005c64       ??_C@_06GGHF@_hypot?$AA@   40082c64     LIBCMTD:fpexcept.obj
 0002:00005c6c       ??_C@_05JNMC@_cabs?$AA@    40082c6c     LIBCMTD:fpexcept.obj
 0002:00005c74       ??_C@_05MEKH@ldexp?$AA@    40082c74     LIBCMTD:fpexcept.obj
 0002:00005c7c       ??_C@_04KAOJ@modf?$AA@     40082c7c     LIBCMTD:fpexcept.obj
 0002:00005c84       ??_C@_04EHAJ@fabs?$AA@     40082c84     LIBCMTD:fpexcept.obj
 0002:00005c8c       ??_C@_05MFBN@floor?$AA@    40082c8c     LIBCMTD:fpexcept.obj
 0002:00005c94       ??_C@_04JJMP@ceil?$AA@     40082c94     LIBCMTD:fpexcept.obj
 0002:00005c9c       ??_C@_03JLPI@tan?$AA@      40082c9c     LIBCMTD:fpexcept.obj
 0002:00005ca0       ??_C@_03DLFL@cos?$AA@      40082ca0     LIBCMTD:fpexcept.obj
 0002:00005ca4       ??_C@_03JAMN@sin?$AA@      40082ca4     LIBCMTD:fpexcept.obj
 0002:00005ca8       ??_C@_04LMBE@sqrt?$AA@     40082ca8     LIBCMTD:fpexcept.obj
 0002:00005cb0       ??_C@_05BFPO@atan2?$AA@    40082cb0     LIBCMTD:fpexcept.obj
 0002:00005cb8       ??_C@_04EAGN@atan?$AA@     40082cb8     LIBCMTD:fpexcept.obj
 0002:00005cc0       ??_C@_04OAMO@acos?$AA@     40082cc0     LIBCMTD:fpexcept.obj
 0002:00005cc8       ??_C@_04ELFI@asin?$AA@     40082cc8     LIBCMTD:fpexcept.obj
 0002:00005cd0       ??_C@_04LFAD@tanh?$AA@     40082cd0     LIBCMTD:fpexcept.obj
 0002:00005cd8       ??_C@_04PFKD@cosh?$AA@     40082cd8     LIBCMTD:fpexcept.obj
 0002:00005ce0       ??_C@_04NPAI@sinh?$AA@     40082ce0     LIBCMTD:fpexcept.obj
 0002:00005ce8       ??_C@_05IJHH@log10?$AA@    40082ce8     LIBCMTD:fpexcept.obj
 0002:00005cf0       ??_C@_03BGKD@log?$AA@      40082cf0     LIBCMTD:fpexcept.obj
 0002:00005cf4       ??_C@_03EGFG@pow?$AA@      40082cf4     LIBCMTD:fpexcept.obj
 0002:00005cf8       ??_C@_03CDGJ@exp?$AA@      40082cf8     LIBCMTD:fpexcept.obj
 0002:00005cfc       ??_C@_0DP@IHIN@?$CI?$CCinconsistent?5IOB?5fields?$CC?0?5stre@ 40082cfc     LIBCMTD:_flsbuf.obj
 0002:00005d3c       ??_C@_09LGEI@_flsbuf?4c?$AA@ 40082d3c     LIBCMTD:_flsbuf.obj
 0002:00005d48       ___lookuptable             40082d48     LIBCMTD:output.obj
 0002:00005da4       ??_C@_1O@POHA@?$AA?$CI?$AAn?$AAu?$AAl?$AAl?$AA?$CJ?$AA?$AA@ 40082da4     LIBCMTD:output.obj
 0002:00005db4       ??_C@_06ONKE@?$CInull?$CJ?$AA@ 40082db4     LIBCMTD:output.obj
 0002:00005dbc       ??_C@_08MIHI@output?4c?$AA@ 40082dbc     LIBCMTD:output.obj
 0002:00005dc8       ??_C@_0P@PIHB@ch?5?$CB?$DN?5_T?$CI?8?20?8?$CJ?$AA@ 40082dc8     LIBCMTD:output.obj
 0002:00005dd8       ??_C@_07PDLA@mlock?4c?$AA@ 40082dd8     LIBCMTD:mlock.obj
 0002:00005de0       ??_C@_07PCLE@LC_TIME?$AA@  40082de0     LIBCMTD:setlocal.obj
 0002:00005de8       ??_C@_0L@NKG@LC_NUMERIC?$AA@ 40082de8     LIBCMTD:setlocal.obj
 0002:00005df4       ??_C@_0M@CBIH@LC_MONETARY?$AA@ 40082df4     LIBCMTD:setlocal.obj
 0002:00005e00       ??_C@_08LFGE@LC_CTYPE?$AA@ 40082e00     LIBCMTD:setlocal.obj
 0002:00005e0c       ??_C@_0L@CFLC@LC_COLLATE?$AA@ 40082e0c     LIBCMTD:setlocal.obj
 0002:00005e18       ??_C@_06GCPK@LC_ALL?$AA@   40082e18     LIBCMTD:setlocal.obj
 0002:00005e20       ??_C@_01FAJB@?$DL?$AA@     40082e20     LIBCMTD:setlocal.obj
 0002:00005e24       ??_C@_02BGDO@?$DN?$DL?$AA@ 40082e24     LIBCMTD:setlocal.obj
 0002:00005e28       ??_C@_0L@MOEE@setlocal?4c?$AA@ 40082e28     LIBCMTD:setlocal.obj
 0002:00005e34       ??_C@_01KPOD@?$DN?$AA@     40082e34     LIBCMTD:setlocal.obj
 0002:00005e38       ??_C@_03DBOJ@_?4?0?$AA@    40082e38     LIBCMTD:setlocal.obj
 0002:00005e3c       ??_C@_01NON@_?$AA@         40082e3c     LIBCMTD:setlocal.obj
 0002:00005e40       ??_C@_01A@?$AA?$AA@        40082e40     LIBCMTD:a_map.obj
 0002:00005e44       ??_C@_13A@?$AA?$AA?$AA?$AA@ 40082e44     LIBCMTD:a_map.obj
 0002:00005e60       ??_C@_0L@ENLJ@tidtable?4c?$AA@ 40082e60     LIBCMTD:tidtable.obj
 0002:00005e6c       ??_C@_08KFDJ@ioinit?4c?$AA@ 40082e6c     LIBCMTD:ioinit.obj
 0002:00005e78       ??_C@_06DPMO@Client?$AA@   40082e78     LIBCMTD:dbgheap.obj
 0002:00005e80       ??_C@_06BAFM@Ignore?$AA@   40082e80     LIBCMTD:dbgheap.obj
 0002:00005e88       ??_C@_03DICE@CRT?$AA@      40082e88     LIBCMTD:dbgheap.obj
 0002:00005e8c       ??_C@_0DC@CGID@Error?3?5memory?5allocation?3?5bad?5me@ 40082e8c     LIBCMTD:dbgheap.obj
 0002:00005ec0       ??_C@_0CE@FMIA@Invalid?5allocation?5size?3?5?$CFu?5byte@ 40082ec0     LIBCMTD:dbgheap.obj
 0002:00005ee4       ??_C@_0CB@CPBI@Client?5hook?5allocation?5failure?4?6@ 40082ee4     LIBCMTD:dbgheap.obj
 0002:00005f08       ??_C@_0DF@DKHF@Client?5hook?5allocation?5failure?5a@ 40082f08     LIBCMTD:dbgheap.obj
 0002:00005f40       ??_C@_09IMJC@dbgheap?4c?$AA@ 40082f40     LIBCMTD:dbgheap.obj
 0002:00005f4c       ??_C@_0BC@EPKL@_CrtCheckMemory?$CI?$CJ?$AA@ 40082f4c     LIBCMTD:dbgheap.obj
 0002:00005f60       ??_C@_0BK@JDHA@_pFirstBlock?5?$DN?$DN?5pOldBlock?$AA@ 40082f60     LIBCMTD:dbgheap.obj
 0002:00005f7c       ??_C@_0BJ@NMEF@_pLastBlock?5?$DN?$DN?5pOldBlock?$AA@ 40082f7c     LIBCMTD:dbgheap.obj
 0002:00005f98       ??_C@_0DC@BOCN@fRealloc?5?$HM?$HM?5?$CI?$CBfRealloc?5?$CG?$CG?5pNewBl@ 40082f98     LIBCMTD:dbgheap.obj
 0002:00005fcc       ??_C@_0DK@DKOM@_BLOCK_TYPE?$CIpOldBlock?9?$DOnBlockUse@ 40082fcc     LIBCMTD:dbgheap.obj
 0002:00006008       ??_C@_0EF@EDKM@pOldBlock?9?$DOnLine?5?$DN?$DN?5IGNORE_LINE?5@ 40083008     LIBCMTD:dbgheap.obj
 0002:00006050       ??_C@_0CC@GPMO@_CrtIsValidHeapPointer?$CIpUserData@ 40083050     LIBCMTD:dbgheap.obj
 0002:00006074       ??_C@_0CN@FHGE@Allocation?5too?5large?5or?5negative@ 40083074     LIBCMTD:dbgheap.obj
 0002:000060a4       ??_C@_0CE@EAMN@Client?5hook?5re?9allocation?5failur@ 400830a4     LIBCMTD:dbgheap.obj
 0002:000060c8       ??_C@_0DI@KKMM@Client?5hook?5re?9allocation?5failur@ 400830c8     LIBCMTD:dbgheap.obj
 0002:00006100       ??_C@_0BG@JCEC@_pFirstBlock?5?$DN?$DN?5pHead?$AA@ 40083100     LIBCMTD:dbgheap.obj
 0002:00006118       ??_C@_0BF@NLNN@_pLastBlock?5?$DN?$DN?5pHead?$AA@ 40083118     LIBCMTD:dbgheap.obj
 0002:00006130       ??_C@_0BO@PLHH@pHead?9?$DOnBlockUse?5?$DN?$DN?5nBlockUse?$AA@ 40083130     LIBCMTD:dbgheap.obj
 0002:00006150       ??_C@_0DN@KKIO@pHead?9?$DOnLine?5?$DN?$DN?5IGNORE_LINE?5?$CG?$CG?5p@ 40083150     LIBCMTD:dbgheap.obj
 0002:00006190       ??_C@_0CK@OJNB@DAMAGE?3?5after?5?$CFhs?5block?5?$CI?$CD?$CFd?$CJ?5at@ 40083190     LIBCMTD:dbgheap.obj
 0002:000061bc       ??_C@_0CL@IJIL@DAMAGE?3?5before?5?$CFhs?5block?5?$CI?$CD?$CFd?$CJ?5a@ 400831bc     LIBCMTD:dbgheap.obj
 0002:000061e8       ??_C@_0CH@PHOC@_BLOCK_TYPE_IS_VALID?$CIpHead?9?$DOnBlo@ 400831e8     LIBCMTD:dbgheap.obj
 0002:00006210       ??_C@_0BL@MBNA@Client?5hook?5free?5failure?4?6?$AA@ 40083210     LIBCMTD:dbgheap.obj
 0002:0000622c       ??_C@_0DK@EKKL@memory?5check?5error?5at?50x?$CF08X?5?$DN?50@ 4008322c     LIBCMTD:dbgheap.obj
 0002:00006268       ??_C@_0CJ@GCII@?$CFhs?5located?5at?50x?$CF08X?5is?5?$CFu?5byte@ 40083268     LIBCMTD:dbgheap.obj
 0002:00006294       ??_C@_0CA@EJPI@?$CFhs?5allocated?5at?5file?5?$CFhs?$CI?$CFd?$CJ?4?6?$AA@ 40083294     LIBCMTD:dbgheap.obj
 0002:000062b4       ??_C@_0CJ@LHHG@DAMAGE?3?5on?5top?5of?5Free?5block?5at?5@ 400832b4     LIBCMTD:dbgheap.obj
 0002:000062e0       ??_C@_07GJHM@DAMAGED?$AA@  400832e0     LIBCMTD:dbgheap.obj
 0002:000062e8       ??_C@_0CL@ODIE@_heapchk?5fails?5with?5unknown?5retu@ 400832e8     LIBCMTD:dbgheap.obj
 0002:00006314       ??_C@_0CC@EHNC@_heapchk?5fails?5with?5_HEAPBADPTR?4@ 40083314     LIBCMTD:dbgheap.obj
 0002:00006338       ??_C@_0CC@JNDP@_heapchk?5fails?5with?5_HEAPBADEND?4@ 40083338     LIBCMTD:dbgheap.obj
 0002:0000635c       ??_C@_0CD@DNMG@_heapchk?5fails?5with?5_HEAPBADNODE@ 4008335c     LIBCMTD:dbgheap.obj
 0002:00006380       ??_C@_0CE@JMCB@_heapchk?5fails?5with?5_HEAPBADBEGI@ 40083380     LIBCMTD:dbgheap.obj
 0002:000063a4       ??_C@_0CD@MEMI@Bad?5memory?5block?5found?5at?50x?$CF08X@ 400833a4     LIBCMTD:dbgheap.obj
 0002:000063c8       ??_C@_0CI@GMAO@_CrtMemCheckPoint?3?5NULL?5state?5po@ 400833c8     LIBCMTD:dbgheap.obj
 0002:000063f0       ??_C@_0CI@MNAE@_CrtMemDifference?3?5NULL?5state?5po@ 400833f0     LIBCMTD:dbgheap.obj
 0002:00006418       ??_C@_0BH@PKIJ@Object?5dump?5complete?4?6?$AA@ 40083418     LIBCMTD:dbgheap.obj
 0002:00006430       ??_C@_0DB@DBPF@crt?5block?5at?50x?$CF08X?0?5subtype?5?$CFx?0@ 40083430     LIBCMTD:dbgheap.obj
 0002:00006464       ??_C@_0CI@JLM@normal?5block?5at?50x?$CF08X?0?5?$CFu?5bytes@ 40083464     LIBCMTD:dbgheap.obj
 0002:0000648c       ??_C@_0DE@PFEA@client?5block?5at?50x?$CF08X?0?5subtype?5@ 4008348c     LIBCMTD:dbgheap.obj
 0002:000064c0       ??_C@_06MBCE@?$HL?$CFld?$HN?5?$AA@ 400834c0     LIBCMTD:dbgheap.obj
 0002:000064c8       ??_C@_0L@BLDJ@?$CFhs?$CI?$CFd?$CJ?5?3?5?$AA@ 400834c8     LIBCMTD:dbgheap.obj
 0002:000064d4       ??_C@_0BE@FEMA@?$CDFile?5Error?$CD?$CI?$CFd?$CJ?5?3?5?$AA@ 400834d4     LIBCMTD:dbgheap.obj
 0002:000064e8       ??_C@_0BE@FPPM@Dumping?5objects?5?9?$DO?6?$AA@ 400834e8     LIBCMTD:dbgheap.obj
 0002:000064fc       ??_C@_0BA@POLM@?5Data?3?5?$DM?$CFs?$DO?5?$CFs?6?$AA@ 400834fc     LIBCMTD:dbgheap.obj
 0002:0000650c       ??_C@_05JLAO@?$CF?42X?5?$AA@ 4008350c     LIBCMTD:dbgheap.obj
 0002:00006514       ??_C@_0BI@KONA@Detected?5memory?5leaks?$CB?6?$AA@ 40083514     LIBCMTD:dbgheap.obj
 0002:0000652c       ??_C@_0BP@LCCN@Total?5allocations?3?5?$CFld?5bytes?4?6?$AA@ 4008352c     LIBCMTD:dbgheap.obj
 0002:0000654c       ??_C@_0CB@COID@Largest?5number?5used?3?5?$CFld?5bytes?4?6@ 4008354c     LIBCMTD:dbgheap.obj
 0002:00006570       ??_C@_0BO@MEJD@?$CFld?5bytes?5in?5?$CFld?5?$CFhs?5Blocks?4?6?$AA@ 40083570     LIBCMTD:dbgheap.obj
 0002:00006590       ??_C@_09IGKD@stdenvp?4c?$AA@ 40083590     LIBCMTD:stdenvp.obj
 0002:0000659c       ??_C@_09MPMN@stdargv?4c?$AA@ 4008359c     LIBCMTD:stdargv.obj
 0002:000065a8       ??_C@_07BNNE@a_env?4c?$AA@ 400835a8     LIBCMTD:a_env.obj
 0002:000065b0       ??_C@_0P@GGKG@runtime?5error?5?$AA@ 400835b0     LIBCMTD:crt0msg.obj
 0002:000065c0       ??_C@_02PIMC@?$AN?6?$AA@   400835c0     LIBCMTD:crt0msg.obj
 0002:000065c4       ??_C@_0O@DELO@TLOSS?5error?$AN?6?$AA@ 400835c4     LIBCMTD:crt0msg.obj
 0002:000065d4       ??_C@_0N@OMLL@SING?5error?$AN?6?$AA@ 400835d4     LIBCMTD:crt0msg.obj
 0002:000065e4       ??_C@_0P@OJAK@DOMAIN?5error?$AN?6?$AA@ 400835e4     LIBCMTD:crt0msg.obj
 0002:000065f4       ??_C@_0CF@EANP@R6028?$AN?6?9?5unable?5to?5initialize?5he@ 400835f4     LIBCMTD:crt0msg.obj
 0002:0000661c       ??_C@_0DF@ECGN@R6027?$AN?6?9?5not?5enough?5space?5for?5lo@ 4008361c     LIBCMTD:crt0msg.obj
 0002:00006654       ??_C@_0DF@FKAC@R6026?$AN?6?9?5not?5enough?5space?5for?5st@ 40083654     LIBCMTD:crt0msg.obj
 0002:0000668c       ??_C@_0CG@DPMN@R6025?$AN?6?9?5pure?5virtual?5function?5c@ 4008368c     LIBCMTD:crt0msg.obj
 0002:000066b4       ??_C@_0DF@CKIP@R6024?$AN?6?9?5not?5enough?5space?5for?5_o@ 400836b4     LIBCMTD:crt0msg.obj
 0002:000066ec       ??_C@_0CJ@GGOE@R6019?$AN?6?9?5unable?5to?5open?5console?5@ 400836ec     LIBCMTD:crt0msg.obj
 0002:00006718       ??_C@_0CB@LBOB@R6018?$AN?6?9?5unexpected?5heap?5error?$AN?6@ 40083718     LIBCMTD:crt0msg.obj
 0002:0000673c       ??_C@_0CN@FPEG@R6017?$AN?6?9?5unexpected?5multithread?5@ 4008373c     LIBCMTD:crt0msg.obj
 0002:0000676c       ??_C@_0CM@OBIC@R6016?$AN?6?9?5not?5enough?5space?5for?5th@ 4008376c     LIBCMTD:crt0msg.obj
 0002:00006798       ??_C@_0CB@HPAL@?$AN?6abnormal?5program?5termination?$AN?6@ 40083798     LIBCMTD:crt0msg.obj
 0002:000067bc       ??_C@_0CM@JOOB@R6009?$AN?6?9?5not?5enough?5space?5for?5en@ 400837bc     LIBCMTD:crt0msg.obj
 0002:000067e8       ??_C@_0CK@OIBL@R6008?$AN?6?9?5not?5enough?5space?5for?5ar@ 400837e8     LIBCMTD:crt0msg.obj
 0002:00006814       ??_C@_0CF@LKPB@R6002?$AN?6?9?5floating?5point?5not?5load@ 40083814     LIBCMTD:crt0msg.obj
 0002:0000683c       ??_C@_0BK@DEOK@Runtime?5Error?$CB?6?6Program?3?5?$AA@ 4008383c     LIBCMTD:crt0msg.obj
 0002:00006858       ??_C@_09NEAG@sprintf?4c?$AA@ 40083858     LIBCMTD:snprintf.obj
 0002:00006874       ??_C@_09JNND@_sftbuf?4c?$AA@ 40083874     LIBCMTD:_sftbuf.obj
 0002:00006880       ??_C@_0BH@EOPG@flag?5?$DN?$DN?50?5?$HM?$HM?5flag?5?$DN?$DN?51?$AA@ 40083880     LIBCMTD:_sftbuf.obj
 0002:00006898       ??_C@_0L@JIE@_freebuf?4c?$AA@ 40083898     LIBCMTD:_freebuf.obj
 0002:000068a4       ??_C@_0P@FHEA@stream?5?$CB?$DN?5NULL?$AA@ 400838a4     LIBCMTD:_freebuf.obj
 0002:000068b4       ??_C@_09EMDO@_getbuf?4c?$AA@ 400838b4     LIBCMTD:_getbuf.obj
 0002:000068c0       ??_C@_0L@EEGJ@inittime?4c?$AA@ 400838c0     LIBCMTD:inittime.obj
 0002:000068cc       ??_C@_09IMJJ@initnum?4c?$AA@ 400838cc     LIBCMTD:initnum.obj
 0002:000068d8       ??_C@_09KPNI@initmon?4c?$AA@ 400838d8     LIBCMTD:initmon.obj
 0002:000068e4       ??_C@_0L@COIL@initctyp?4c?$AA@ 400838e4     LIBCMTD:initctyp.obj
 0002:000068f0       ??_C@_08OBJD@Paraguay?$AA@ 400838f0     LIBCMTD:getqloc.obj
 0002:000068fc       ??_C@_07GLKH@Uruguay?$AA@  400838fc     LIBCMTD:getqloc.obj
 0002:00006904       ??_C@_05FPFC@Chile?$AA@    40083904     LIBCMTD:getqloc.obj
 0002:0000690c       ??_C@_07IIGF@Ecuador?$AA@  4008390c     LIBCMTD:getqloc.obj
 0002:00006914       ??_C@_09PKAL@Argentina?$AA@ 40083914     LIBCMTD:getqloc.obj
 0002:00006920       ??_C@_04LKAH@Peru?$AA@     40083920     LIBCMTD:getqloc.obj
 0002:00006928       ??_C@_08NEEM@Colombia?$AA@ 40083928     LIBCMTD:getqloc.obj
 0002:00006934       ??_C@_09ODEB@Venezuela?$AA@ 40083934     LIBCMTD:getqloc.obj
 0002:00006940       ??_C@_0BD@CLEL@Dominican?5Republic?$AA@ 40083940     LIBCMTD:getqloc.obj
 0002:00006954       ??_C@_0N@MDGL@South?5Africa?$AA@ 40083954     LIBCMTD:getqloc.obj
 0002:00006964       ??_C@_06NKBG@Panama?$AA@   40083964     LIBCMTD:getqloc.obj
 0002:0000696c       ??_C@_0L@BMHO@Luxembourg?$AA@ 4008396c     LIBCMTD:getqloc.obj
 0002:00006978       ??_C@_0L@IMDK@Costa?5Rica?$AA@ 40083978     LIBCMTD:getqloc.obj
 0002:00006984       ??_C@_0M@BLJF@Switzerland?$AA@ 40083984     LIBCMTD:getqloc.obj
 0002:00006990       ??_C@_09KBOL@Guatemala?$AA@ 40083990     LIBCMTD:getqloc.obj
 0002:0000699c       ??_C@_06JNAK@Canada?$AA@   4008399c     LIBCMTD:getqloc.obj
 0002:000069a4       ??_C@_0BG@OLLP@Spanish?5?9?5Modern?5Sort?$AA@ 400839a4     LIBCMTD:getqloc.obj
 0002:000069bc       ??_C@_09IDKE@Australia?$AA@ 400839bc     LIBCMTD:getqloc.obj
 0002:000069c8       ??_C@_07JJJJ@English?$AA@  400839c8     LIBCMTD:getqloc.obj
 0002:000069d0       ??_C@_07NMDO@Austria?$AA@  400839d0     LIBCMTD:getqloc.obj
 0002:000069d8       ??_C@_06DEFE@German?$AA@   400839d8     LIBCMTD:getqloc.obj
 0002:000069e0       ??_C@_07JAIH@Belgium?$AA@  400839e0     LIBCMTD:getqloc.obj
 0002:000069e8       ??_C@_06BNLJ@Mexico?$AA@   400839e8     LIBCMTD:getqloc.obj
 0002:000069f0       ??_C@_07JHAG@Spanish?$AA@  400839f0     LIBCMTD:getqloc.obj
 0002:000069f8       ??_C@_06DADE@Basque?$AA@   400839f8     LIBCMTD:getqloc.obj
 0002:00006a00       ??_C@_06ENFP@Sweden?$AA@   40083a00     LIBCMTD:getqloc.obj
 0002:00006a08       ??_C@_07JPMH@Swedish?$AA@  40083a08     LIBCMTD:getqloc.obj
 0002:00006a10       ??_C@_07IEKF@Iceland?$AA@  40083a10     LIBCMTD:getqloc.obj
 0002:00006a18       ??_C@_09KNEA@Icelandic?$AA@ 40083a18     LIBCMTD:getqloc.obj
 0002:00006a24       ??_C@_06IJOD@France?$AA@   40083a24     LIBCMTD:getqloc.obj
 0002:00006a2c       ??_C@_06EINI@French?$AA@   40083a2c     LIBCMTD:getqloc.obj
 0002:00006a34       ??_C@_07FOOE@Finland?$AA@  40083a34     LIBCMTD:getqloc.obj
 0002:00006a3c       ??_C@_07OJOM@Finnish?$AA@  40083a3c     LIBCMTD:getqloc.obj
 0002:00006a44       ??_C@_05FFAC@Spain?$AA@    40083a44     LIBCMTD:getqloc.obj
 0002:00006a4c       ??_C@_0BL@BIHM@Spanish?5?9?5Traditional?5Sort?$AA@ 40083a4c     LIBCMTD:getqloc.obj
 0002:00006a68       ??_C@_0O@GLHB@united?9states?$AA@ 40083a68     LIBCMTD:getqloc.obj
 0002:00006a78       ??_C@_0P@IIKK@united?9kingdom?$AA@ 40083a78     LIBCMTD:getqloc.obj
 0002:00006a88       ??_C@_0BC@FHBO@trinidad?5?$CG?5tobago?$AA@ 40083a88     LIBCMTD:getqloc.obj
 0002:00006a9c       ??_C@_0M@BDFM@south?9korea?$AA@ 40083a9c     LIBCMTD:getqloc.obj
 0002:00006aa8       ??_C@_0N@CKFA@south?9africa?$AA@ 40083aa8     LIBCMTD:getqloc.obj
 0002:00006ab8       ??_C@_0M@HNHN@south?5korea?$AA@ 40083ab8     LIBCMTD:getqloc.obj
 0002:00006ac4       ??_C@_0N@MKDO@south?5africa?$AA@ 40083ac4     LIBCMTD:getqloc.obj
 0002:00006ad4       ??_C@_06KFFJ@slovak?$AA@   40083ad4     LIBCMTD:getqloc.obj
 0002:00006adc       ??_C@_0M@NMAC@puerto?9rico?$AA@ 40083adc     LIBCMTD:getqloc.obj
 0002:00006ae8       ??_C@_08EJOH@pr?9china?$AA@ 40083ae8     LIBCMTD:getqloc.obj
 0002:00006af4       ??_C@_08CHMG@pr?5china?$AA@ 40083af4     LIBCMTD:getqloc.obj
 0002:00006b00       ??_C@_02OCJK@nz?$AA@       40083b00     LIBCMTD:getqloc.obj
 0002:00006b04       ??_C@_0M@MMKA@new?9zealand?$AA@ 40083b04     LIBCMTD:getqloc.obj
 0002:00006b10       ??_C@_09MGEH@hong?9kong?$AA@ 40083b10     LIBCMTD:getqloc.obj
 0002:00006b1c       ??_C@_07CCAK@holland?$AA@  40083b1c     LIBCMTD:getqloc.obj
 0002:00006b24       ??_C@_0O@MEPL@great?5britain?$AA@ 40083b24     LIBCMTD:getqloc.obj
 0002:00006b34       ??_C@_07LGIB@england?$AA@  40083b34     LIBCMTD:getqloc.obj
 0002:00006b3c       ??_C@_05BMOA@czech?$AA@    40083b3c     LIBCMTD:getqloc.obj
 0002:00006b44       ??_C@_05NMPB@china?$AA@    40083b44     LIBCMTD:getqloc.obj
 0002:00006b4c       ??_C@_07GN@britain?$AA@    40083b4c     LIBCMTD:getqloc.obj
 0002:00006b54       ??_C@_07DLAK@america?$AA@  40083b54     LIBCMTD:getqloc.obj
 0002:00006b5c       ??_C@_03IPEP@usa?$AA@      40083b5c     LIBCMTD:getqloc.obj
 0002:00006b60       ??_C@_02PILH@us?$AA@       40083b60     LIBCMTD:getqloc.obj
 0002:00006b64       ??_C@_02FHP@uk?$AA@        40083b64     LIBCMTD:getqloc.obj
 0002:00006b68       ??_C@_05DEAI@swiss?$AA@    40083b68     LIBCMTD:getqloc.obj
 0002:00006b70       ??_C@_0BA@LIAF@swedish?9finland?$AA@ 40083b70     LIBCMTD:getqloc.obj
 0002:00006b80       ??_C@_0BC@FMEG@spanish?9venezuela?$AA@ 40083b80     LIBCMTD:getqloc.obj
 0002:00006b94       ??_C@_0BA@BNMG@spanish?9uruguay?$AA@ 40083b94     LIBCMTD:getqloc.obj
 0002:00006ba4       ??_C@_0BE@BKDJ@spanish?9puerto?5rico?$AA@ 40083ba4     LIBCMTD:getqloc.obj
 0002:00006bb8       ??_C@_0N@JIBL@spanish?9peru?$AA@ 40083bb8     LIBCMTD:getqloc.obj
 0002:00006bc8       ??_C@_0BB@OGOF@spanish?9paraguay?$AA@ 40083bc8     LIBCMTD:getqloc.obj
 0002:00006bdc       ??_C@_0P@LLFA@spanish?9panama?$AA@ 40083bdc     LIBCMTD:getqloc.obj
 0002:00006bec       ??_C@_0BC@BBJM@spanish?9nicaragua?$AA@ 40083bec     LIBCMTD:getqloc.obj
 0002:00006c00       ??_C@_0P@NJBN@spanish?9modern?$AA@ 40083c00     LIBCMTD:getqloc.obj
 0002:00006c10       ??_C@_0BA@NHDN@spanish?9mexican?$AA@ 40083c10     LIBCMTD:getqloc.obj
 0002:00006c20       ??_C@_0BB@JHOJ@spanish?9honduras?$AA@ 40083c20     LIBCMTD:getqloc.obj
 0002:00006c34       ??_C@_0BC@BOOM@spanish?9guatemala?$AA@ 40083c34     LIBCMTD:getqloc.obj
 0002:00006c48       ??_C@_0BE@EELI@spanish?9el?5salvador?$AA@ 40083c48     LIBCMTD:getqloc.obj
 0002:00006c5c       ??_C@_0BA@POAE@spanish?9ecuador?$AA@ 40083c5c     LIBCMTD:getqloc.obj
 0002:00006c6c       ??_C@_0BL@LDKN@spanish?9dominican?5republic?$AA@ 40083c6c     LIBCMTD:getqloc.obj
 0002:00006c88       ??_C@_0BD@HPMH@spanish?9costa?5rica?$AA@ 40083c88     LIBCMTD:getqloc.obj
 0002:00006c9c       ??_C@_0BB@NDDK@spanish?9colombia?$AA@ 40083c9c     LIBCMTD:getqloc.obj
 0002:00006cb0       ??_C@_0O@BJHA@spanish?9chile?$AA@ 40083cb0     LIBCMTD:getqloc.obj
 0002:00006cc0       ??_C@_0BA@OBNG@spanish?9bolivia?$AA@ 40083cc0     LIBCMTD:getqloc.obj
 0002:00006cd0       ??_C@_0BC@EFAM@spanish?9argentina?$AA@ 40083cd0     LIBCMTD:getqloc.obj
 0002:00006ce4       ??_C@_0BF@KMMM@portuguese?9brazilian?$AA@ 40083ce4     LIBCMTD:getqloc.obj
 0002:00006cfc       ??_C@_0BC@BAAE@norwegian?9nynorsk?$AA@ 40083cfc     LIBCMTD:getqloc.obj
 0002:00006d10       ??_C@_0BB@PBHK@norwegian?9bokmal?$AA@ 40083d10     LIBCMTD:getqloc.obj
 0002:00006d24       ??_C@_09EHKL@norwegian?$AA@ 40083d24     LIBCMTD:getqloc.obj
 0002:00006d30       ??_C@_0O@BEAN@italian?9swiss?$AA@ 40083d30     LIBCMTD:getqloc.obj
 0002:00006d40       ??_C@_0O@OIFK@irish?9english?$AA@ 40083d40     LIBCMTD:getqloc.obj
 0002:00006d50       ??_C@_0N@NBPL@german?9swiss?$AA@ 40083d50     LIBCMTD:getqloc.obj
 0002:00006d60       ??_C@_0BC@ICFJ@german?9luxembourg?$AA@ 40083d60     LIBCMTD:getqloc.obj
 0002:00006d74       ??_C@_0BE@GGPC@german?9lichtenstein?$AA@ 40083d74     LIBCMTD:getqloc.obj
 0002:00006d88       ??_C@_0BA@MKDC@german?9austrian?$AA@ 40083d88     LIBCMTD:getqloc.obj
 0002:00006d98       ??_C@_0N@ODNB@french?9swiss?$AA@ 40083d98     LIBCMTD:getqloc.obj
 0002:00006da8       ??_C@_0BC@MGCM@french?9luxembourg?$AA@ 40083da8     LIBCMTD:getqloc.obj
 0002:00006dbc       ??_C@_0BA@NABK@french?9canadian?$AA@ 40083dbc     LIBCMTD:getqloc.obj
 0002:00006dcc       ??_C@_0P@CJNO@french?9belgian?$AA@ 40083dcc     LIBCMTD:getqloc.obj
 0002:00006ddc       ??_C@_0M@LJOL@english?9usa?$AA@ 40083ddc     LIBCMTD:getqloc.obj
 0002:00006de8       ??_C@_0L@FMNC@english?9us?$AA@ 40083de8     LIBCMTD:getqloc.obj
 0002:00006df4       ??_C@_0L@KBBK@english?9uk?$AA@ 40083df4     LIBCMTD:getqloc.obj
 0002:00006e00       ??_C@_0BK@NDDE@english?9trinidad?5y?5tobago?$AA@ 40083e00     LIBCMTD:getqloc.obj
 0002:00006e1c       ??_C@_0BF@LKML@english?9south?5africa?$AA@ 40083e1c     LIBCMTD:getqloc.obj
 0002:00006e34       ??_C@_0L@EGPP@english?9nz?$AA@ 40083e34     LIBCMTD:getqloc.obj
 0002:00006e40       ??_C@_0BA@HLH@english?9jamaica?$AA@ 40083e40     LIBCMTD:getqloc.obj
 0002:00006e50       ??_C@_0M@PMJI@english?9ire?$AA@ 40083e50     LIBCMTD:getqloc.obj
 0002:00006e5c       ??_C@_0BC@HINE@english?9caribbean?$AA@ 40083e5c     LIBCMTD:getqloc.obj
 0002:00006e70       ??_C@_0M@DCFH@english?9can?$AA@ 40083e70     LIBCMTD:getqloc.obj
 0002:00006e7c       ??_C@_0P@DGHK@english?9belize?$AA@ 40083e7c     LIBCMTD:getqloc.obj
 0002:00006e8c       ??_C@_0M@FLHK@english?9aus?$AA@ 40083e8c     LIBCMTD:getqloc.obj
 0002:00006e98       ??_C@_0BB@HNCK@english?9american?$AA@ 40083e98     LIBCMTD:getqloc.obj
 0002:00006eac       ??_C@_0O@PAMI@dutch?9belgian?$AA@ 40083eac     LIBCMTD:getqloc.obj
 0002:00006ebc       ??_C@_0BE@FPEJ@chinese?9traditional?$AA@ 40083ebc     LIBCMTD:getqloc.obj
 0002:00006ed0       ??_C@_0BC@CHFL@chinese?9singapore?$AA@ 40083ed0     LIBCMTD:getqloc.obj
 0002:00006ee4       ??_C@_0BD@DCMH@chinese?9simplified?$AA@ 40083ee4     LIBCMTD:getqloc.obj
 0002:00006ef8       ??_C@_0BB@JMOE@chinese?9hongkong?$AA@ 40083ef8     LIBCMTD:getqloc.obj
 0002:00006f0c       ??_C@_07NGFN@chinese?$AA@  40083f0c     LIBCMTD:getqloc.obj
 0002:00006f14       ??_C@_03PCOI@chi?$AA@      40083f14     LIBCMTD:getqloc.obj
 0002:00006f18       ??_C@_03FIHP@chh?$AA@      40083f18     LIBCMTD:getqloc.obj
 0002:00006f1c       ??_C@_08HFLO@canadian?$AA@ 40083f1c     LIBCMTD:getqloc.obj
 0002:00006f28       ??_C@_07INIJ@belgian?$AA@  40083f28     LIBCMTD:getqloc.obj
 0002:00006f30       ??_C@_0L@LCCA@australian?$AA@ 40083f30     LIBCMTD:getqloc.obj
 0002:00006f3c       ??_C@_0BB@BJIO@american?9english?$AA@ 40083f3c     LIBCMTD:getqloc.obj
 0002:00006f50       ??_C@_0BB@DAGO@american?5english?$AA@ 40083f50     LIBCMTD:getqloc.obj
 0002:00006f64       ??_C@_08HENB@american?$AA@ 40083f64     LIBCMTD:getqloc.obj
 0002:00006f70       ??_C@_03DGJE@OCP?$AA@      40083f70     LIBCMTD:getqloc.obj
 0002:00006f74       ??_C@_03EKFG@ACP?$AA@      40083f74     LIBCMTD:getqloc.obj
 0002:00006f78       ??_C@_06PAPI@1?$CDQNAN?$AA@ 40083f78     LIBCMTD:x10fout.obj
 0002:00006f80       ??_C@_05BGNL@1?$CDINF?$AA@ 40083f80     LIBCMTD:x10fout.obj
 0002:00006f88       ??_C@_05EDPF@1?$CDIND?$AA@ 40083f88     LIBCMTD:x10fout.obj
 0002:00006f90       ??_C@_06LKFM@1?$CDSNAN?$AA@ 40083f90     LIBCMTD:x10fout.obj
 0002:00006f98       ??_C@_09LNLM@osfinfo?4c?$AA@ 40083f98     LIBCMTD:osfinfo.obj
 0002:00006fa4       ??_C@_08PHBD@fclose?4c?$AA@ 40083fa4     LIBCMTD:fclose.obj
 0002:00006fb0       ??_C@_07CJME@H?3mm?3ss?$AA@ 40083fb0     LIBCMTD:strftime.obj
 0002:00006fb8       ??_C@_0BE@MHI@dddd?0?5MMMM?5dd?0?5yyyy?$AA@ 40083fb8     LIBCMTD:strftime.obj
 0002:00006fcc       ??_C@_06HCAD@M?1d?1yy?$AA@ 40083fcc     LIBCMTD:strftime.obj
 0002:00006fd4       ??_C@_02DBLP@PM?$AA@       40083fd4     LIBCMTD:strftime.obj
 0002:00006fd8       ??_C@_02ENLM@AM?$AA@       40083fd8     LIBCMTD:strftime.obj
 0002:00006fdc       ??_C@_08LIDF@December?$AA@ 40083fdc     LIBCMTD:strftime.obj
 0002:00006fe8       ??_C@_08NJLI@November?$AA@ 40083fe8     LIBCMTD:strftime.obj
 0002:00006ff4       ??_C@_07IAMM@October?$AA@  40083ff4     LIBCMTD:strftime.obj
 0002:00006ffc       ??_C@_09MKGD@September?$AA@ 40083ffc     LIBCMTD:strftime.obj
 0002:00007008       ??_C@_06PADP@August?$AA@   40084008     LIBCMTD:strftime.obj
 0002:00007010       ??_C@_04PIJO@July?$AA@     40084010     LIBCMTD:strftime.obj
 0002:00007018       ??_C@_04ICFP@June?$AA@     40084018     LIBCMTD:strftime.obj
 0002:00007020       ??_C@_05JFGC@April?$AA@    40084020     LIBCMTD:strftime.obj
 0002:00007028       ??_C@_05FGPD@March?$AA@    40084028     LIBCMTD:strftime.obj
 0002:00007030       ??_C@_08PGBA@February?$AA@ 40084030     LIBCMTD:strftime.obj
 0002:0000703c       ??_C@_07BPKJ@January?$AA@  4008403c     LIBCMTD:strftime.obj
 0002:00007044       ??_C@_03PGJO@Dec?$AA@      40084044     LIBCMTD:strftime.obj
 0002:00007048       ??_C@_03PDLM@Nov?$AA@      40084048     LIBCMTD:strftime.obj
 0002:0000704c       ??_C@_03BLHK@Oct?$AA@      4008404c     LIBCMTD:strftime.obj
 0002:00007050       ??_C@_03DPFM@Sep?$AA@      40084050     LIBCMTD:strftime.obj
 0002:00007054       ??_C@_03CMCH@Aug?$AA@      40084054     LIBCMTD:strftime.obj
 0002:00007058       ??_C@_03OBKI@Jul?$AA@      40084058     LIBCMTD:strftime.obj
 0002:0000705c       ??_C@_03LEIG@Jun?$AA@      4008405c     LIBCMTD:strftime.obj
 0002:00007060       ??_C@_03MGHB@May?$AA@      40084060     LIBCMTD:strftime.obj
 0002:00007064       ??_C@_03MJJM@Apr?$AA@      40084064     LIBCMTD:strftime.obj
 0002:00007068       ??_C@_03GNHA@Mar?$AA@      40084068     LIBCMTD:strftime.obj
 0002:0000706c       ??_C@_03PICE@Feb?$AA@      4008406c     LIBCMTD:strftime.obj
 0002:00007070       ??_C@_03IEIF@Jan?$AA@      40084070     LIBCMTD:strftime.obj
 0002:00007074       ??_C@_08FAKH@Saturday?$AA@ 40084074     LIBCMTD:strftime.obj
 0002:00007080       ??_C@_06ONCK@Friday?$AA@   40084080     LIBCMTD:strftime.obj
 0002:00007088       ??_C@_08CCFO@Thursday?$AA@ 40084088     LIBCMTD:strftime.obj
 0002:00007094       ??_C@_09PBIN@Wednesday?$AA@ 40084094     LIBCMTD:strftime.obj
 0002:000070a0       ??_C@_07BMBC@Tuesday?$AA@  400840a0     LIBCMTD:strftime.obj
 0002:000070a8       ??_C@_06CHLK@Monday?$AA@   400840a8     LIBCMTD:strftime.obj
 0002:000070b0       ??_C@_06OOEM@Sunday?$AA@   400840b0     LIBCMTD:strftime.obj
 0002:000070b8       ??_C@_03MPKK@Sat?$AA@      400840b8     LIBCMTD:strftime.obj
 0002:000070bc       ??_C@_03FINJ@Fri?$AA@      400840bc     LIBCMTD:strftime.obj
 0002:000070c0       ??_C@_03HIKC@Thu?$AA@      400840c0     LIBCMTD:strftime.obj
 0002:000070c4       ??_C@_03HECK@Wed?$AA@      400840c4     LIBCMTD:strftime.obj
 0002:000070c8       ??_C@_03ECCP@Tue?$AA@      400840c8     LIBCMTD:strftime.obj
 0002:000070cc       ??_C@_03PIEP@Mon?$AA@      400840cc     LIBCMTD:strftime.obj
 0002:000070d0       ??_C@_03FHEP@Sun?$AA@      400840d0     LIBCMTD:strftime.obj
 0002:000070d4       ??_C@_03MKGK@a?1p?$AA@     400840d4     LIBCMTD:strftime.obj
 0002:000070d8       ??_C@_05BDJK@am?1pm?$AA@   400840d8     LIBCMTD:strftime.obj
 0002:000070e0       ??_C@_0L@HKCB@inithelp?4c?$AA@ 400840e0     LIBCMTD:inithelp.obj
 0002:00007108       ___dnames                  40084108     LIBCMTD:timeset.obj
 0002:00007120       ___mnames                  40084120     LIBCMTD:timeset.obj
 0002:00007148       ??_C@_07DEKI@tzset?4c?$AA@ 40084148     LIBCMTD:tzset.obj
 0002:00007150       ??_C@_02JHIA@TZ?$AA@       40084150     LIBCMTD:tzset.obj
 0002:00007174       ??_C@_0L@EJNO@wtombenv?4c?$AA@ 40084174     LIBCMTD:wtombenv.obj
 0002:00007180       ??_C@_07FOIK@a_cmp?4c?$AA@ 40084180     LIBCMTD:a_cmp.obj
 0002:00007188       ??_C@_0DN@PPKB@cchCount1?$DN?$DN0?5?$CG?$CG?5cchCount2?$DN?$DN1?5?$HM?$HM?5@ 40084188     LIBCMTD:a_cmp.obj
 0002:000071e0       ??_C@_08FEIK@setenv?4c?$AA@ 400841e0     LIBCMTD:setenv.obj
 0003:00000000       ___xc_a                    40085000     LIBCMTD:crt0init.obj
 0003:00000104       ___xc_z                    40085104     LIBCMTD:crt0init.obj
 0003:00000208       ___xi_a                    40085208     LIBCMTD:crt0init.obj
 0003:00000418       ___xi_z                    40085418     LIBCMTD:crt0init.obj
 0003:0000051c       ___xp_a                    4008551c     LIBCMTD:crt0init.obj
 0003:00000724       ___xp_z                    40085724     LIBCMTD:crt0init.obj
 0003:00000828       ___xt_a                    40085828     LIBCMTD:crt0init.obj
 0003:0000092c       ___xt_z                    4008592c     LIBCMTD:crt0init.obj
 0003:00000a30       _playerModels              40085a30     bg_misc.obj
 0003:00000a40       _bg_itemlist               40085a40     bg_misc.obj
 0003:000011c4       _bg_numItems               400861c4     bg_misc.obj
 0003:000011c8       _eventnames                400861c8     bg_misc.obj
 0003:000014c8       _axisDefault               400864c8     q_math.obj
 0003:000014ec       _colorBlack                400864ec     q_math.obj
 0003:000014fc       _colorRed                  400864fc     q_math.obj
 0003:0000150c       _colorGreen                4008650c     q_math.obj
 0003:0000151c       _colorBlue                 4008651c     q_math.obj
 0003:0000152c       _colorYellow               4008652c     q_math.obj
 0003:0000153c       _colorMagenta              4008653c     q_math.obj
 0003:0000154c       _colorCyan                 4008654c     q_math.obj
 0003:0000155c       _colorWhite                4008655c     q_math.obj
 0003:0000156c       _colorLtGrey               4008656c     q_math.obj
 0003:0000157c       _colorMdGrey               4008657c     q_math.obj
 0003:0000158c       _colorDkGrey               4008658c     q_math.obj
 0003:0000159c       _g_color_table             4008659c     q_math.obj
 0003:0000161c       _bytedirs                  4008661c     q_math.obj
 0003:00001f7c       ?__LINE__Var@?1??ProjectPointOnPlane@@9@9 40086f7c     q_math.obj
 0003:00002890       _passwordNeeded            40087890     ui_connect.obj
 0003:000033fc       _menu_text_color           400883fc     ui_qmenu.obj
 0003:0000340c       _menu_dim_color            4008840c     ui_qmenu.obj
 0003:0000341c       _color_black               4008841c     ui_qmenu.obj
 0003:0000342c       _color_white               4008842c     ui_qmenu.obj
 0003:0000343c       _color_yellow              4008843c     ui_qmenu.obj
 0003:0000344c       _color_blue                4008844c     ui_qmenu.obj
 0003:0000345c       _color_lightOrange         4008845c     ui_qmenu.obj
 0003:0000346c       _color_orange              4008846c     ui_qmenu.obj
 0003:0000347c       _color_red                 4008847c     ui_qmenu.obj
 0003:0000348c       _color_dim                 4008848c     ui_qmenu.obj
 0003:0000349c       _pulse_color               4008849c     ui_qmenu.obj
 0003:000034ac       _text_color_disabled       400884ac     ui_qmenu.obj
 0003:000034bc       _text_color_normal         400884bc     ui_qmenu.obj
 0003:000034cc       _text_color_highlight      400884cc     ui_qmenu.obj
 0003:000034dc       _listbar_color             400884dc     ui_qmenu.obj
 0003:000034ec       _text_color_status         400884ec     ui_qmenu.obj
 0003:00003608       _punkbuster_items          40088608     ui_servers2.obj
 0003:00003614       _punkbuster_msg            40088614     ui_servers2.obj
 0003:00003688       _ui_medalNames             40088688     ui_sppostgame.obj
 0003:000036a0       _ui_medalPicNames          400886a0     ui_sppostgame.obj
 0003:000036b8       _ui_medalSounds            400886b8     ui_sppostgame.obj
 0003:00003a0c       __fltused                  40088a0c     LIBCMTD:fpinit.obj
 0003:00003a10       __ldused                   40088a10     LIBCMTD:fpinit.obj
 0003:00003a14       __FPinit                   40088a14     LIBCMTD:fpinit.obj
 0003:00003a18       __FPmtinit                 40088a18     LIBCMTD:fpinit.obj
 0003:00003a1c       __FPmtterm                 40088a1c     LIBCMTD:fpinit.obj
 0003:00003a94       __aexit_rtn                40088a94     LIBCMTD:dllcrt0.obj
 0003:00003a98       __crtAssertBusy            40088a98     LIBCMTD:dbgrpt.obj
 0003:00003a9c       __CrtDbgMode               40088a9c     LIBCMTD:dbgrpt.obj
 0003:00003aa8       __CrtDbgFile               40088aa8     LIBCMTD:dbgrpt.obj
 0003:00003ac0       __cfltcvt_tab              40088ac0     LIBCMTD:cmiscdat.obj
 0003:00003ae0       __indefinite               40088ae0     LIBCMTD:87disp.obj
 0003:00003aea       __piby2                    40088aea     LIBCMTD:87disp.obj
 0003:00003b10       __pctype                   40088b10     LIBCMTD:ctype.obj
 0003:00003b14       __pwctype                  40088b14     LIBCMTD:ctype.obj
 0003:00003b18       __ctype                    40088b18     LIBCMTD:ctype.obj
 0003:00003d1c       ___mb_cur_max              40088d1c     LIBCMTD:nlsdata1.obj
 0003:00003d20       ___decimal_point           40088d20     LIBCMTD:nlsdata1.obj
 0003:00003d24       ___decimal_point_length    40088d24     LIBCMTD:nlsdata1.obj
 0003:00003d30       __OP_ATAN2jmptab           40088d30     LIBCMTD:87triga.obj
 0003:00003d80       __iob                      40088d80     LIBCMTD:_file.obj
 0003:000040d8       __d_inf                    400890d8     LIBCMTD:util.obj
 0003:000040e0       __d_ind                    400890e0     LIBCMTD:util.obj
 0003:000040e8       __d_max                    400890e8     LIBCMTD:util.obj
 0003:000040f0       __d_min                    400890f0     LIBCMTD:util.obj
 0003:000040f8       __d_mzero                  400890f8     LIBCMTD:util.obj
 0003:00004118       ___nullstring              40089118     LIBCMTD:output.obj
 0003:0000411c       ___wnullstring             4008911c     LIBCMTD:output.obj
 0003:00004120       __locktable                40089120     LIBCMTD:mlock.obj
 0003:000042f0       ___lc_category             400892f0     LIBCMTD:setlocal.obj
 0003:00004340       ___tlsindex                40089340     LIBCMTD:tidtable.obj
 0003:00004348       ___badioinfo               40089348     LIBCMTD:ioinit.obj
 0003:0000436c       __crtDbgFlag               4008936c     LIBCMTD:dbgheap.obj
 0003:00004374       __crtBreakAlloc            40089374     LIBCMTD:dbgheap.obj
 0003:00004390       __amblksiz                 40089390     LIBCMTD:heapinit.obj
 0003:000045c0       __XcptActTab               400895c0     LIBCMTD:winxfltr.obj
 0003:00004638       __First_FPE_Indx           40089638     LIBCMTD:winxfltr.obj
 0003:0000463c       __Num_FPE                  4008963c     LIBCMTD:winxfltr.obj
 0003:00004640       __XcptActTabSize           40089640     LIBCMTD:winxfltr.obj
 0003:00004644       __XcptActTabCount          40089644     LIBCMTD:winxfltr.obj
 0003:00004650       __matherr_flag             40089650     LIBCMTD:matherr.obj
 0003:00004660       ___rgLocInfo               40089660     LIBCMTD:getqloc.obj
 0003:00004b04       ___rglangidNotDefault      40089b04     LIBCMTD:getqloc.obj
 0003:00004b18       ___rg_country              40089b18     LIBCMTD:getqloc.obj
 0003:00004bd0       ___rg_language             40089bd0     LIBCMTD:getqloc.obj
 0003:00004dd8       __NLG_Destination          40089dd8     LIBCMTD:exsup.obj
 0003:00004de8       __pfnAllocHook             40089de8     LIBCMTD:dbghook.obj
 0003:00004dec       ___sbh_threshold           40089dec     LIBCMTD:sbheap.obj
 0003:00004ee8       ___lc_time_curr            40089ee8     LIBCMTD:strftime.obj
 0003:00004ef0       ___lc_time_c               40089ef0     LIBCMTD:strftime.obj
 0003:00004fa0       ___lconv_static_decimal    40089fa0     LIBCMTD:lconv.obj
 0003:00004fa8       ___lconv_c                 40089fa8     LIBCMTD:lconv.obj
 0003:00004fd8       ___lconv                   40089fd8     LIBCMTD:lconv.obj
 0003:00004fe0       __pow10pos                 40089fe0     LIBCMTD:constpow.obj
 0003:00005140       __pow10neg                 4008a140     LIBCMTD:constpow.obj
 0003:0000529c       __timezone                 4008a29c     LIBCMTD:timeset.obj
 0003:000052a0       __daylight                 4008a2a0     LIBCMTD:timeset.obj
 0003:000052a4       __dstbias                  4008a2a4     LIBCMTD:timeset.obj
 0003:00005328       __tzname                   4008a328     LIBCMTD:timeset.obj
 0003:0000534c       __lpdays                   4008a34c     LIBCMTD:days.obj
 0003:00005380       __days                     4008a380     LIBCMTD:days.obj
 0003:00005a24       _vec3_origin               4008aa24     q_math.obj
 0003:00082b20       ___fastflag                40107b20     LIBCMTD:fpinit.obj
 0003:00082b24       __adjust_fdiv              40107b24     LIBCMTD:fpinit.obj
 0003:00082b2c       __aenvptr                  40107b2c     LIBCMTD:dllcrt0.obj
 0003:00082b30       __wenvptr                  40107b30     LIBCMTD:dllcrt0.obj
 0003:00082b34       ___error_mode              40107b34     LIBCMTD:dllcrt0.obj
 0003:00082b38       ___app_type                40107b38     LIBCMTD:dllcrt0.obj
 0003:00082b40       __umaskval                 40107b40     LIBCMTD:crt0dat.obj
 0003:00082b44       __osver                    40107b44     LIBCMTD:crt0dat.obj
 0003:00082b48       __winver                   40107b48     LIBCMTD:crt0dat.obj
 0003:00082b4c       __winmajor                 40107b4c     LIBCMTD:crt0dat.obj
 0003:00082b50       __winminor                 40107b50     LIBCMTD:crt0dat.obj
 0003:00082b54       ___argc                    40107b54     LIBCMTD:crt0dat.obj
 0003:00082b58       ___argv                    40107b58     LIBCMTD:crt0dat.obj
 0003:00082b5c       ___wargv                   40107b5c     LIBCMTD:crt0dat.obj
 0003:00082b60       __environ                  40107b60     LIBCMTD:crt0dat.obj
 0003:00082b64       ___initenv                 40107b64     LIBCMTD:crt0dat.obj
 0003:00082b68       __wenviron                 40107b68     LIBCMTD:crt0dat.obj
 0003:00082b6c       ___winitenv                40107b6c     LIBCMTD:crt0dat.obj
 0003:00082b70       __pgmptr                   40107b70     LIBCMTD:crt0dat.obj
 0003:00082b74       __wpgmptr                  40107b74     LIBCMTD:crt0dat.obj
 0003:00082b78       __exitflag                 40107b78     LIBCMTD:crt0dat.obj
 0003:00082b7c       __C_Termination_Done       40107b7c     LIBCMTD:crt0dat.obj
 0003:00082b80       __C_Exit_Done              40107b80     LIBCMTD:crt0dat.obj
 0003:00082ba8       __cflush                   40107ba8     LIBCMTD:_file.obj
 0003:00082c1c       ___lc_handle               40107c1c     LIBCMTD:nlsdata2.obj
 0003:00082c34       ___lc_codepage             40107c34     LIBCMTD:nlsdata2.obj
 0003:00082c38       ___lc_collate_cp           40107c38     LIBCMTD:nlsdata2.obj
 0003:00082d5c       __adbgmsg                  40107d5c     LIBCMTD:crt0msg.obj
 0003:00082d64       __stdbuf                   40107d64     LIBCMTD:_sftbuf.obj
 0003:00082d6c       ___lc_time_intl            40107d6c     LIBCMTD:inittime.obj
 0003:00082d88       ___lc_id                   40107d88     LIBCMTD:nlsdata3.obj
 0003:00082dd0       __newmode                  40107dd0     LIBCMTD:_newmode.obj
 0003:00082dd4       ?_pnhHeap@@3P6AHI@ZA       40107dd4     LIBCMTD:handler.obj
 0003:00082de4       ___lconv_static_null       40107de4     LIBCMTD:lconv.obj
 0003:00082eb8       _weaponChangeSound         40107eb8     <common>
 0003:00082ec8       _menu_move_sound           40107ec8     <common>
 0003:00082ecc       _menu_in_sound             40107ecc     <common>
 0003:00082ed0       _menu_out_sound            40107ed0     <common>
 0003:00082ed4       _menu_buzz_sound           40107ed4     <common>
 0003:00082ed8       _menu_null_sound           40107ed8     <common>
 0003:00082ee0       _ui_ctf_capturelimit       40107ee0     <common>
 0003:00083a00       _ui_arenasFile             40108a00     <common>
 0003:00083b20       _ui_botsFile               40108b20     <common>
 0003:00083c40       _ui_drawCrosshairNames     40108c40     <common>
 0003:00083d60       _ui_ctf_friendly           40108d60     <common>
 0003:00083e80       _ui_browserGameType        40108e80     <common>
 0003:00083fa0       _ui_tourney_timelimit      40108fa0     <common>
 0003:000840c0       _ui_marks                  401090c0     <common>
 0003:000841e0       _ui_team_timelimit         401091e0     <common>
 0003:00084300       _ui_spVideos               40109300     <common>
 0003:00084420       _ui_cdkeychecked           40109420     <common>
 0003:00084540       _ui_server10               40109540     <common>
 0003:00084660       _ui_server11               40109660     <common>
 0003:00084780       _ui_server12               40109780     <common>
 0003:000848a0       _ui_server13               401098a0     <common>
 0003:000849c0       _ui_server14               401099c0     <common>
 0003:00084ae0       _ui_server15               40109ae0     <common>
 0003:00084c00       _ui_server16               40109c00     <common>
 0003:00084d20       _ui_spAwards               40109d20     <common>
 0003:00084e40       _ui_browserMaster          40109e40     <common>
 0003:00084f60       _ui_ffa_fraglimit          40109f60     <common>
 0003:00085080       _ui_team_friendly          4010a080     <common>
 0003:000851a0       _ui_spScores1              4010a1a0     <common>
 0003:000852c0       _ui_spScores3              4010a2c0     <common>
 0003:000853e0       _ui_spScores2              4010a3e0     <common>
 0003:00085500       _ui_spScores5              4010a500     <common>
 0003:00085620       _ui_spScores4              4010a620     <common>
 0003:00085740       _ui_spSelection            4010a740     <common>
 0003:00085860       _ui_server4                4010a860     <common>
 0003:00085980       _ui_server3                4010a980     <common>
 0003:00085aa0       _ui_server6                4010aaa0     <common>
 0003:00085bc0       _ui_server5                4010abc0     <common>
 0003:00085ce0       _ui_server2                4010ace0     <common>
 0003:00085e00       _ui_server1                4010ae00     <common>
 0003:00085f20       _ui_server8                4010af20     <common>
 0003:00086040       _ui_server7                4010b040     <common>
 0003:00086160       _ui_server9                4010b160     <common>
 0003:00086280       _ui_ctf_timelimit          4010b280     <common>
 0003:000863a0       _ui_tourney_fraglimit      4010b3a0     <common>
 0003:000864c0       _ui_ffa_timelimit          4010b4c0     <common>
 0003:000865e0       _ui_brassTime              4010b5e0     <common>
 0003:00086700       _ui_team_fraglimit         4010b700     <common>
 0003:00086820       _ui_browserShowFull        4010b820     <common>
 0003:00086940       _ui_drawCrosshair          4010b940     <common>
 0003:00086a60       _ui_browserSortKey         4010ba60     <common>
 0003:00086b80       _ui_spSkill                4010bb80     <common>
 0003:00086ca0       _ui_browserShowEmpty       4010bca0     <common>
 0003:00086db0       _ui_numBots                4010bdb0     <common>
 0003:00086dc0       _passwordField             4010bdc0     <common>
 0003:00086f60       _uis                       4010bf60     <common>
 0003:0008a514       _m_entersound              4010f514     <common>
 0003:0008a518       ___alternate_form          4010f518     <common>
 0003:0008a528       ___no_lead_zeros           4010f528     <common>
 0003:0008a52c       ___mbcodepage              4010f52c     <common>
 0003:0008a5b0       ___mbulinfo                4010f5b0     <common>
 0003:0008a5bc       ___ismbcodepage            4010f5bc     <common>
 0003:0008a5c0       __mbcasemap                4010f5c0     <common>
 0003:0008a6c0       __mbctype                  4010f6c0     <common>
 0003:0008a7c4       ___mblcid                  4010f7c4     <common>
 0003:0008a7c8       ___sbh_sizeHeaderList      4010f7c8     <common>
 0003:0008a7d8       ___sbh_indGroupDefer       4010f7d8     <common>
 0003:0008a7dc       ___sbh_pHeaderScan         4010f7dc     <common>
 0003:0008a7e0       ___sbh_pHeaderDefer        4010f7e0     <common>
 0003:0008a7e4       ___sbh_cntHeaderList       4010f7e4     <common>
 0003:0008a7e8       ___sbh_pHeaderList         4010f7e8     <common>
 0003:0008a7ec       __crtheap                  4010f7ec     <common>
 0003:0008a7f8       __pfnDumpClient            4010f7f8     <common>
 0003:0008a820       ___pioinfo                 4010f820     <common>
 0003:0008a95c       __nhandle                  4010f95c     <common>
 0003:0008a960       ___setlc_active            4010f960     <common>
 0003:0008a970       ___unguarded_readlc_active 4010f970     <common>
 0003:0008a974       ___piob                    4010f974     <common>
 0003:0008acc0       __bufin                    4010fcc0     <common>
 0003:0008bcc0       __nstream                  40110cc0     <common>
 0003:0008bcc4       ___env_initialized         40110cc4     <common>
 0003:0008bcd4       ___mbctype_initialized     40110cd4     <common>
 0003:0008bcd8       ___onexitend               40110cd8     <common>
 0003:0008bcdc       ___onexitbegin             40110cdc     <common>
 0003:0008bce0       __pfnReportHook            40110ce0     <common>
 0003:0008bcec       __acmdln                   40110cec     <common>
 0003:0008bcfc       __pRawDllMain              40110cfc     <common>
 0004:00000000       __IMPORT_DESCRIPTOR_KERNEL32 40111000     kernel32:KERNEL32.dll
 0004:00000014       __NULL_IMPORT_DESCRIPTOR   40111014     kernel32:KERNEL32.dll
 0004:000001b4       __imp__GetModuleFileNameA@12 401111b4     kernel32:KERNEL32.dll
 0004:000001b8       __imp__InterlockedDecrement@4 401111b8     kernel32:KERNEL32.dll
 0004:000001bc       __imp__InterlockedIncrement@4 401111bc     kernel32:KERNEL32.dll
 0004:000001c0       __imp__GetCommandLineA@0   401111c0     kernel32:KERNEL32.dll
 0004:000001c4       __imp__GetVersion@0        401111c4     kernel32:KERNEL32.dll
 0004:000001c8       __imp__DebugBreak@0        401111c8     kernel32:KERNEL32.dll
 0004:000001cc       __imp__GetStdHandle@4      401111cc     kernel32:KERNEL32.dll
 0004:000001d0       __imp__WriteFile@20        401111d0     kernel32:KERNEL32.dll
 0004:000001d4       __imp__OutputDebugStringA@4 401111d4     kernel32:KERNEL32.dll
 0004:000001d8       __imp__GetProcAddress@8    401111d8     kernel32:KERNEL32.dll
 0004:000001dc       __imp__LoadLibraryA@4      401111dc     kernel32:KERNEL32.dll
 0004:000001e0       __imp__GetModuleHandleA@4  401111e0     kernel32:KERNEL32.dll
 0004:000001e4       __imp__ExitProcess@4       401111e4     kernel32:KERNEL32.dll
 0004:000001e8       __imp__TerminateProcess@8  401111e8     kernel32:KERNEL32.dll
 0004:000001ec       __imp__GetCurrentProcess@0 401111ec     kernel32:KERNEL32.dll
 0004:000001f0       __imp__GetLastError@0      401111f0     kernel32:KERNEL32.dll
 0004:000001f4       __imp__SetConsoleCtrlHandler@8 401111f4     kernel32:KERNEL32.dll
 0004:000001f8       __imp__EnterCriticalSection@4 401111f8     kernel32:KERNEL32.dll
 0004:000001fc       __imp__LeaveCriticalSection@4 401111fc     kernel32:KERNEL32.dll
 0004:00000200       __imp__RaiseException@16   40111200     kernel32:KERNEL32.dll
 0004:00000204       __imp__InitializeCriticalSection@4 40111204     kernel32:KERNEL32.dll
 0004:00000208       __imp__DeleteCriticalSection@4 40111208     kernel32:KERNEL32.dll
 0004:0000020c       __imp__FatalAppExitA@8     4011120c     kernel32:KERNEL32.dll
 0004:00000210       __imp__Sleep@4             40111210     kernel32:KERNEL32.dll
 0004:00000214       __imp__WideCharToMultiByte@32 40111214     kernel32:KERNEL32.dll
 0004:00000218       __imp__MultiByteToWideChar@24 40111218     kernel32:KERNEL32.dll
 0004:0000021c       __imp__LCMapStringA@24     4011121c     kernel32:KERNEL32.dll
 0004:00000220       __imp__LCMapStringW@24     40111220     kernel32:KERNEL32.dll
 0004:00000224       __imp__GetCurrentThreadId@0 40111224     kernel32:KERNEL32.dll
 0004:00000228       __imp__TlsSetValue@8       40111228     kernel32:KERNEL32.dll
 0004:0000022c       __imp__TlsAlloc@0          4011122c     kernel32:KERNEL32.dll
 0004:00000230       __imp__TlsFree@4           40111230     kernel32:KERNEL32.dll
 0004:00000234       __imp__SetLastError@4      40111234     kernel32:KERNEL32.dll
 0004:00000238       __imp__TlsGetValue@4       40111238     kernel32:KERNEL32.dll
 0004:0000023c       __imp__GetCurrentThread@0  4011123c     kernel32:KERNEL32.dll
 0004:00000240       __imp__SetHandleCount@4    40111240     kernel32:KERNEL32.dll
 0004:00000244       __imp__GetFileType@4       40111244     kernel32:KERNEL32.dll
 0004:00000248       __imp__GetStartupInfoA@4   40111248     kernel32:KERNEL32.dll
 0004:0000024c       __imp__IsBadWritePtr@8     4011124c     kernel32:KERNEL32.dll
 0004:00000250       __imp__IsBadReadPtr@8      40111250     kernel32:KERNEL32.dll
 0004:00000254       __imp__HeapValidate@12     40111254     kernel32:KERNEL32.dll
 0004:00000258       __imp__FreeEnvironmentStringsA@4 40111258     kernel32:KERNEL32.dll
 0004:0000025c       __imp__FreeEnvironmentStringsW@4 4011125c     kernel32:KERNEL32.dll
 0004:00000260       __imp__GetEnvironmentStrings@0 40111260     kernel32:KERNEL32.dll
 0004:00000264       __imp__GetEnvironmentStringsW@0 40111264     kernel32:KERNEL32.dll
 0004:00000268       __imp__HeapDestroy@4       40111268     kernel32:KERNEL32.dll
 0004:0000026c       __imp__HeapCreate@12       4011126c     kernel32:KERNEL32.dll
 0004:00000270       __imp__HeapFree@12         40111270     kernel32:KERNEL32.dll
 0004:00000274       __imp__VirtualFree@12      40111274     kernel32:KERNEL32.dll
 0004:00000278       __imp__GetStringTypeA@20   40111278     kernel32:KERNEL32.dll
 0004:0000027c       __imp__GetStringTypeW@16   4011127c     kernel32:KERNEL32.dll
 0004:00000280       __imp__UnhandledExceptionFilter@4 40111280     kernel32:KERNEL32.dll
 0004:00000284       __imp__FlushFileBuffers@4  40111284     kernel32:KERNEL32.dll
 0004:00000288       __imp__SetFilePointer@16   40111288     kernel32:KERNEL32.dll
 0004:0000028c       __imp__GetCPInfo@8         4011128c     kernel32:KERNEL32.dll
 0004:00000290       __imp__IsValidLocale@8     40111290     kernel32:KERNEL32.dll
 0004:00000294       __imp__IsValidCodePage@4   40111294     kernel32:KERNEL32.dll
 0004:00000298       __imp__GetLocaleInfoA@16   40111298     kernel32:KERNEL32.dll
 0004:0000029c       __imp__EnumSystemLocalesA@8 4011129c     kernel32:KERNEL32.dll
 0004:000002a0       __imp__GetUserDefaultLCID@0 401112a0     kernel32:KERNEL32.dll
 0004:000002a4       __imp__GetVersionExA@4     401112a4     kernel32:KERNEL32.dll
 0004:000002a8       __imp__RtlUnwind@16        401112a8     kernel32:KERNEL32.dll
 0004:000002ac       __imp__HeapAlloc@12        401112ac     kernel32:KERNEL32.dll
 0004:000002b0       __imp__HeapReAlloc@16      401112b0     kernel32:KERNEL32.dll
 0004:000002b4       __imp__VirtualAlloc@16     401112b4     kernel32:KERNEL32.dll
 0004:000002b8       __imp__GetACP@0            401112b8     kernel32:KERNEL32.dll
 0004:000002bc       __imp__GetOEMCP@0          401112bc     kernel32:KERNEL32.dll
 0004:000002c0       __imp__SetStdHandle@8      401112c0     kernel32:KERNEL32.dll
 0004:000002c4       __imp__CloseHandle@4       401112c4     kernel32:KERNEL32.dll
 0004:000002c8       __imp__GetTimeZoneInformation@4 401112c8     kernel32:KERNEL32.dll
 0004:000002cc       __imp__GetLocaleInfoW@16   401112cc     kernel32:KERNEL32.dll
 0004:000002d0       __imp__CompareStringA@24   401112d0     kernel32:KERNEL32.dll
 0004:000002d4       __imp__CompareStringW@24   401112d4     kernel32:KERNEL32.dll
 0004:000002d8       __imp__SetEnvironmentVariableA@8 401112d8     kernel32:KERNEL32.dll
 0004:000002dc       \177KERNEL32_NULL_THUNK_DATA 401112dc     kernel32:KERNEL32.dll

 entry point at        0001:000386c0

