 qagamex86

 Timestamp is 58c96163 (Wed Mar 15 11:44:35 2017)

 Preferred load address is 20000000

 Start         Length     Name                   Class
 0001:00000000 00080ee1H .text                   CODE
 0001:00080ee1 0003bb0fH .textbss                CODE
 0002:00000000 00009bf3H .rdata                  DATA
 0002:00009c00 0000016cH .edata                  DATA
 0003:00000000 00000104H .CRT$XCA                DATA
 0003:00000104 00000104H .CRT$XCZ                DATA
 0003:00000208 00000104H .CRT$XIA                DATA
 0003:0000030c 00000109H .CRT$XIC                DATA
 0003:00000418 00000104H .CRT$XIZ                DATA
 0003:0000051c 00000104H .CRT$XPA                DATA
 0003:00000620 00000104H .CRT$XPX                DATA
 0003:00000724 00000104H .CRT$XPZ                DATA
 0003:00000828 00000104H .CRT$XTA                DATA
 0003:0000092c 00000104H .CRT$XTZ                DATA
 0003:00000a30 0000417bH .data                   DATA
 0003:00004bb0 00194f24H .bss                    DATA
 0004:00000000 00000014H .idata$2                DATA
 0004:00000014 00000014H .idata$3                DATA
 0004:00000028 00000194H .idata$4                DATA
 0004:000001bc 00000194H .idata$5                DATA
 0004:00000350 000006d5H .idata$6                DATA

  Address         Publics by Value              Rva+Base     Lib:Object

 0001:00002630       _BotNumActivePlayers       20003630 f   ai_chat.obj
 0001:00002760       _BotIsFirstInRankings      20003760 f   ai_chat.obj
 0001:000028b0       _BotIsLastInRankings       200038b0 f   ai_chat.obj
 0001:00002a00       _BotFirstClientInRankings  20003a00 f   ai_chat.obj
 0001:00002b80       _BotLastClientInRankings   20003b80 f   ai_chat.obj
 0001:00002d00       _BotRandomOpponentName     20003d00 f   ai_chat.obj
 0001:00002f40       _BotMapTitle               20003f40 f   ai_chat.obj
 0001:00002fb0       _BotWeaponNameForMeansOfDeath 20003fb0 f   ai_chat.obj
 0001:000030b0       _BotRandomWeaponName       200040b0 f   ai_chat.obj
 0001:00003180       _BotVisibleEnemies         20004180 f   ai_chat.obj
 0001:000032d0       _BotValidChatPosition      200042d0 f   ai_chat.obj
 0001:00003500       _BotChat_EnterGame         20004500 f   ai_chat.obj
 0001:00003690       _BotChat_ExitGame          20004690 f   ai_chat.obj
 0001:00003800       _BotChat_StartLevel        20004800 f   ai_chat.obj
 0001:00003980       _BotChat_EndLevel          20004980 f   ai_chat.obj
 0001:00003c30       _BotChat_Death             20004c30 f   ai_chat.obj
 0001:000041e0       _BotChat_Kill              200051e0 f   ai_chat.obj
 0001:00004510       _BotChat_EnemySuicide      20005510 f   ai_chat.obj
 0001:000046d0       _BotChat_HitTalking        200056d0 f   ai_chat.obj
 0001:00004900       _BotChat_HitNoDeath        20005900 f   ai_chat.obj
 0001:00004b70       _BotChat_HitNoKill         20005b70 f   ai_chat.obj
 0001:00004d90       _BotChat_Random            20005d90 f   ai_chat.obj
 0001:00005100       _BotChatTime               20006100 f   ai_chat.obj
 0001:00005150       _BotChatTest               20006150 f   ai_chat.obj
 0001:00006200       _BotPrintTeamGoal          20007200 f   ai_cmd.obj
 0001:000064b0       _BotGetItemTeamGoal        200074b0 f   ai_cmd.obj
 0001:00006530       _BotGetMessageTeamGoal     20007530 f   ai_cmd.obj
 0001:000065c0       _BotGetTime                200075c0 f   ai_cmd.obj
 0001:00006740       _FindClientByName          20007740 f   ai_cmd.obj
 0001:00006860       _FindEnemyByName           20007860 f   ai_cmd.obj
 0001:000069c0       _NumPlayersOnSameTeam      200079c0 f   ai_cmd.obj
 0001:00006aa0       _BotGetPatrolWaypoints     20007aa0 f   ai_cmd.obj
 0001:00006e00       _BotAddressedToBot         20007e00 f   ai_cmd.obj
 0001:00007130       _BotGPSToPosition          20008130 f   ai_cmd.obj
 0001:00007280       _BotMatch_HelpAccompany    20008280 f   ai_cmd.obj
 0001:00007840       _BotMatch_DefendKeyArea    20008840 f   ai_cmd.obj
 0001:00007a20       _BotMatch_GetItem          20008a20 f   ai_cmd.obj
 0001:00007bb0       _BotMatch_Camp             20008bb0 f   ai_cmd.obj
 0001:00008080       _BotMatch_Patrol           20009080 f   ai_cmd.obj
 0001:00008220       _BotMatch_GetFlag          20009220 f   ai_cmd.obj
 0001:000083c0       _BotMatch_AttackEnemyBase  200093c0 f   ai_cmd.obj
 0001:00008530       _BotMatch_RushBase         20009530 f   ai_cmd.obj
 0001:000086a0       _BotMatch_TaskPreference   200096a0 f   ai_cmd.obj
 0001:000088c0       _BotMatch_ReturnFlag       200098c0 f   ai_cmd.obj
 0001:00008a10       _BotMatch_JoinSubteam      20009a10 f   ai_cmd.obj
 0001:00008b30       _BotMatch_LeaveSubteam     20009b30 f   ai_cmd.obj
 0001:00008c30       _BotMatch_WhichTeam        20009c30 f   ai_cmd.obj
 0001:00008cf0       _BotMatch_CheckPoint       20009cf0 f   ai_cmd.obj
 0001:00009060       _BotMatch_FormationSpace   2000a060 f   ai_cmd.obj
 0001:00009180       _BotMatch_Dismiss          2000a180 f   ai_cmd.obj
 0001:00009280       _BotMatch_Suicide          2000a280 f   ai_cmd.obj
 0001:00009350       _BotMatch_StartTeamLeaderShip 2000a350 f   ai_cmd.obj
 0001:00009440       _BotMatch_StopTeamLeaderShip 2000a440 f   ai_cmd.obj
 0001:00009550       _BotMatch_WhoIsTeamLeader  2000a550 f   ai_cmd.obj
 0001:000095e0       _BotMatch_WhatAreYouDoing  2000a5e0 f   ai_cmd.obj
 0001:00009910       _BotMatch_WhatIsMyCommand  2000a910 f   ai_cmd.obj
 0001:00009970       _BotNearestVisibleItem     2000a970 f   ai_cmd.obj
 0001:00009b40       _BotMatch_WhereAreYou      2000ab40 f   ai_cmd.obj
 0001:00009ed0       _BotMatch_LeadTheWay       2000aed0 f   ai_cmd.obj
 0001:0000a270       _BotMatch_Kill             2000b270 f   ai_cmd.obj
 0001:0000a420       _BotMatch_CTF              2000b420 f   ai_cmd.obj
 0001:0000a650       _BotMatch_EnterGame        2000b650 f   ai_cmd.obj
 0001:0000a6b0       _BotMatch_NewLeader        2000b6b0 f   ai_cmd.obj
 0001:0000a730       _BotMatchMessage           2000b730 f   ai_cmd.obj
 0001:0000ac00       _BotResetNodeSwitches      2000bc00 f   ai_dmnet.obj
 0001:0000ac20       _BotDumpNodeSwitches       2000bc20 f   ai_dmnet.obj
 0001:0000acd0       _BotRecordNodeSwitch       2000bcd0 f   ai_dmnet.obj
 0001:0000ad90       _BotGetAirGoal             2000bd90 f   ai_dmnet.obj
 0001:0000afa0       _BotGoForAir               2000bfa0 f   ai_dmnet.obj
 0001:0000b0d0       _BotNearbyGoal             2000c0d0 f   ai_dmnet.obj
 0001:0000b1c0       _BotReachedGoal            2000c1c0 f   ai_dmnet.obj
 0001:0000b3f0       _BotGetItemLongTermGoal    2000c3f0 f   ai_dmnet.obj
 0001:0000b550       _BotGetLongTermGoal        2000c550 f   ai_dmnet.obj
 0001:0000db00       _BotLongTermGoal           2000eb00 f   ai_dmnet.obj
 0001:0000e150       _AIEnter_Intermission      2000f150 f   ai_dmnet.obj
 0001:0000e1e0       _AINode_Intermission       2000f1e0 f   ai_dmnet.obj
 0001:0000e280       _AIEnter_Observer          2000f280 f   ai_dmnet.obj
 0001:0000e2e0       _AINode_Observer           2000f2e0 f   ai_dmnet.obj
 0001:0000e330       _AIEnter_Stand             2000f330 f   ai_dmnet.obj
 0001:0000e390       _AINode_Stand              2000f390 f   ai_dmnet.obj
 0001:0000e500       _AIEnter_Respawn           2000f500 f   ai_dmnet.obj
 0001:0000e650       _AINode_Respawn            2000f650 f   ai_dmnet.obj
 0001:0000e7a0       _BotSelectActivateWeapon   2000f7a0 f   ai_dmnet.obj
 0001:0000e8d0       _BotClearPath              2000f8d0 f   ai_dmnet.obj
 0001:0000ee60       _AIEnter_Seek_ActivateEntity 2000fe60 f   ai_dmnet.obj
 0001:0000eeb0       _AINode_Seek_ActivateEntity 2000feb0 f   ai_dmnet.obj
 0001:0000f8c0       _AIEnter_Seek_NBG          200108c0 f   ai_dmnet.obj
 0001:0000f970       _AINode_Seek_NBG           20010970 f   ai_dmnet.obj
 0001:0000ff50       _AIEnter_Seek_LTG          20010f50 f   ai_dmnet.obj
 0001:00010000       _AINode_Seek_LTG           20011000 f   ai_dmnet.obj
 0001:00010810       _AIEnter_Battle_Fight      20011810 f   ai_dmnet.obj
 0001:00010870       _AIEnter_Battle_SuicidalFight 20011870 f   ai_dmnet.obj
 0001:000108f0       _AINode_Battle_Fight       200118f0 f   ai_dmnet.obj
 0001:00010f90       _AIEnter_Battle_Chase      20011f90 f   ai_dmnet.obj
 0001:00010ff0       _AINode_Battle_Chase       20011ff0 f   ai_dmnet.obj
 0001:000116a0       _AIEnter_Battle_Retreat    200126a0 f   ai_dmnet.obj
 0001:000116f0       _AINode_Battle_Retreat     200126f0 f   ai_dmnet.obj
 0001:00011ed0       _AIEnter_Battle_NBG        20012ed0 f   ai_dmnet.obj
 0001:00011f20       _AINode_Battle_NBG         20012f20 f   ai_dmnet.obj
 0001:00012590       _BotSetUserInfo            20013590 f   ai_dmq3.obj
 0001:00012620       _BotCTFCarryingFlag        20013620 f   ai_dmq3.obj
 0001:00012680       _BotTeam                   20013680 f   ai_dmq3.obj
 0001:00012750       _BotOppositeTeam           20013750 f   ai_dmq3.obj
 0001:000127a0       _BotEnemyFlag              200137a0 f   ai_dmq3.obj
 0001:000127e0       _BotTeamFlag               200137e0 f   ai_dmq3.obj
 0001:00012820       _EntityIsDead              20013820 f   ai_dmq3.obj
 0001:00012880       _EntityCarriesFlag         20013880 f   ai_dmq3.obj
 0001:000128d0       _EntityIsInvisible         200138d0 f   ai_dmq3.obj
 0001:00012920       _EntityIsShooting          20013920 f   ai_dmq3.obj
 0001:00012960       _EntityIsChatting          20013960 f   ai_dmq3.obj
 0001:000129a0       _EntityHasQuad             200139a0 f   ai_dmq3.obj
 0001:000129d0       _BotRememberLastOrderedTask 200139d0 f   ai_dmq3.obj
 0001:00012a60       _BotSetTeamStatus          20013a60 f   ai_dmq3.obj
 0001:00012a80       _BotSetLastOrderedTask     20013a80 f   ai_dmq3.obj
 0001:00012cb0       _BotRefuseOrder            20013cb0 f   ai_dmq3.obj
 0001:00012d60       _BotCTFSeekGoals           20013d60 f   ai_dmq3.obj
 0001:00013b60       _BotCTFRetreatGoals        20014b60 f   ai_dmq3.obj
 0001:00013c20       _BotTeamGoals              20014c20 f   ai_dmq3.obj
 0001:00013c90       _BotPointAreaNum           20014c90 f   ai_dmq3.obj
 0001:00013d30       _ClientName                20014d30 f   ai_dmq3.obj
 0001:00013df0       _ClientSkin                20014df0 f   ai_dmq3.obj
 0001:00013ea0       _ClientFromName            20014ea0 f   ai_dmq3.obj
 0001:00013f80       _ClientOnSameTeamFromName  20014f80 f   ai_dmq3.obj
 0001:00014080       _stristr                   20015080 f   ai_dmq3.obj
 0001:00014140       _EasyClientName            20015140 f   ai_dmq3.obj
 0001:00014480       _BotSynonymContext         20015480 f   ai_dmq3.obj
 0001:000144e0       _BotChooseWeapon           200154e0 f   ai_dmq3.obj
 0001:000145b0       _BotSetupForMovement       200155b0 f   ai_dmq3.obj
 0001:00014770       _BotCheckItemPickup        20015770 f   ai_dmq3.obj
 0001:00014790       _BotUpdateInventory        20015790 f   ai_dmq3.obj
 0001:00014b50       _BotUpdateBattleInventory  20015b50 f   ai_dmq3.obj
 0001:00014c00       _BotBattleUseItems         20015c00 f   ai_dmq3.obj
 0001:00014c90       _BotSetTeleportTime        20015c90 f   ai_dmq3.obj
 0001:00014cf0       _BotIsDead                 20015cf0 f   ai_dmq3.obj
 0001:00014d20       _BotIsObserver             20015d20 f   ai_dmq3.obj
 0001:00014db0       _BotIntermission           20015db0 f   ai_dmq3.obj
 0001:00014e10       _BotInLavaOrSlime          20015e10 f   ai_dmq3.obj
 0001:00014e80       _BotCreateWayPoint         20015e80 f   ai_dmq3.obj
 0001:00014fc0       _BotFindWayPoint           20015fc0 f   ai_dmq3.obj
 0001:00015020       _BotFreeWaypoints          20016020 f   ai_dmq3.obj
 0001:00015070       _BotInitWaypoints          20016070 f   ai_dmq3.obj
 0001:000150e0       _TeamPlayIsOn              200160e0 f   ai_dmq3.obj
 0001:00015110       _BotAggression             20016110 f   ai_dmq3.obj
 0001:00015300       _BotFeelingBad             20016300 f   ai_dmq3.obj
 0001:00015380       _BotWantsToRetreat         20016380 f   ai_dmq3.obj
 0001:00015450       _BotWantsToChase           20016450 f   ai_dmq3.obj
 0001:00015510       _BotWantsToHelp            20016510 f   ai_dmq3.obj
 0001:00015530       _BotCanAndWantsToRocketJump 20016530 f   ai_dmq3.obj
 0001:00015610       _BotHasPersistantPowerupAndWeapon 20016610 f   ai_dmq3.obj
 0001:000157b0       _BotGoCamp                 200167b0 f   ai_dmq3.obj
 0001:000158f0       _BotWantsToCamp            200168f0 f   ai_dmq3.obj
 0001:00015bc0       _BotDontAvoid              20016bc0 f   ai_dmq3.obj
 0001:00015c30       _BotGoForPowerups          20016c30 f   ai_dmq3.obj
 0001:00015cc0       _BotRoamGoal               20016cc0 f   ai_dmq3.obj
 0001:00016100       _BotAttackMove             20017100 f   ai_dmq3.obj
 0001:000169c0       _BotSameTeam               200179c0 f   ai_dmq3.obj
 0001:00016ad0       _InFieldOfVision           20017ad0 f   ai_dmq3.obj
 0001:00016c20       _BotEntityVisible          20017c20 f   ai_dmq3.obj
 0001:000172f0       _BotFindEnemy              200182f0 f   ai_dmq3.obj
 0001:00017940       _BotTeamFlagCarrierVisible 20018940 f   ai_dmq3.obj
 0001:00017a60       _BotTeamFlagCarrier        20018a60 f   ai_dmq3.obj
 0001:00017b20       _BotEnemyFlagCarrierVisible 20018b20 f   ai_dmq3.obj
 0001:00017c40       _BotVisibleTeamMatesAndEnemies 20018c40 f   ai_dmq3.obj
 0001:00017e20       _BotAimAtEnemy             20018e20 f   ai_dmq3.obj
 0001:00019460       _BotCheckAttack            2001a460 f   ai_dmq3.obj
 0001:00019b20       _BotMapScripts             2001ab20 f   ai_dmq3.obj
 0001:0001a0a0       _BotSetMovedir             2001b0a0 f   ai_dmq3.obj
 0001:0001a1d0       _BotModelMinsMaxs          2001b1d0 f   ai_dmq3.obj
 0001:0001a3b0       _BotFuncButtonActivateGoal 2001b3b0 f   ai_dmq3.obj
 0001:0001b270       _BotFuncDoorActivateGoal   2001c270 f   ai_dmq3.obj
 0001:0001b4c0       _BotTriggerMultipleActivateGoal 2001c4c0 f   ai_dmq3.obj
 0001:0001b870       _BotPopFromActivateGoalStack 2001c870 f   ai_dmq3.obj
 0001:0001b900       _BotPushOntoActivateGoalStack 2001c900 f   ai_dmq3.obj
 0001:0001ba60       _BotClearActivateGoalStack 2001ca60 f   ai_dmq3.obj
 0001:0001baa0       _BotEnableActivateGoalAreas 2001caa0 f   ai_dmq3.obj
 0001:0001bb30       _BotIsGoingToActivateEntity 2001cb30 f   ai_dmq3.obj
 0001:0001bc40       _BotGetActivateGoal        2001cc40 f   ai_dmq3.obj
 0001:0001c700       _BotGoForActivateGoal      2001d700 f   ai_dmq3.obj
 0001:0001c7f0       _BotPrintActivateGoalInfo  2001d7f0 f   ai_dmq3.obj
 0001:0001c940       _BotRandomMove             2001d940 f   ai_dmq3.obj
 0001:0001ca00       _BotAIBlocked              2001da00 f   ai_dmq3.obj
 0001:0001ce90       _BotAIPredictObstacles     2001de90 f   ai_dmq3.obj
 0001:0001d0b0       _BotCheckConsoleMessages   2001e0b0 f   ai_dmq3.obj
 0001:0001d610       _BotCheckForGrenades       2001e610 f   ai_dmq3.obj
 0001:0001d670       _BotCheckEvents            2001e670 f   ai_dmq3.obj
 0001:0001dc20       _BotCheckSnapshot          2001ec20 f   ai_dmq3.obj
 0001:0001dd40       _BotCheckAir               2001ed40 f   ai_dmq3.obj
 0001:0001dda0       _BotAlternateRoute         2001eda0 f   ai_dmq3.obj
 0001:0001de80       _BotGetAlternateRouteGoal  2001ee80 f   ai_dmq3.obj
 0001:0001e020       _BotSetupAlternativeRouteGoals 2001f020 f   ai_dmq3.obj
 0001:0001e050       _BotDeathmatchAI           2001f050 f   ai_dmq3.obj
 0001:0001e520       _BotSetEntityNumForGoalWithModel 2001f520 f   ai_dmq3.obj
 0001:0001e630       _BotSetEntityNumForGoal    2001f630 f   ai_dmq3.obj
 0001:0001e720       _BotGoalForBSPEntity       2001f720 f   ai_dmq3.obj
 0001:0001e930       _BotSetupDeathmatchAI      2001f930 f   ai_dmq3.obj
 0001:0001eb90       _BotShutdownDeathmatchAI   2001fb90 f   ai_dmq3.obj
 0001:0001ebb0       _BotAI_Print               2001fbb0 f   ai_main.obj
 0001:0001ecf0       _BotAI_Trace               2001fcf0 f   ai_main.obj
 0001:0001ee00       _BotAI_GetClientState      2001fe00 f   ai_main.obj
 0001:0001ee80       _BotAI_GetEntityState      2001fe80 f   ai_main.obj
 0001:0001ef30       _BotAI_GetSnapshotEntity   2001ff30 f   ai_main.obj
 0001:0001efa0       _BotAI_BotInitialChat      2001ffa0 f   ai_main.obj
 0001:0001f0a0       _BotTestAAS                200200a0 f   ai_main.obj
 0001:0001f1b0       _BotReportStatus           200201b0 f   ai_main.obj
 0001:0001f6b0       _BotTeamplayReport         200206b0 f   ai_main.obj
 0001:0001f910       _BotSetInfoConfigString    20020910 f   ai_main.obj
 0001:0001fdc0       _BotUpdateInfoConfigStrings 20020dc0 f   ai_main.obj
 0001:0001fec0       _BotInterbreedBots         20020ec0 f   ai_main.obj
 0001:000200f0       _BotWriteInterbreeded      200210f0 f   ai_main.obj
 0001:000201f0       _BotInterbreedEndMatch     200211f0 f   ai_main.obj
 0001:000202a0       _BotInterbreeding          200212a0 f   ai_main.obj
 0001:00020420       _BotEntityInfo             20021420 f   ai_main.obj
 0001:00020450       _NumBots                   20021450 f   ai_main.obj
 0001:00020470       _BotTeamLeader             20021470 f   ai_main.obj
 0001:000204e0       _AngleDifference           200214e0 f   ai_main.obj
 0001:00020560       _BotChangeViewAngle        20021560 f   ai_main.obj
 0001:00020680       _BotChangeViewAngles       20021680 f   ai_main.obj
 0001:00020ab0       _BotInputToUserCommand     20021ab0 f   ai_main.obj
 0001:00020fc0       _BotUpdateInput            20021fc0 f   ai_main.obj
 0001:00021150       _BotAIRegularUpdate        20022150 f   ai_main.obj
 0001:000211a0       _RemoveColorEscapeSequences 200221a0 f   ai_main.obj
 0001:00021280       _BotAI                     20022280 f   ai_main.obj
 0001:00021800       _BotScheduleBotThink       20022800 f   ai_main.obj
 0001:000218a0       _BotWriteSessionData       200228a0 f   ai_main.obj
 0001:00021a10       _BotReadSessionData        20022a10 f   ai_main.obj
 0001:00021b60       _BotAISetupClient          20022b60 f   ai_main.obj
 0001:00022110       _BotAIShutdownClient       20023110 f   ai_main.obj
 0001:00022290       _BotResetState             20023290 f   ai_main.obj
 0001:00022540       _BotAILoadMap              20023540 f   ai_main.obj
 0001:00022620       _BotAIStartFrame           20023620 f   ai_main.obj
 0001:00022e60       _BotInitLibrary            20023e60 f   ai_main.obj
 0001:00023440       _BotAISetup                20024440 f   ai_main.obj
 0001:00023630       _BotAIShutdown             20024630 f   ai_main.obj
 0001:000236c0       _BotValidTeamLeader        200246c0 f   ai_team.obj
 0001:00023720       _BotNumTeamMates           20024720 f   ai_team.obj
 0001:00023860       _BotClientTravelTimeToGoal 20024860 f   ai_team.obj
 0001:000238f0       _BotSortTeamMatesByBaseTravelTime 200248f0 f   ai_team.obj
 0001:00023b60       _BotSetTeamMateTaskPreference 20024b60 f   ai_team.obj
 0001:00023bc0       _BotGetTeamMateTaskPreference 20024bc0 f   ai_team.obj
 0001:00023c40       _BotSortTeamMatesByTaskPreference 20024c40 f   ai_team.obj
 0001:00023e60       _BotSayTeamOrderAlways     20024e60 f   ai_team.obj
 0001:00023f40       _BotSayTeamOrder           20024f40 f   ai_team.obj
 0001:00023f70       _BotVoiceChat              20024f70 f   ai_team.obj
 0001:00023f90       _BotVoiceChatOnly          20024f90 f   ai_team.obj
 0001:00023fb0       _BotSayVoiceTeamOrder      20024fb0 f   ai_team.obj
 0001:00023fd0       _BotCTFOrders_BothFlagsNotAtBase 20024fd0 f   ai_team.obj
 0001:000246b0       _BotCTFOrders_FlagNotAtBase 200256b0 f   ai_team.obj
 0001:00025010       _BotCTFOrders_EnemyFlagNotAtBase 20026010 f   ai_team.obj
 0001:00025620       _BotCTFOrders_BothFlagsAtBase 20026620 f   ai_team.obj
 0001:00025f80       _BotCTFOrders              20026f80 f   ai_team.obj
 0001:00026060       _BotCreateGroup            20027060 f   ai_team.obj
 0001:00026150       _BotTeamOrders             20027150 f   ai_team.obj
 0001:00026440       _FindHumanTeamLeader       20027440 f   ai_team.obj
 0001:00026530       _BotTeamAI                 20027530 f   ai_team.obj
 0001:00026ae0       _BotVoiceChat_GetFlag      20027ae0 f   ai_vcmd.obj
 0001:00026c10       _BotVoiceChat_Offense      20027c10 f   ai_vcmd.obj
 0001:00026d20       _BotVoiceChat_Defend       20027d20 f   ai_vcmd.obj
 0001:00026e80       _BotVoiceChat_DefendFlag   20027e80 f   ai_vcmd.obj
 0001:00026eb0       _BotVoiceChat_Patrol       20027eb0 f   ai_vcmd.obj
 0001:00026f70       _BotVoiceChat_Camp         20027f70 f   ai_vcmd.obj
 0001:000271e0       _BotVoiceChat_FollowMe     200281e0 f   ai_vcmd.obj
 0001:00027470       _BotVoiceChat_FollowFlagCarrier 20028470 f   ai_vcmd.obj
 0001:000274d0       _BotVoiceChat_ReturnFlag   200284d0 f   ai_vcmd.obj
 0001:000275c0       _BotVoiceChat_StartLeader  200285c0 f   ai_vcmd.obj
 0001:000275f0       _BotVoiceChat_StopLeader   200285f0 f   ai_vcmd.obj
 0001:00027660       _BotVoiceChat_WhoIsLeader  20028660 f   ai_vcmd.obj
 0001:00027720       _BotVoiceChat_WantOnDefense 20028720 f   ai_vcmd.obj
 0001:00027800       _BotVoiceChat_WantOnOffense 20028800 f   ai_vcmd.obj
 0001:000278e0       _BotVoiceChat_Dummy        200288e0 f   ai_vcmd.obj
 0001:00027900       _BotVoiceChatCommand       20028900 f   ai_vcmd.obj
 0001:00027bd0       _BG_FindItemForPowerup     20028bd0 f   bg_misc.obj
 0001:00027c70       _BG_FindItemForHoldable    20028c70 f   bg_misc.obj
 0001:00027d00       _BG_FindItemForWeapon      20028d00 f   bg_misc.obj
 0001:00027d70       _BG_FindItem               20028d70 f   bg_misc.obj
 0001:00027dd0       _BG_PlayerTouchesItem      20028dd0 f   bg_misc.obj
 0001:00027ec0       _BG_CanItemBeGrabbed       20028ec0 f   bg_misc.obj
 0001:00028180       _BG_EvaluateTrajectory     20029180 f   bg_misc.obj
 0001:00028470       _BG_EvaluateTrajectoryDelta 20029470 f   bg_misc.obj
 0001:000286a0       _BG_AddPredictableEventToPlayerstate 200296a0 f   bg_misc.obj
 0001:00028780       _BG_TouchJumpPad           20029780 f   bg_misc.obj
 0001:000287a0       _BG_PlayerStateToEntityState 200297a0 f   bg_misc.obj
 0001:00028c40       _BG_PlayerStateToEntityStateExtraPolate 20029c40 f   bg_misc.obj
 0001:000290f0       _Inv_GetVectorFromStat     2002a0f0 f   bg_pmove.obj
 0001:000291d0       _Inv_QuatNormalize         2002a1d0 f   bg_pmove.obj
 0001:000292a0       _Inv_GetQuatFromStat       2002a2a0 f   bg_pmove.obj
 0001:000293b0       _Inv_MatrixToAngles        2002a3b0 f   bg_pmove.obj
 0001:000296e0       _Inv_AxisToQuat            2002a6e0 f   bg_pmove.obj
 0001:000297c0       _Inv_GetQuatMaxDelta       2002a7c0 f   bg_pmove.obj
 0001:00029840       _Inv_GetInvertAxis         2002a840 f   bg_pmove.obj
 0001:000298e0       _Inv_MulQuat               2002a8e0 f   bg_pmove.obj
 0001:00029a30       _Inv_FinbBestInvertAxisForQuat 2002aa30 f   bg_pmove.obj
 0001:00029bd0       _Inv_QuatToMatrix          2002abd0 f   bg_pmove.obj
 0001:00029dd0       _Inv_QuatMultiply          2002add0 f   bg_pmove.obj
 0001:00029e50       _Inv_GetAngleDiff          2002ae50 f   bg_pmove.obj
 0001:0002a020       _Inv_ComputeDynYaw         2002b020 f   bg_pmove.obj
 0001:0002a2c0       _Inv_QuatIntToStat         2002b2c0 f   bg_pmove.obj
 0001:0002a330       _Inv_FinishDynYaw          2002b330 f   bg_pmove.obj
 0001:0002a3d0       _Inv_QuatToInt             2002b3d0 f   bg_pmove.obj
 0001:0002a430       _Inv_ApplyGravityRotation  2002b430 f   bg_pmove.obj
 0001:0002ae00       _Inv_RemoveGravityComponent 2002be00 f   bg_pmove.obj
 0001:0002aea0       _PM_AddEvent               2002bea0 f   bg_pmove.obj
 0001:0002aed0       _PM_AddEventParm           2002bed0 f   bg_pmove.obj
 0001:0002af10       _PM_AddTouchEnt            2002bf10 f   bg_pmove.obj
 0001:0002afc0       _PM_ClipVelocity           2002bfc0 f   bg_pmove.obj
 0001:0002b080       _PM_UpdateViewAngles       2002c080 f   bg_pmove.obj
 0001:0002b1c0       _PmoveSingle               2002c1c0 f   bg_pmove.obj
 0001:000317d0       _Pmove                     200327d0 f   bg_pmove.obj
 0001:00031900       _PM_SlideMove              20032900 f   bg_slidemove.obj
 0001:00032460       _PM_StepSlideMove          20033460 f   bg_slidemove.obj
 0001:00032b90       _P_DamageFeedback          20033b90 f   g_active.obj
 0001:00032d90       _P_WorldEffects            20033d90 f   g_active.obj
 0001:000330e0       _G_SetClientSound          200340e0 f   g_active.obj
 0001:00033150       _ClientImpacts             20034150 f   g_active.obj
 0001:00033290       _G_TouchTriggers           20034290 f   g_active.obj
 0001:000336d0       _SpectatorThink            200346d0 f   g_active.obj
 0001:00033870       _ClientInactivityTimer     20034870 f   g_active.obj
 0001:00033a00       _ClientTimerActions        20034a00 f   g_active.obj
 0001:00033c60       _ClientIntermissionThink   20034c60 f   g_active.obj
 0001:00033d10       _ClientEvents              20034d10 f   g_active.obj
 0001:00034030       _SendPendingPredictableEvents 20035030 f   g_active.obj
 0001:00034180       _ClientThink_real          20035180 f   g_active.obj
 0001:00034a90       _ClientThink               20035a90 f   g_active.obj
 0001:00034b30       _G_RunClient               20035b30 f   g_active.obj
 0001:00034b90       _G_ProxyTouch              20035b90 f   g_active.obj
 0001:00035300       _G_BouncePlayerProxy       20036300 f   g_active.obj
 0001:000355b0       _G_RunPlayerProxy          200365b0 f   g_active.obj
 0001:00035740       _SpectatorClientEndFrame   20036740 f   g_active.obj
 0001:00035920       _ClientEndFrame            20036920 f   g_active.obj
 0001:00035af0       _UpdateTournamentInfo      20036af0 f   g_arenas.obj
 0001:00035e30       _SpawnModelsOnVictoryPads  20036e30 f   g_arenas.obj
 0001:00036cf0       _Svcmd_AbortPodium_f       20037cf0 f   g_arenas.obj
 0001:00036d50       _trap_Cvar_VariableValue   20037d50 f   g_bot.obj
 0001:00036da0       _G_ParseInfos              20037da0 f   g_bot.obj
 0001:00036fe0       _G_GetArenaInfoByMap       20037fe0 f   g_bot.obj
 0001:00037060       _G_AddRandomBot            20038060 f   g_bot.obj
 0001:000373b0       _G_RemoveRandomBot         200383b0 f   g_bot.obj
 0001:000374b0       _G_CountHumanPlayers       200384b0 f   g_bot.obj
 0001:00037570       _G_CountBotPlayers         20038570 f   g_bot.obj
 0001:00037690       _G_CheckMinimumPlayers     20038690 f   g_bot.obj
 0001:00037930       _G_CheckBotSpawn           20038930 f   g_bot.obj
 0001:00037ae0       _G_RemoveQueuedBotBegin    20038ae0 f   g_bot.obj
 0001:00037b40       _G_BotConnect              20038b40 f   g_bot.obj
 0001:00037c50       _Svcmd_AddBot_f            20038c50 f   g_bot.obj
 0001:00038490       _Svcmd_BotList_f           20039490 f   g_bot.obj
 0001:00038690       _G_GetBotInfoByNumber      20039690 f   g_bot.obj
 0001:000386f0       _G_GetBotInfoByName        200396f0 f   g_bot.obj
 0001:00038780       _G_InitBots                20039780 f   g_bot.obj
 0001:00039190       _SP_info_player_deathmatch 2003a190 f   g_client.obj
 0001:00039220       _SP_info_player_start      2003a220 f   g_client.obj
 0001:00039260       _SP_info_player_intermission 2003a260 f   g_client.obj
 0001:00039280       _SpotWouldTelefrag         2003a280 f   g_client.obj
 0001:000393c0       _SelectNearestDeathmatchSpawnPoint 2003a3c0 f   g_client.obj
 0001:000394e0       _SelectRandomDeathmatchSpawnPoint 2003a4e0 f   g_client.obj
 0001:000395b0       _SelectRandomFurthestSpawnPoint 2003a5b0 f   g_client.obj
 0001:000399e0       _SelectSpawnPoint          2003a9e0 f   g_client.obj
 0001:00039a10       _SelectInitialSpawnPoint   2003aa10 f   g_client.obj
 0001:00039b20       _SelectSpectatorSpawnPoint 2003ab20 f   g_client.obj
 0001:00039ba0       _InitBodyQue               2003aba0 f   g_client.obj
 0001:00039c20       _BodySink                  2003ac20 f   g_client.obj
 0001:00039ca0       _CopyToBodyQue             2003aca0 f   g_client.obj
 0001:0003a100       _SetClientViewAngle        2003b100 f   g_client.obj
 0001:0003a210       _respawn                   2003b210 f   g_client.obj
 0001:0003a280       _TeamCount                 2003b280 f   g_client.obj
 0001:0003a330       _TeamLeader                2003b330 f   g_client.obj
 0001:0003a3e0       _PickTeam                  2003b3e0 f   g_client.obj
 0001:0003a470       _ClientUserinfoChanged     2003b470 f   g_client.obj
 0001:0003ade0       _ClientConnect             2003bde0 f   g_client.obj
 0001:0003b0a0       _ClientBegin               2003c0a0 f   g_client.obj
 0001:0003b250       _ClientSpawn               2003c250 f   g_client.obj
 0001:0003bb50       _ClientDisconnect          2003cb50 f   g_client.obj
 0001:0003be20       _DeathmatchScoreboardMessage 2003ce20 f   g_cmds.obj
 0001:0003c1a0       _Cmd_Score_f               2003d1a0 f   g_cmds.obj
 0001:0003c1d0       _CheatsOk                  2003d1d0 f   g_cmds.obj
 0001:0003c270       _ConcatArgs                2003d270 f   g_cmds.obj
 0001:0003c380       _SanitizeString            2003d380 f   g_cmds.obj
 0001:0003c420       _ClientNumberFromString    2003d420 f   g_cmds.obj
 0001:0003c620       _Cmd_Give_f                2003d620 f   g_cmds.obj
 0001:0003c8d0       _Cmd_God_f                 2003d8d0 f   g_cmds.obj
 0001:0003c980       _Cmd_Notarget_f            2003d980 f   g_cmds.obj
 0001:0003ca30       _Cmd_Noclip_f              2003da30 f   g_cmds.obj
 0001:0003caf0       _Cmd_LevelShot_f           2003daf0 f   g_cmds.obj
 0001:0003cb80       _Cmd_TeamTask_f            2003db80 f   g_cmds.obj
 0001:0003cc90       _Cmd_Kill_f                2003dc90 f   g_cmds.obj
 0001:0003cd40       _BroadcastTeamChange       2003dd40 f   g_cmds.obj
 0001:0003ce50       _SetTeam                   2003de50 f   g_cmds.obj
 0001:0003d360       _StopFollowing             2003e360 f   g_cmds.obj
 0001:0003d420       _Cmd_Team_f                2003e420 f   g_cmds.obj
 0001:0003d630       _Cmd_Follow_f              2003e630 f   g_cmds.obj
 0001:0003d7c0       _Cmd_FollowCycle_f         2003e7c0 f   g_cmds.obj
 0001:0003d950       _G_Say                     2003e950 f   g_cmds.obj
 0001:0003ddc0       _G_Voice                   2003edc0 f   g_cmds.obj
 0001:0003dfe0       _Cmd_GameCommand_f         2003efe0 f   g_cmds.obj
 0001:0003e0e0       _Cmd_Where_f               2003f0e0 f   g_cmds.obj
 0001:0003e140       _Cmd_CallVote_f            2003f140 f   g_cmds.obj
 0001:0003e8e0       _Cmd_Vote_f                2003f8e0 f   g_cmds.obj
 0001:0003eab0       _Cmd_CallTeamVote_f        2003fab0 f   g_cmds.obj
 0001:0003f2e0       _Cmd_TeamVote_f            200402e0 f   g_cmds.obj
 0001:0003f520       _Cmd_SetViewpos_f          20040520 f   g_cmds.obj
 0001:0003f6a0       _Cmd_Stats_f               200406a0 f   g_cmds.obj
 0001:0003f6c0       _Cmd_ResetGrav             200406c0 f   g_cmds.obj
 0001:0003f700       _ClientCommand             20040700 f   g_cmds.obj
 0001:00040590       _ScorePlum                 20041590 f   g_combat.obj
 0001:00040610       _AddScore                  20041610 f   g_combat.obj
 0001:000406e0       _TossClientItems           200416e0 f   g_combat.obj
 0001:00040800       _LookAtKiller              20041800 f   g_combat.obj
 0001:00040920       _GibEntity                 20041920 f   g_combat.obj
 0001:00040a20       _body_die                  20041a20 f   g_combat.obj
 0001:00040a80       _CheckAlmostCapture        20041a80 f   g_combat.obj
 0001:00040ce0       _CheckAlmostScored         20041ce0 f   g_combat.obj
 0001:00040e40       _player_die                20041e40 f   g_combat.obj
 0001:000416b0       _CheckArmor                200426b0 f   g_combat.obj
 0001:00041770       _RaySphereIntersections    20042770 f   g_combat.obj
 0001:00041a00       _G_Damage                  20042a00 f   g_combat.obj
 0001:000421d0       _CanDamage                 200431d0 f   g_combat.obj
 0001:000424e0       _G_RadiusDamage            200434e0 f   g_combat.obj
 0001:00042880       _Pickup_Powerup            20043880 f   g_items.obj
 0001:00042b50       _Pickup_Holdable           20043b50 f   g_items.obj
 0001:00042bd0       _Add_Ammo                  20043bd0 f   g_items.obj
 0001:00042c60       _Pickup_Ammo               20043c60 f   g_items.obj
 0001:00042ce0       _Pickup_Weapon             20043ce0 f   g_items.obj
 0001:00042e80       _Pickup_Health             20043e80 f   g_items.obj
 0001:00042fa0       _Pickup_Armor              20043fa0 f   g_items.obj
 0001:00043050       _RespawnItem               20044050 f   g_items.obj
 0001:000432e0       _Touch_Item                200442e0 f   g_items.obj
 0001:000437f0       _LaunchItem                200447f0 f   g_items.obj
 0001:00043a00       _Drop_Item                 20044a00 f   g_items.obj
 0001:00043af0       _Use_Item                  20044af0 f   g_items.obj
 0001:00043b20       _FinishSpawningItem        20044b20 f   g_items.obj
 0001:00043e20       _G_CheckTeamItems          20044e20 f   g_items.obj
 0001:00043ee0       _ClearRegisteredItems      20044ee0 f   g_items.obj
 0001:00043f40       _RegisterItem              20044f40 f   g_items.obj
 0001:00043f90       _SaveRegisteredItems       20044f90 f   g_items.obj
 0001:00044080       _G_ItemDisabled            20045080 f   g_items.obj
 0001:000440d0       _G_SpawnItem               200450d0 f   g_items.obj
 0001:00044200       _G_BounceItem              20045200 f   g_items.obj
 0001:000444b0       _G_RunItem                 200454b0 f   g_items.obj
 0001:000446a0       _vmMain                    200456a0 f   g_main.obj
 0001:00044800       _G_Printf                  20045800 f   g_main.obj
 0001:00044860       _G_Error                   20045860 f   g_main.obj
 0001:000448c0       _G_FindTeams               200458c0 f   g_main.obj
 0001:00044b00       _G_RemapTeamShaders        20045b00 f   g_main.obj
 0001:00044b20       _G_RegisterCvars           20045b20 f   g_main.obj
 0001:00044c40       _G_UpdateCvars             20045c40 f   g_main.obj
 0001:00044d40       _G_InitGame                20045d40 f   g_main.obj
 0001:000450a0       _G_ShutdownGame            200460a0 f   g_main.obj
 0001:00045130       _Com_Error                 20046130 f   g_main.obj
 0001:00045190       _Com_Printf                20046190 f   g_main.obj
 0001:000451f0       _AddTournamentPlayer       200461f0 f   g_main.obj
 0001:00045330       _RemoveTournamentLoser     20046330 f   g_main.obj
 0001:000453a0       _RemoveTournamentWinner    200463a0 f   g_main.obj
 0001:00045410       _AdjustTournamentScores    20046410 f   g_main.obj
 0001:00045510       _SortRanks                 20046510 f   g_main.obj
 0001:000456c0       _CalculateRanks            200466c0 f   g_main.obj
 0001:00045cf0       _SendScoreboardMessageToAllClients 20046cf0 f   g_main.obj
 0001:00045d70       _MoveClientToIntermission  20046d70 f   g_main.obj
 0001:00045f10       _FindIntermissionPoint     20046f10 f   g_main.obj
 0001:00046050       _BeginIntermission         20047050 f   g_main.obj
 0001:00046140       _ExitLevel                 20047140 f   g_main.obj
 0001:000462d0       _G_LogPrintf               200472d0 f   g_main.obj
 0001:00046440       _LogExit                   20047440 f   g_main.obj
 0001:000465c0       _CheckIntermissionExit     200475c0 f   g_main.obj
 0001:000467b0       _ScoreIsTied               200477b0 f   g_main.obj
 0001:00046850       _CheckExitRules            20047850 f   g_main.obj
 0001:00046b10       _CheckTournament           20047b10 f   g_main.obj
 0001:00046ea0       _CheckVote                 20047ea0 f   g_main.obj
 0001:00046fd0       _PrintTeam                 20047fd0 f   g_main.obj
 0001:00047050       _SetLeader                 20048050 f   g_main.obj
 0001:00047230       _CheckTeamLeader           20048230 f   g_main.obj
 0001:000473c0       _CheckTeamVote             200483c0 f   g_main.obj
 0001:00047570       _CheckCvars                20048570 f   g_main.obj
 0001:00047600       _G_RunThink                20048600 f   g_main.obj
 0001:00047710       _G_RunFrame                20048710 f   g_main.obj
 0001:00047a90       _G_Alloc                   20048a90 f   g_mem.obj
 0001:00047b40       _G_InitMemory              20048b40 f   g_mem.obj
 0001:00047b60       _Svcmd_GameMem_f           20048b60 f   g_mem.obj
 0001:00047ba0       _SP_info_camp              20048ba0 f   g_misc.obj
 0001:00047bd0       _SP_info_null              20048bd0 f   g_misc.obj
 0001:00047c00       _SP_info_notnull           20048c00 f   g_misc.obj
 0001:00047c30       _SP_light                  20048c30 f   g_misc.obj
 0001:00047c60       _TeleportPlayer            20048c60 f   g_misc.obj
 0001:00047f20       _TeleportEntity            20048f20 f   g_misc.obj
 0001:00048230       _SP_misc_teleporter_dest   20049230 f   g_misc.obj
 0001:00048250       _SP_misc_model             20049250 f   g_misc.obj
 0001:00048280       _locateCamera              20049280 f   g_misc.obj
 0001:00048460       _SP_misc_portal_surface    20049460 f   g_misc.obj
 0001:00048570       _SP_misc_portal_camera     20049570 f   g_misc.obj
 0001:00048640       _Use_Shooter               20049640 f   g_misc.obj
 0001:00048930       _InitShooter               20049930 f   g_misc.obj
 0001:00048ab0       _SP_shooter_rocket         20049ab0 f   g_misc.obj
 0001:00048ae0       _SP_shooter_plasma         20049ae0 f   g_misc.obj
 0001:00048b10       _SP_shooter_grenade        20049b10 f   g_misc.obj
 0001:00048b40       _G_BounceMissile           20049b40 f   g_missile.obj
 0001:00048de0       _G_ExplodeMissile          20049de0 f   g_missile.obj
 0001:00048fa0       _G_MissileImpact           20049fa0 f   g_missile.obj
 0001:00049630       _G_RunMissile              2004a630 f   g_missile.obj
 0001:000499f0       _fire_plasma               2004a9f0 f   g_missile.obj
 0001:00049c40       _fire_grenade              2004ac40 f   g_missile.obj
 0001:00049ea0       _fire_bfg                  2004aea0 f   g_missile.obj
 0001:0004a0f0       _fire_rocket               2004b0f0 f   g_missile.obj
 0001:0004a340       _fire_grapple              2004b340 f   g_missile.obj
 0001:0004a570       _G_TestEntityPosition      2004b570 f   g_mover.obj
 0001:0004a680       _G_CreateRotationMatrix    2004b680 f   g_mover.obj
 0001:0004a6d0       _G_TransposeMatrix         2004b6d0 f   g_mover.obj
 0001:0004a750       _G_RotatePoint             2004b750 f   g_mover.obj
 0001:0004a810       _G_TryPushingEntity        2004b810 f   g_mover.obj
 0001:0004aec0       _G_CheckProxMinePosition   2004bec0 f   g_mover.obj
 0001:0004afe0       _G_TryPushingProxMine      2004bfe0 f   g_mover.obj
 0001:0004b200       _G_MoverPush               2004c200 f   g_mover.obj
 0001:0004b970       _G_MoverTeam               2004c970 f   g_mover.obj
 0001:0004bc10       _G_RunMover                2004cc10 f   g_mover.obj
 0001:0004bc80       _SetMoverState             2004cc80 f   g_mover.obj
 0001:0004bf60       _MatchTeam                 2004cf60 f   g_mover.obj
 0001:0004bfb0       _ReturnToPos1              2004cfb0 f   g_mover.obj
 0001:0004c020       _Inv_WaitUnload            2004d020 f   g_mover.obj
 0001:0004c060       _Inv_Reverse               2004d060 f   g_mover.obj
 0001:0004c150       _Reached_BinaryMover       2004d150 f   g_mover.obj
 0001:0004c3c0       _Use_BinaryMover           2004d3c0 f   g_mover.obj
 0001:0004c800       _InitMover                 2004d800 f   g_mover.obj
 0001:0004cc00       _Blocked_Door              2004dc00 f   g_mover.obj
 0001:0004cd10       _Touch_DoorTrigger         2004dd10 f   g_mover.obj
 0001:0004cdf0       _Think_SpawnNewDoorTrigger 2004ddf0 f   g_mover.obj
 0001:0004d080       _Think_MatchTeam           2004e080 f   g_mover.obj
 0001:0004d0c0       _SP_func_door              2004e0c0 f   g_mover.obj
 0001:0004d510       _Touch_Plat                2004e510 f   g_mover.obj
 0001:0004d660       _Touch_PlatCenterTrigger   2004e660 f   g_mover.obj
 0001:0004d730       _SpawnPlatTrigger          2004e730 f   g_mover.obj
 0001:0004d960       _SP_func_plat              2004e960 f   g_mover.obj
 0001:0004dc00       _Touch_Button              2004ec00 f   g_mover.obj
 0001:0004dc50       _SP_func_button            2004ec50 f   g_mover.obj
 0001:0004df10       _Think_BeginMoving         2004ef10 f   g_mover.obj
 0001:0004df40       _Reached_Train             2004ef40 f   g_mover.obj
 0001:0004e1a0       _Think_SetupTrainTargets   2004f1a0 f   g_mover.obj
 0001:0004e340       _SP_path_corner            2004f340 f   g_mover.obj
 0001:0004e3a0       _SP_func_train             2004f3a0 f   g_mover.obj
 0001:0004e500       _SP_func_static            2004f500 f   g_mover.obj
 0001:0004e5b0       _SP_func_rotating          2004f5b0 f   g_mover.obj
 0001:0004e760       _SP_func_bobbing           2004f760 f   g_mover.obj
 0001:0004e920       _SP_func_pendulum          2004f920 f   g_mover.obj
 0001:0004eb20       _G_WriteClientSessionData  2004fb20 f   g_session.obj
 0001:0004ebe0       _G_ReadSessionData         2004fbe0 f   g_session.obj
 0001:0004ecf0       _G_InitSessionData         2004fcf0 f   g_session.obj
 0001:0004ee30       _G_InitWorldSession        2004fe30 f   g_session.obj
 0001:0004eeb0       _G_WriteSessionData        2004feb0 f   g_session.obj
 0001:0004ef60       _G_SpawnString             2004ff60 f   g_spawn.obj
 0001:0004f000       _G_SpawnFloat              20050000 f   g_spawn.obj
 0001:0004f050       _G_SpawnInt                20050050 f   g_spawn.obj
 0001:0004f0a0       _G_SpawnVector             200500a0 f   g_spawn.obj
 0001:0004f100       _SP_item_botroam           20050100 f   g_spawn.obj
 0001:0004f120       _G_CallSpawn               20050120 f   g_spawn.obj
 0001:0004f240       _G_NewString               20050240 f   g_spawn.obj
 0001:0004f330       _G_ParseField              20050330 f   g_spawn.obj
 0001:0004f500       _G_SpawnGEntityFromSpawnVars 20050500 f   g_spawn.obj
 0001:0004f770       _G_AddSpawnVarToken        20050770 f   g_spawn.obj
 0001:0004f810       _G_ParseSpawnVars          20050810 f   g_spawn.obj
 0001:0004f9c0       _SP_worldspawn             200509c0 f   g_spawn.obj
 0001:0004fbd0       _G_SpawnEntitiesFromString 20050bd0 f   g_spawn.obj
 0001:0004fc40       _G_FilterPacket            20050c40 f   g_svcmds.obj
 0001:0004fd80       _G_ProcessIPBans           20050d80 f   g_svcmds.obj
 0001:000502e0       _Svcmd_AddIP_f             200512e0 f   g_svcmds.obj
 0001:00050350       _Svcmd_RemoveIP_f          20051350 f   g_svcmds.obj
 0001:00050460       _Svcmd_EntityList_f        20051460 f   g_svcmds.obj
 0001:00050690       _ClientForString           20051690 f   g_svcmds.obj
 0001:000507e0       _Svcmd_ForceTeam_f         200517e0 f   g_svcmds.obj
 0001:00050890       _ConsoleCommand            20051890 f   g_svcmds.obj
 0001:00050b20       _dllEntry                  20051b20 f   g_syscalls.obj
 0001:00050b40       _PASSFLOAT                 20051b40 f   g_syscalls.obj
 0001:00050b60       _trap_Printf               20051b60 f   g_syscalls.obj
 0001:00050b90       _trap_Error                20051b90 f   g_syscalls.obj
 0001:00050bc0       _trap_Milliseconds         20051bc0 f   g_syscalls.obj
 0001:00050bf0       _trap_Argc                 20051bf0 f   g_syscalls.obj
 0001:00050c20       _trap_Argv                 20051c20 f   g_syscalls.obj
 0001:00050c50       _trap_FS_FOpenFile         20051c50 f   g_syscalls.obj
 0001:00050c80       _trap_FS_Read              20051c80 f   g_syscalls.obj
 0001:00050cb0       _trap_FS_Write             20051cb0 f   g_syscalls.obj
 0001:00050ce0       _trap_FS_FCloseFile        20051ce0 f   g_syscalls.obj
 0001:00050d10       _trap_FS_GetFileList       20051d10 f   g_syscalls.obj
 0001:00050d50       _trap_FS_Seek              20051d50 f   g_syscalls.obj
 0001:00050d80       _trap_SendConsoleCommand   20051d80 f   g_syscalls.obj
 0001:00050db0       _trap_Cvar_Register        20051db0 f   g_syscalls.obj
 0001:00050df0       _trap_Cvar_Update          20051df0 f   g_syscalls.obj
 0001:00050e20       _trap_Cvar_Set             20051e20 f   g_syscalls.obj
 0001:00050e50       _trap_Cvar_VariableIntegerValue 20051e50 f   g_syscalls.obj
 0001:00050e80       _trap_Cvar_VariableStringBuffer 20051e80 f   g_syscalls.obj
 0001:00050eb0       _trap_LocateGameData       20051eb0 f   g_syscalls.obj
 0001:00050ef0       _trap_DropClient           20051ef0 f   g_syscalls.obj
 0001:00050f20       _trap_SendServerCommand    20051f20 f   g_syscalls.obj
 0001:00050f50       _trap_SetConfigstring      20051f50 f   g_syscalls.obj
 0001:00050f80       _trap_GetConfigstring      20051f80 f   g_syscalls.obj
 0001:00050fb0       _trap_GetUserinfo          20051fb0 f   g_syscalls.obj
 0001:00050fe0       _trap_SetUserinfo          20051fe0 f   g_syscalls.obj
 0001:00051010       _trap_GetServerinfo        20052010 f   g_syscalls.obj
 0001:00051040       _trap_SetBrushModel        20052040 f   g_syscalls.obj
 0001:00051070       _trap_Trace                20052070 f   g_syscalls.obj
 0001:000510c0       _trap_TraceCapsule         200520c0 f   g_syscalls.obj
 0001:00051110       _trap_PointContents        20052110 f   g_syscalls.obj
 0001:00051140       _trap_InPVS                20052140 f   g_syscalls.obj
 0001:00051170       _trap_InPVSIgnorePortals   20052170 f   g_syscalls.obj
 0001:000511a0       _trap_AdjustAreaPortalState 200521a0 f   g_syscalls.obj
 0001:000511d0       _trap_AreasConnected       200521d0 f   g_syscalls.obj
 0001:00051200       _trap_LinkEntity           20052200 f   g_syscalls.obj
 0001:00051230       _trap_UnlinkEntity         20052230 f   g_syscalls.obj
 0001:00051260       _trap_EntitiesInBox        20052260 f   g_syscalls.obj
 0001:000512a0       _trap_EntityContact        200522a0 f   g_syscalls.obj
 0001:000512d0       _trap_EntityContactCapsule 200522d0 f   g_syscalls.obj
 0001:00051300       _trap_BotAllocateClient    20052300 f   g_syscalls.obj
 0001:00051330       _trap_BotFreeClient        20052330 f   g_syscalls.obj
 0001:00051360       _trap_GetUsercmd           20052360 f   g_syscalls.obj
 0001:00051390       _trap_GetEntityToken       20052390 f   g_syscalls.obj
 0001:000513c0       _trap_DebugPolygonCreate   200523c0 f   g_syscalls.obj
 0001:000513f0       _trap_DebugPolygonDelete   200523f0 f   g_syscalls.obj
 0001:00051420       _trap_RealTime             20052420 f   g_syscalls.obj
 0001:00051450       _trap_SnapVector           20052450 f   g_syscalls.obj
 0001:00051480       _trap_BotLibSetup          20052480 f   g_syscalls.obj
 0001:000514b0       _trap_BotLibShutdown       200524b0 f   g_syscalls.obj
 0001:000514e0       _trap_BotLibVarSet         200524e0 f   g_syscalls.obj
 0001:00051510       _trap_BotLibVarGet         20052510 f   g_syscalls.obj
 0001:00051550       _trap_BotLibDefine         20052550 f   g_syscalls.obj
 0001:00051580       _trap_BotLibStartFrame     20052580 f   g_syscalls.obj
 0001:000515c0       _trap_BotLibLoadMap        200525c0 f   g_syscalls.obj
 0001:000515f0       _trap_BotLibUpdateEntity   200525f0 f   g_syscalls.obj
 0001:00051620       _trap_BotLibTest           20052620 f   g_syscalls.obj
 0001:00051660       _trap_BotGetSnapshotEntity 20052660 f   g_syscalls.obj
 0001:00051690       _trap_BotGetServerCommand  20052690 f   g_syscalls.obj
 0001:000516d0       _trap_BotUserCommand       200526d0 f   g_syscalls.obj
 0001:00051700       _trap_AAS_EntityInfo       20052700 f   g_syscalls.obj
 0001:00051730       _trap_AAS_Initialized      20052730 f   g_syscalls.obj
 0001:00051760       _trap_AAS_PresenceTypeBoundingBox 20052760 f   g_syscalls.obj
 0001:000517a0       _trap_AAS_Time             200527a0 f   g_syscalls.obj
 0001:000517d0       _trap_AAS_PointAreaNum     200527d0 f   g_syscalls.obj
 0001:00051800       _trap_AAS_PointReachabilityAreaIndex 20052800 f   g_syscalls.obj
 0001:00051830       _trap_AAS_TraceAreas       20052830 f   g_syscalls.obj
 0001:00051870       _trap_AAS_BBoxAreas        20052870 f   g_syscalls.obj
 0001:000518b0       _trap_AAS_AreaInfo         200528b0 f   g_syscalls.obj
 0001:000518e0       _trap_AAS_PointContents    200528e0 f   g_syscalls.obj
 0001:00051910       _trap_AAS_NextBSPEntity    20052910 f   g_syscalls.obj
 0001:00051940       _trap_AAS_ValueForBSPEpairKey 20052940 f   g_syscalls.obj
 0001:00051980       _trap_AAS_VectorForBSPEpairKey 20052980 f   g_syscalls.obj
 0001:000519c0       _trap_AAS_FloatForBSPEpairKey 200529c0 f   g_syscalls.obj
 0001:00051a00       _trap_AAS_IntForBSPEpairKey 20052a00 f   g_syscalls.obj
 0001:00051a40       _trap_AAS_AreaReachability 20052a40 f   g_syscalls.obj
 0001:00051a70       _trap_AAS_AreaTravelTimeToGoalArea 20052a70 f   g_syscalls.obj
 0001:00051ab0       _trap_AAS_EnableRoutingArea 20052ab0 f   g_syscalls.obj
 0001:00051ae0       _trap_AAS_PredictRoute     20052ae0 f   g_syscalls.obj
 0001:00051b40       _trap_AAS_AlternativeRouteGoals 20052b40 f   g_syscalls.obj
 0001:00051b90       _trap_AAS_Swimming         20052b90 f   g_syscalls.obj
 0001:00051bc0       _trap_AAS_PredictClientMovement 20052bc0 f   g_syscalls.obj
 0001:00051c40       _trap_EA_Say               20052c40 f   g_syscalls.obj
 0001:00051c70       _trap_EA_SayTeam           20052c70 f   g_syscalls.obj
 0001:00051ca0       _trap_EA_Command           20052ca0 f   g_syscalls.obj
 0001:00051cd0       _trap_EA_Action            20052cd0 f   g_syscalls.obj
 0001:00051d00       _trap_EA_Gesture           20052d00 f   g_syscalls.obj
 0001:00051d30       _trap_EA_Talk              20052d30 f   g_syscalls.obj
 0001:00051d60       _trap_EA_Attack            20052d60 f   g_syscalls.obj
 0001:00051d90       _trap_EA_Use               20052d90 f   g_syscalls.obj
 0001:00051dc0       _trap_EA_Respawn           20052dc0 f   g_syscalls.obj
 0001:00051df0       _trap_EA_Crouch            20052df0 f   g_syscalls.obj
 0001:00051e20       _trap_EA_MoveUp            20052e20 f   g_syscalls.obj
 0001:00051e50       _trap_EA_MoveDown          20052e50 f   g_syscalls.obj
 0001:00051e80       _trap_EA_MoveForward       20052e80 f   g_syscalls.obj
 0001:00051eb0       _trap_EA_MoveBack          20052eb0 f   g_syscalls.obj
 0001:00051ee0       _trap_EA_MoveLeft          20052ee0 f   g_syscalls.obj
 0001:00051f10       _trap_EA_MoveRight         20052f10 f   g_syscalls.obj
 0001:00051f40       _trap_EA_SelectWeapon      20052f40 f   g_syscalls.obj
 0001:00051f70       _trap_EA_Jump              20052f70 f   g_syscalls.obj
 0001:00051fa0       _trap_EA_DelayedJump       20052fa0 f   g_syscalls.obj
 0001:00051fd0       _trap_EA_Move              20052fd0 f   g_syscalls.obj
 0001:00052010       _trap_EA_View              20053010 f   g_syscalls.obj
 0001:00052040       _trap_EA_EndRegular        20053040 f   g_syscalls.obj
 0001:00052080       _trap_EA_GetInput          20053080 f   g_syscalls.obj
 0001:000520c0       _trap_EA_ResetInput        200530c0 f   g_syscalls.obj
 0001:000520f0       _trap_BotLoadCharacter     200530f0 f   g_syscalls.obj
 0001:00052130       _trap_BotFreeCharacter     20053130 f   g_syscalls.obj
 0001:00052160       _trap_Characteristic_Float 20053160 f   g_syscalls.obj
 0001:000521a0       _trap_Characteristic_BFloat 200531a0 f   g_syscalls.obj
 0001:00052200       _trap_Characteristic_Integer 20053200 f   g_syscalls.obj
 0001:00052230       _trap_Characteristic_BInteger 20053230 f   g_syscalls.obj
 0001:00052270       _trap_Characteristic_String 20053270 f   g_syscalls.obj
 0001:000522b0       _trap_BotAllocChatState    200532b0 f   g_syscalls.obj
 0001:000522e0       _trap_BotFreeChatState     200532e0 f   g_syscalls.obj
 0001:00052310       _trap_BotQueueConsoleMessage 20053310 f   g_syscalls.obj
 0001:00052350       _trap_BotRemoveConsoleMessage 20053350 f   g_syscalls.obj
 0001:00052380       _trap_BotNextConsoleMessage 20053380 f   g_syscalls.obj
 0001:000523b0       _trap_BotNumConsoleMessages 200533b0 f   g_syscalls.obj
 0001:000523e0       _trap_BotInitialChat       200533e0 f   g_syscalls.obj
 0001:00052440       _trap_BotNumInitialChats   20053440 f   g_syscalls.obj
 0001:00052470       _trap_BotReplyChat         20053470 f   g_syscalls.obj
 0001:000524e0       _trap_BotChatLength        200534e0 f   g_syscalls.obj
 0001:00052510       _trap_BotEnterChat         20053510 f   g_syscalls.obj
 0001:00052550       _trap_BotGetChatMessage    20053550 f   g_syscalls.obj
 0001:00052590       _trap_StringContains       20053590 f   g_syscalls.obj
 0001:000525d0       _trap_BotFindMatch         200535d0 f   g_syscalls.obj
 0001:00052610       _trap_BotMatchVariable     20053610 f   g_syscalls.obj
 0001:00052650       _trap_UnifyWhiteSpaces     20053650 f   g_syscalls.obj
 0001:00052680       _trap_BotReplaceSynonyms   20053680 f   g_syscalls.obj
 0001:000526b0       _trap_BotLoadChatFile      200536b0 f   g_syscalls.obj
 0001:000526f0       _trap_BotSetChatGender     200536f0 f   g_syscalls.obj
 0001:00052720       _trap_BotSetChatName       20053720 f   g_syscalls.obj
 0001:00052760       _trap_BotResetGoalState    20053760 f   g_syscalls.obj
 0001:00052790       _trap_BotResetAvoidGoals   20053790 f   g_syscalls.obj
 0001:000527c0       _trap_BotRemoveFromAvoidGoals 200537c0 f   g_syscalls.obj
 0001:000527f0       _trap_BotPushGoal          200537f0 f   g_syscalls.obj
 0001:00052820       _trap_BotPopGoal           20053820 f   g_syscalls.obj
 0001:00052850       _trap_BotEmptyGoalStack    20053850 f   g_syscalls.obj
 0001:00052880       _trap_BotDumpAvoidGoals    20053880 f   g_syscalls.obj
 0001:000528b0       _trap_BotDumpGoalStack     200538b0 f   g_syscalls.obj
 0001:000528e0       _trap_BotGoalName          200538e0 f   g_syscalls.obj
 0001:00052920       _trap_BotGetTopGoal        20053920 f   g_syscalls.obj
 0001:00052950       _trap_BotGetSecondGoal     20053950 f   g_syscalls.obj
 0001:00052980       _trap_BotChooseLTGItem     20053980 f   g_syscalls.obj
 0001:000529c0       _trap_BotChooseNBGItem     200539c0 f   g_syscalls.obj
 0001:00052a10       _trap_BotTouchingGoal      20053a10 f   g_syscalls.obj
 0001:00052a40       _trap_BotItemGoalInVisButNotVisible 20053a40 f   g_syscalls.obj
 0001:00052a80       _trap_BotGetLevelItemGoal  20053a80 f   g_syscalls.obj
 0001:00052ac0       _trap_BotGetNextCampSpotGoal 20053ac0 f   g_syscalls.obj
 0001:00052af0       _trap_BotGetMapLocationGoal 20053af0 f   g_syscalls.obj
 0001:00052b20       _trap_BotAvoidGoalTime     20053b20 f   g_syscalls.obj
 0001:00052b60       _trap_BotSetAvoidGoalTime  20053b60 f   g_syscalls.obj
 0001:00052ba0       _trap_BotInitLevelItems    20053ba0 f   g_syscalls.obj
 0001:00052bd0       _trap_BotUpdateEntityItems 20053bd0 f   g_syscalls.obj
 0001:00052c00       _trap_BotLoadItemWeights   20053c00 f   g_syscalls.obj
 0001:00052c30       _trap_BotFreeItemWeights   20053c30 f   g_syscalls.obj
 0001:00052c60       _trap_BotInterbreedGoalFuzzyLogic 20053c60 f   g_syscalls.obj
 0001:00052ca0       _trap_BotSaveGoalFuzzyLogic 20053ca0 f   g_syscalls.obj
 0001:00052cd0       _trap_BotMutateGoalFuzzyLogic 20053cd0 f   g_syscalls.obj
 0001:00052d10       _trap_BotAllocGoalState    20053d10 f   g_syscalls.obj
 0001:00052d40       _trap_BotFreeGoalState     20053d40 f   g_syscalls.obj
 0001:00052d70       _trap_BotResetMoveState    20053d70 f   g_syscalls.obj
 0001:00052da0       _trap_BotAddAvoidSpot      20053da0 f   g_syscalls.obj
 0001:00052df0       _trap_BotMoveToGoal        20053df0 f   g_syscalls.obj
 0001:00052e30       _trap_BotMoveInDirection   20053e30 f   g_syscalls.obj
 0001:00052e80       _trap_BotResetAvoidReach   20053e80 f   g_syscalls.obj
 0001:00052eb0       _trap_BotResetLastAvoidReach 20053eb0 f   g_syscalls.obj
 0001:00052ee0       _trap_BotReachabilityArea  20053ee0 f   g_syscalls.obj
 0001:00052f10       _trap_BotMovementViewTarget 20053f10 f   g_syscalls.obj
 0001:00052f60       _trap_BotPredictVisiblePosition 20053f60 f   g_syscalls.obj
 0001:00052fa0       _trap_BotAllocMoveState    20053fa0 f   g_syscalls.obj
 0001:00052fd0       _trap_BotFreeMoveState     20053fd0 f   g_syscalls.obj
 0001:00053000       _trap_BotInitMoveState     20054000 f   g_syscalls.obj
 0001:00053030       _trap_BotChooseBestFightWeapon 20054030 f   g_syscalls.obj
 0001:00053060       _trap_BotGetWeaponInfo     20054060 f   g_syscalls.obj
 0001:000530a0       _trap_BotLoadWeaponWeights 200540a0 f   g_syscalls.obj
 0001:000530d0       _trap_BotAllocWeaponState  200540d0 f   g_syscalls.obj
 0001:00053100       _trap_BotFreeWeaponState   20054100 f   g_syscalls.obj
 0001:00053130       _trap_BotResetWeaponState  20054130 f   g_syscalls.obj
 0001:00053160       _trap_GeneticParentsAndChildSelection 20054160 f   g_syscalls.obj
 0001:000531a0       _trap_PC_LoadSource        200541a0 f   g_syscalls.obj
 0001:000531d0       _trap_PC_FreeSource        200541d0 f   g_syscalls.obj
 0001:00053200       _trap_PC_ReadToken         20054200 f   g_syscalls.obj
 0001:00053230       _trap_PC_SourceFileAndLine 20054230 f   g_syscalls.obj
 0001:00053270       _Use_Target_Give           20054270 f   g_target.obj
 0001:00053340       _SP_target_give            20054340 f   g_target.obj
 0001:00053370       _Use_target_remove_powerups 20054370 f   g_target.obj
 0001:00053430       _SP_target_remove_powerups 20054430 f   g_target.obj
 0001:00053460       _Think_Target_Delay        20054460 f   g_target.obj
 0001:00053490       _Use_Target_Delay          20054490 f   g_target.obj
 0001:00053540       _SP_target_delay           20054540 f   g_target.obj
 0001:000535e0       _Use_Target_Score          200545e0 f   g_target.obj
 0001:00053620       _SP_target_score           20054620 f   g_target.obj
 0001:00053670       _Use_Target_Print          20054670 f   g_target.obj
 0001:000537b0       _SP_target_print           200547b0 f   g_target.obj
 0001:000537e0       _Use_Target_Speaker        200547e0 f   g_target.obj
 0001:000538d0       _SP_target_speaker         200548d0 f   g_target.obj
 0001:00053b20       _target_laser_think        20054b20 f   g_target.obj
 0001:00053dd0       _target_laser_on           20054dd0 f   g_target.obj
 0001:00053e20       _target_laser_off          20054e20 f   g_target.obj
 0001:00053e60       _target_laser_use          20054e60 f   g_target.obj
 0001:00053ec0       _target_laser_start        20054ec0 f   g_target.obj
 0001:00054000       _SP_target_laser           20055000 f   g_target.obj
 0001:00054040       _target_teleporter_use     20055040 f   g_target.obj
 0001:000540c0       _SP_target_teleporter      200550c0 f   g_target.obj
 0001:00054130       _target_relay_use          20055130 f   g_target.obj
 0001:00054240       _SP_target_relay           20055240 f   g_target.obj
 0001:00054270       _target_kill_use           20055270 f   g_target.obj
 0001:000542b0       _SP_target_kill            200552b0 f   g_target.obj
 0001:000542e0       _SP_target_position        200552e0 f   g_target.obj
 0001:00054310       _SP_target_location        20055310 f   g_target.obj
 0001:000544a0       _Team_InitGame             200554a0 f   g_team.obj
 0001:00054520       _OtherTeam                 20055520 f   g_team.obj
 0001:00054560       _TeamName                  20055560 f   g_team.obj
 0001:000545b0       _OtherTeamName             200555b0 f   g_team.obj
 0001:00054600       _TeamColorString           20055600 f   g_team.obj
 0001:00054650       _PrintMsg                  20055650 f   g_team.obj
 0001:00054750       _AddTeamScore              20055750 f   g_team.obj
 0001:000548a0       _OnSameTeam                200558a0 f   g_team.obj
 0001:00054920       _Team_SetFlagStatus        20055920 f   g_team.obj
 0001:00054a30       _Team_CheckDroppedItem     20055a30 f   g_team.obj
 0001:00054ab0       _Team_ForceGesture         20055ab0 f   g_team.obj
 0001:00054b60       _Team_FragBonuses          20055b60 f   g_team.obj
 0001:00055720       _Team_CheckHurtCarrier     20056720 f   g_team.obj
 0001:00055840       _Team_ResetFlag            20056840 f   g_team.obj
 0001:00055930       _Team_ResetFlags           20056930 f   g_team.obj
 0001:00055970       _Team_ReturnFlagSound      20056970 f   g_team.obj
 0001:00055a00       _Team_TakeFlagSound        20056a00 f   g_team.obj
 0001:00055b20       _Team_CaptureFlagSound     20056b20 f   g_team.obj
 0001:00055bb0       _Team_ReturnFlag           20056bb0 f   g_team.obj
 0001:00055c30       _Team_FreeEntity           20056c30 f   g_team.obj
 0001:00055cb0       _Team_DroppedFlagThink     20056cb0 f   g_team.obj
 0001:00055d50       _Team_TouchOurFlag         20056d50 f   g_team.obj
 0001:00056340       _Team_TouchEnemyFlag       20057340 f   g_team.obj
 0001:00056420       _Pickup_Team               20057420 f   g_team.obj
 0001:00056500       _Team_GetLocation          20057500 f   g_team.obj
 0001:00056640       _Team_GetLocationMsg       20057640 f   g_team.obj
 0001:00056730       _SelectRandomTeamSpawnPoint 20057730 f   g_team.obj
 0001:00056880       _SelectCTFSpawnPoint       20057880 f   g_team.obj
 0001:00056950       _TeamplayInfoMessage       20057950 f   g_team.obj
 0001:00056d40       _CheckTeamStatus           20057d40 f   g_team.obj
 0001:00056f10       _SP_team_CTF_redplayer     20057f10 f   g_team.obj
 0001:00056f30       _SP_team_CTF_blueplayer    20057f30 f   g_team.obj
 0001:00056f50       _SP_team_CTF_redspawn      20057f50 f   g_team.obj
 0001:00056f70       _SP_team_CTF_bluespawn     20057f70 f   g_team.obj
 0001:00056f90       _InitTrigger               20057f90 f   g_trigger.obj
 0001:00057020       _multi_wait                20058020 f   g_trigger.obj
 0001:00057050       _multi_trigger             20058050 f   g_trigger.obj
 0001:00057260       _Use_Multi                 20058260 f   g_trigger.obj
 0001:00057290       _Touch_Multi               20058290 f   g_trigger.obj
 0001:000572d0       _SP_trigger_multiple       200582d0 f   g_trigger.obj
 0001:000573d0       _trigger_always_think      200583d0 f   g_trigger.obj
 0001:00057410       _SP_trigger_always         20058410 f   g_trigger.obj
 0001:00057450       _G_TouchJumpPad            20058450 f   g_trigger.obj
 0001:000575a0       _trigger_push_touch        200585a0 f   g_trigger.obj
 0001:00057610       _AimAtTarget               20058610 f   g_trigger.obj
 0001:000577f0       _SP_trigger_push           200587f0 f   g_trigger.obj
 0001:00057890       _Use_target_push           20058890 f   g_trigger.obj
 0001:000578b0       _SP_target_push            200588b0 f   g_trigger.obj
 0001:00057a60       _trigger_teleporter_touch  20058a60 f   g_trigger.obj
 0001:00057ba0       _SP_trigger_teleport       20058ba0 f   g_trigger.obj
 0001:00057c50       _hurt_use                  20058c50 f   g_trigger.obj
 0001:00057ca0       _hurt_touch                20058ca0 f   g_trigger.obj
 0001:00057dc0       _SP_trigger_hurt           20058dc0 f   g_trigger.obj
 0001:00057e90       _func_timer_think          20058e90 f   g_trigger.obj
 0001:00057f30       _func_timer_use            20058f30 f   g_trigger.obj
 0001:00057f90       _SP_func_timer             20058f90 f   g_trigger.obj
 0001:000580c0       _AddRemap                  200590c0 f   g_utils.obj
 0001:000581f0       _BuildShaderStateConfig    200591f0 f   g_utils.obj
 0001:000582f0       _G_FindConfigstringIndex   200592f0 f   g_utils.obj
 0001:000583e0       _G_ModelIndex              200593e0 f   g_utils.obj
 0001:00058410       _G_SoundIndex              20059410 f   g_utils.obj
 0001:00058450       _G_TeamCommand             20059450 f   g_utils.obj
 0001:000584f0       _G_Find                    200594f0 f   g_utils.obj
 0001:000585a0       _G_PickTarget              200595a0 f   g_utils.obj
 0001:00058680       _G_UseTargets              20059680 f   g_utils.obj
 0001:000587d0       _tv                        200597d0 f   g_utils.obj
 0001:00058840       _vtos                      20059840 f   g_utils.obj
 0001:000588d0       _G_SetMovedir              200598d0 f   g_utils.obj
 0001:00058a20       _vectoyaw                  20059a20 f   g_utils.obj
 0001:00058b20       _G_InitGentity             20059b20 f   g_utils.obj
 0001:00058b80       _G_Spawn                   20059b80 f   g_utils.obj
 0001:00058d50       _G_EntitiesFree            20059d50 f   g_utils.obj
 0001:00058dc0       _G_FreeEntity              20059dc0 f   g_utils.obj
 0001:00058e40       _G_TempEntity              20059e40 f   g_utils.obj
 0001:00058f30       _G_KillBox                 20059f30 f   g_utils.obj
 0001:000590d0       _G_AddPredictableEvent     2005a0d0 f   g_utils.obj
 0001:00059120       _G_AddEvent                2005a120 f   g_utils.obj
 0001:00059250       _G_Sound                   2005a250 f   g_utils.obj
 0001:00059290       _G_SetOrigin               2005a290 f   g_utils.obj
 0001:00059360       _DebugLine                 2005a360 f   g_utils.obj
 0001:00059650       _G_BounceProjectile        2005a650 f   g_weapon.obj
 0001:00059770       _Inv_CalcMuzzlePoint       2005a770 f   g_weapon.obj
 0001:00059910       _Weapon_Gauntlet           2005a910 f   g_weapon.obj
 0001:00059930       _CheckGauntletAttack       2005a930 f   g_weapon.obj
 0001:00059ca0       _SnapVectorTowards         2005aca0 f   g_weapon.obj
 0001:00059d50       _Bullet_Fire               2005ad50 f   g_weapon.obj
 0001:0005a0a0       _BFG_Fire                  2005b0a0 f   g_weapon.obj
 0001:0005a120       _ShotgunPellet             2005b120 f   g_weapon.obj
 0001:0005a270       _ShotgunPattern            2005b270 f   g_weapon.obj
 0001:0005a4e0       _weapon_supershotgun_fire  2005b4e0 f   g_weapon.obj
 0001:0005a600       _weapon_grenadelauncher_fire 2005b600 f   g_weapon.obj
 0001:0005a6b0       _Weapon_RocketLauncher_Fire 2005b6b0 f   g_weapon.obj
 0001:0005a730       _Weapon_Plasmagun_Fire     2005b730 f   g_weapon.obj
 0001:0005a7b0       _weapon_railgun_fire       2005b7b0 f   g_weapon.obj
 0001:0005ab10       _Weapon_GrapplingHook_Fire 2005bb10 f   g_weapon.obj
 0001:0005ab90       _Weapon_HookFree           2005bb90 f   g_weapon.obj
 0001:0005ac10       _Weapon_HookThink          2005bc10 f   g_weapon.obj
 0001:0005add0       _Weapon_LightningFire      2005bdd0 f   g_weapon.obj
 0001:0005b000       _LogAccuracyHit            2005c000 f   g_weapon.obj
 0001:0005b0a0       _CalcMuzzlePoint           2005c0a0 f   g_weapon.obj
 0001:0005b1b0       _CalcMuzzlePointOrigin     2005c1b0 f   g_weapon.obj
 0001:0005b310       _FireWeapon                2005c310 f   g_weapon.obj
 0001:0005b6e0       _Q_rand                    2005c6e0 f   q_math.obj
 0001:0005b720       _Q_random                  2005c720 f   q_math.obj
 0001:0005b760       _Q_crandom                 2005c760 f   q_math.obj
 0001:0005b790       _ClampChar                 2005c790 f   q_math.obj
 0001:0005b7c0       _ClampShort                2005c7c0 f   q_math.obj
 0001:0005b800       _DirToByte                 2005c800 f   q_math.obj
 0001:0005b8d0       _ByteToDir                 2005c8d0 f   q_math.obj
 0001:0005b970       _ColorBytes3               2005c970 f   q_math.obj
 0001:0005b9d0       _ColorBytes4               2005c9d0 f   q_math.obj
 0001:0005ba40       _NormalizeColor            2005ca40 f   q_math.obj
 0001:0005bb10       _PlaneFromPoints           2005cb10 f   q_math.obj
 0001:0005bca0       _RotatePointAroundVector   2005cca0 f   q_math.obj
 0001:0005bf50       _RotateAroundDirection     2005cf50 f   q_math.obj
 0001:0005c000       _vectoangles               2005d000 f   q_math.obj
 0001:0005c1d0       _AnglesToAxis              2005d1d0 f   q_math.obj
 0001:0005c240       _AxisClear                 2005d240 f   q_math.obj
 0001:0005c2d0       _AxisCopy                  2005d2d0 f   q_math.obj
 0001:0005c370       _ProjectPointOnPlane       2005d370 f   q_math.obj
 0001:0005c4f0       _MakeNormalVectors         2005d4f0 f   q_math.obj
 0001:0005c5e0       _VectorRotate              2005d5e0 f   q_math.obj
 0001:0005c6a0       _Q_rsqrt                   2005d6a0 f   q_math.obj
 0001:0005c710       _Q_fabs                    2005d710 f   q_math.obj
 0001:0005c740       _LerpAngle                 2005d740 f   q_math.obj
 0001:0005c7c0       _AngleSubtract             2005d7c0 f   q_math.obj
 0001:0005c830       _AnglesSubtract            2005d830 f   q_math.obj
 0001:0005c8b0       _AngleMod                  2005d8b0 f   q_math.obj
 0001:0005c8f0       _AngleNormalize360         2005d8f0 f   q_math.obj
 0001:0005c930       _AngleNormalize180         2005d930 f   q_math.obj
 0001:0005c980       _AngleDelta                2005d980 f   q_math.obj
 0001:0005c9b0       _SetPlaneSignbits          2005d9b0 f   q_math.obj
 0001:0005ca30       _BoxOnPlaneSide            2005da30 f   q_math.obj
 0001:0005cd00       _RadiusFromBounds          2005dd00 f   q_math.obj
 0001:0005ce20       _ClearBounds               2005de20 f   q_math.obj
 0001:0005ce80       _AddPointToBounds          2005de80 f   q_math.obj
 0001:0005cf80       _VectorNormalize           2005df80 f   q_math.obj
 0001:0005d040       _VectorNormalize2          2005e040 f   q_math.obj
 0001:0005d120       __VectorMA                 2005e120 f   q_math.obj
 0001:0005d180       __DotProduct               2005e180 f   q_math.obj
 0001:0005d1d0       __VectorSubtract           2005e1d0 f   q_math.obj
 0001:0005d230       __VectorAdd                2005e230 f   q_math.obj
 0001:0005d290       __VectorCopy               2005e290 f   q_math.obj
 0001:0005d2d0       __VectorScale              2005e2d0 f   q_math.obj
 0001:0005d320       _Vector4Scale              2005e320 f   q_math.obj
 0001:0005d380       _Q_log2                    2005e380 f   q_math.obj
 0001:0005d3c0       _MatrixMultiply            2005e3c0 f   q_math.obj
 0001:0005d5d0       _AngleVectors              2005e5d0 f   q_math.obj
 0001:0005d830       _PerpendicularVector       2005e830 f   q_math.obj
 0001:0005d920       _TransposeMatrix           2005e920 f   q_math.obj
 0001:0005d9a0       _Com_Clamp                 2005e9a0 f   q_shared.obj
 0001:0005d9f0       _COM_SkipPath              2005e9f0 f   q_shared.obj
 0001:0005da50       _COM_StripExtension        2005ea50 f   q_shared.obj
 0001:0005dab0       _COM_DefaultExtension      2005eab0 f   q_shared.obj
 0001:0005db60       _ShortSwap                 2005eb60 f   q_shared.obj
 0001:0005dbc0       _ShortNoSwap               2005ebc0 f   q_shared.obj
 0001:0005dbe0       _LongSwap                  2005ebe0 f   q_shared.obj
 0001:0005dc80       _LongNoSwap                2005ec80 f   q_shared.obj
 0001:0005dca0       _Long64Swap                2005eca0 f   q_shared.obj
 0001:0005dd00       _Long64NoSwap              2005ed00 f   q_shared.obj
 0001:0005dd20       _FloatSwap                 2005ed20 f   q_shared.obj
 0001:0005dd60       _FloatNoSwap               2005ed60 f   q_shared.obj
 0001:0005dd80       _COM_BeginParseSession     2005ed80 f   q_shared.obj
 0001:0005ddd0       _COM_GetCurrentParseLine   2005edd0 f   q_shared.obj
 0001:0005ddf0       _COM_Parse                 2005edf0 f   q_shared.obj
 0001:0005de20       _COM_ParseError            2005ee20 f   q_shared.obj
 0001:0005de90       _COM_ParseWarning          2005ee90 f   q_shared.obj
 0001:0005df00       _COM_Compress              2005ef00 f   q_shared.obj
 0001:0005e180       _COM_ParseExt              2005f180 f   q_shared.obj
 0001:0005e4b0       _COM_MatchToken            2005f4b0 f   q_shared.obj
 0001:0005e510       _SkipBracedSection         2005f510 f   q_shared.obj
 0001:0005e5a0       _SkipRestOfLine            2005f5a0 f   q_shared.obj
 0001:0005e610       _Parse1DMatrix             2005f610 f   q_shared.obj
 0001:0005e6a0       _Parse2DMatrix             2005f6a0 f   q_shared.obj
 0001:0005e730       _Parse3DMatrix             2005f730 f   q_shared.obj
 0001:0005e7d0       _Q_isprint                 2005f7d0 f   q_shared.obj
 0001:0005e800       _Q_islower                 2005f800 f   q_shared.obj
 0001:0005e830       _Q_isupper                 2005f830 f   q_shared.obj
 0001:0005e860       _Q_isalpha                 2005f860 f   q_shared.obj
 0001:0005e8a0       _Q_strrchr                 2005f8a0 f   q_shared.obj
 0001:0005e920       _Q_strncpyz                2005f920 f   q_shared.obj
 0001:0005e9b0       _Q_stricmpn                2005f9b0 f   q_shared.obj
 0001:0005eac0       _Q_strncmp                 2005fac0 f   q_shared.obj
 0001:0005eb50       _Q_stricmp                 2005fb50 f   q_shared.obj
 0001:0005eba0       _Q_strlwr                  2005fba0 f   q_shared.obj
 0001:0005ec00       _Q_strupr                  2005fc00 f   q_shared.obj
 0001:0005ec60       _Q_strcat                  2005fc60 f   q_shared.obj
 0001:0005ecd0       _Q_PrintStrlen             2005fcd0 f   q_shared.obj
 0001:0005ed70       _Q_CleanStr                2005fd70 f   q_shared.obj
 0001:0005ee30       _Com_sprintf               2005fe30 f   q_shared.obj
 0001:0005eee0       _va                        2005fee0 f   q_shared.obj
 0001:0005ef50       _Info_ValueForKey          2005ff50 f   q_shared.obj
 0001:0005f130       _Info_NextPair             20060130 f   q_shared.obj
 0001:0005f240       _Info_RemoveKey            20060240 f   q_shared.obj
 0001:0005f410       _Info_RemoveKey_Big        20060410 f   q_shared.obj
 0001:0005f5e0       _Info_Validate             200605e0 f   q_shared.obj
 0001:0005f640       _Info_SetValueForKey       20060640 f   q_shared.obj
 0001:0005f820       _Info_SetValueForKey_Big   20060820 f   q_shared.obj
 0001:0005f9f0       _CalcMuzzlePointStuff      200609f0 f   SPAAACE.obj
 0001:0005fb30       _Inv_CalcMuzzleStuff       20060b30 f   SPAAACE.obj
 0001:0005fb80       _CalcMuzzlePointOriginStuff 20060b80 f   SPAAACE.obj
 0001:0005fd10       _atol                      20060d10 f   LIBCMTD:atox.obj
 0001:0005fe10       _atoi                      20060e10 f   LIBCMTD:atox.obj
 0001:0005fe30       __atoi64                   20060e30 f   LIBCMTD:atox.obj
 0001:0005ff60       _strlen                    20060f60 f   LIBCMTD:strlen.obj
 0001:0005ffe0       _srand                     20060fe0 f   LIBCMTD:rand.obj
 0001:0005fff0       _rand                      20060ff0 f   LIBCMTD:rand.obj
 0001:00060030       __fpmath                   20061030 f   LIBCMTD:fpinit.obj
 0001:00060060       __fpclear                  20061060 f   LIBCMTD:fpinit.obj
 0001:00060070       __cfltcvt_init             20061070 f   LIBCMTD:fpinit.obj
 0001:000600c0       ___setfflag                200610c0 f   LIBCMTD:fpinit.obj
 0001:000600dc       __ftol                     200610dc f   LIBCMTD:ftol.obj
 0001:00060110       _strncpy                   20061110 f   LIBCMTD:strncpy.obj
 0001:00060210       _strcpy                    20061210 f   LIBCMTD:strcat.obj
 0001:00060220       _strcat                    20061220 f   LIBCMTD:strcat.obj
 0001:00060300       _memcpy                    20061300 f   LIBCMTD:memcpy.obj
 0001:00060640       _atof                      20061640 f   LIBCMTD:atof.obj
 0001:000606c0       _sscanf                    200616c0 f   LIBCMTD:sscanf.obj
 0001:00060780       __CIsqrt                   20061780 f   LIBCMTD:sqrt.obj
 0001:00060794       _sqrt                      20061794 f   LIBCMTD:sqrt.obj
 0001:00060840       _memset                    20061840 f   LIBCMTD:memset.obj
 0001:000608a0       __toupper                  200618a0 f   LIBCMTD:toupper.obj
 0001:000608b0       _toupper                   200618b0 f   LIBCMTD:toupper.obj
 0001:00060950       __toupper_lk               20061950 f   LIBCMTD:toupper.obj
 0001:00060a80       _memmove                   20061a80 f   LIBCMTD:memmove.obj
 0001:00060dc0       _strstr                    20061dc0 f   LIBCMTD:strstr.obj
 0001:00060e40       _fabs                      20061e40 f   LIBCMTD:fabs.obj
 0001:00060f40       _strcmp                    20061f40 f   LIBCMTD:strcmp.obj
 0001:00060fd0       _vsprintf                  20061fd0 f   LIBCMTD:vsprintf.obj
 0001:000610d0       _abs                       200620d0 f   LIBCMTD:abs.obj
 0001:00061110       _strchr                    20062110 f   LIBCMTD:strchr.obj
 0001:00061116       ___from_strstr_to_strchr   20062116 f   LIBCMTD:strchr.obj
 0001:000611d0       __CIsin                    200621d0 f   LIBCMTD:sin.obj
 0001:000611e4       _sin                       200621e4 f   LIBCMTD:sin.obj
 0001:00061280       __CIcos                    20062280 f   LIBCMTD:cos.obj
 0001:00061294       _cos                       20062294 f   LIBCMTD:cos.obj
 0001:00061330       __CIacos                   20062330 f   LIBCMTD:acos.obj
 0001:00061344       _acos                      20062344 f   LIBCMTD:acos.obj
 0001:00061400       __assert                   20062400 f   LIBCMTD:assert.obj
 0001:00061780       __chkstk                   20062780 f   LIBCMTD:chkstk.obj
 0001:00061780       __alloca_probe             20062780 f   LIBCMTD:chkstk.obj
 0001:000617b0       __tolower                  200627b0 f   LIBCMTD:tolower.obj
 0001:000617c0       _tolower                   200627c0 f   LIBCMTD:tolower.obj
 0001:00061860       __tolower_lk               20062860 f   LIBCMTD:tolower.obj
 0001:00061990       _ceil                      20062990 f   LIBCMTD:ceil.obj
 0001:00061ad0       _qsort                     20062ad0 f   LIBCMTD:qsort.obj
 0001:00061dd0       _atan2                     20062dd0 f   LIBCMTD:87ctriga.obj
 0001:00061dda       __CIatan2                  20062dda f   LIBCMTD:87ctriga.obj
 0001:00061df0       __CRT_INIT@12              20062df0 f   LIBCMTD:dllcrt0.obj
 0001:00061f30       __DllMainCRTStartup@12     20062f30 f   LIBCMTD:dllcrt0.obj
 0001:00062030       __amsg_exit                20063030 f   LIBCMTD:dllcrt0.obj
 0001:00062070       __isctype                  20063070 f   LIBCMTD:isctype.obj
 0001:00062130       __allmul                   20063130 f   LIBCMTD:llmul.obj
 0001:00062170       __mtinit                   20063170 f   LIBCMTD:tidtable.obj
 0001:00062200       __mtterm                   20063200 f   LIBCMTD:tidtable.obj
 0001:00062230       __initptd                  20063230 f   LIBCMTD:tidtable.obj
 0001:00062250       __getptd                   20063250 f   LIBCMTD:tidtable.obj
 0001:000622f0       __freeptd                  200632f0 f   LIBCMTD:tidtable.obj
 0001:00062400       ___threadid                20063400 f   LIBCMTD:tidtable.obj
 0001:00062410       ___threadhandle            20063410 f   LIBCMTD:tidtable.obj
 0001:00062420       __setdefaultprecision      20063420 f   LIBCMTD:fp8.obj
 0001:00062440       __ms_p5_test_fdiv          20063440 f   LIBCMTD:testfdiv.obj
 0001:000624a0       __ms_p5_mp_test_fdiv       200634a0 f   LIBCMTD:testfdiv.obj
 0001:000624f0       __forcdecpt                200634f0 f   LIBCMTD:cvt.obj
 0001:000625a0       __cropzeros                200635a0 f   LIBCMTD:cvt.obj
 0001:00062680       __positive                 20063680 f   LIBCMTD:cvt.obj
 0001:000626b0       __fassign                  200636b0 f   LIBCMTD:cvt.obj
 0001:00062700       __cftoe                    20063700 f   LIBCMTD:cvt.obj
 0001:000628f0       __cftof                    200638f0 f   LIBCMTD:cvt.obj
 0001:00062aa0       __cftog                    20063aa0 f   LIBCMTD:cvt.obj
 0001:00062b90       __cfltcvt                  20063b90 f   LIBCMTD:cvt.obj
 0001:00062c20       __fltin2                   20063c20 f   LIBCMTD:cfin.obj
 0001:00062ce0       __input                    20063ce0 f   LIBCMTD:input.obj
 0001:000641e0       __CrtDbgBreak              200651e0 f   LIBCMTD:dbgrpt.obj
 0001:000641f0       __CrtSetReportMode         200651f0 f   LIBCMTD:dbgrpt.obj
 0001:00064250       __CrtSetReportFile         20065250 f   LIBCMTD:dbgrpt.obj
 0001:000642d0       __CrtSetReportHook         200652d0 f   LIBCMTD:dbgrpt.obj
 0001:000642f0       __CrtDbgReport             200652f0 f   LIBCMTD:dbgrpt.obj
 0001:00064990       __trandisp1                20065990 f   LIBCMTD:87disp.obj
 0001:000649f7       __trandisp2                200659f7 f   LIBCMTD:87disp.obj
 0001:00064a83       __rttospopde               20065a83 f   LIBCMTD:87disp.obj
 0001:00064a88       __rttospop                 20065a88 f   LIBCMTD:87disp.obj
 0001:00064a8a       __rtnospop                 20065a8a f   LIBCMTD:87disp.obj
 0001:00064a8c       __rttosnpop                20065a8c f   LIBCMTD:87disp.obj
 0001:00064a8d       __rtnospopde               20065a8d f   LIBCMTD:87disp.obj
 0001:00064a94       __rtzeropop                20065a94 f   LIBCMTD:87disp.obj
 0001:00064a96       __rtzeronpop               20065a96 f   LIBCMTD:87disp.obj
 0001:00064a9b       __rtonepop                 20065a9b f   LIBCMTD:87disp.obj
 0001:00064a9d       __rtonenpop                20065a9d f   LIBCMTD:87disp.obj
 0001:00064aa2       __tosnan1                  20065aa2 f   LIBCMTD:87disp.obj
 0001:00064acd       __nosnan2                  20065acd f   LIBCMTD:87disp.obj
 0001:00064acf       __tosnan2                  20065acf f   LIBCMTD:87disp.obj
 0001:00064af7       __nan2                     20065af7 f   LIBCMTD:87disp.obj
 0001:00064b36       __rtindfpop                20065b36 f   LIBCMTD:87disp.obj
 0001:00064b38       __rtindfnpop               20065b38 f   LIBCMTD:87disp.obj
 0001:00064b49       __rttosnpopde              20065b49 f   LIBCMTD:87disp.obj
 0001:00064b53       __rtchsifneg               20065b53 f   LIBCMTD:87disp.obj
 0001:00064b60       __startTwoArgErrorHandling 20065b60 f   LIBCMTD:genexcep.obj
 0001:00064b77       __startOneArgErrorHandling 20065b77 f   LIBCMTD:genexcep.obj
 0001:00064bc0       __twoToTOS                 20065bc0 f   LIBCMTD:common.obj
 0001:00064bd5       __load_CW                  20065bd5 f   LIBCMTD:common.obj
 0001:00064bec       __convertTOStoQNaN         20065bec f   LIBCMTD:common.obj
 0001:00064c05       __fload_withFB             20065c05 f   LIBCMTD:common.obj
 0001:00064c48       __checkTOS_withFB          20065c48 f   LIBCMTD:common.obj
 0001:00064c5e       __fast_exit                20065c5e f   LIBCMTD:common.obj
 0001:00064c6b       __math_exit                20065c6b f   LIBCMTD:common.obj
 0001:00064c95       __check_overflow_exit      20065c95 f   LIBCMTD:common.obj
 0001:00064ca9       __check_range_exit         20065ca9 f   LIBCMTD:common.obj
 0001:00064d50       __mtinitlocks              20065d50 f   LIBCMTD:mlock.obj
 0001:00064d90       __mtdeletelocks            20065d90 f   LIBCMTD:mlock.obj
 0001:00064e30       __lock                     20065e30 f   LIBCMTD:mlock.obj
 0001:00064ed0       __unlock                   20065ed0 f   LIBCMTD:mlock.obj
 0001:00064ef0       __lockerr_exit             20065ef0 f   LIBCMTD:mlock.obj
 0001:00064f10       _setlocale                 20065f10 f   LIBCMTD:setlocal.obj
 0001:000655a0       __expandlocale             200665a0 f   LIBCMTD:setlocal.obj
 0001:00065730       ___init_dummy              20066730 f   LIBCMTD:setlocal.obj
 0001:00065740       __strcats                  20066740 f   LIBCMTD:setlocal.obj
 0001:00065790       ___lc_strtolc              20066790 f   LIBCMTD:setlocal.obj
 0001:000658f0       ___lc_lctostr              200668f0 f   LIBCMTD:setlocal.obj
 0001:00065960       ___crtLCMapStringA         20066960 f   LIBCMTD:a_map.obj
 0001:00065cc0       __handle_qnan1             20066cc0 f   LIBCMTD:fpexcept.obj
 0001:00065d20       __handle_qnan2             20066d20 f   LIBCMTD:fpexcept.obj
 0001:00065d90       __except1                  20066d90 f   LIBCMTD:fpexcept.obj
 0001:00065e50       __except2                  20066e50 f   LIBCMTD:fpexcept.obj
 0001:00065f20       __raise_exc                20066f20 f   LIBCMTD:fpexcept.obj
 0001:000663f0       __handle_exc               200673f0 f   LIBCMTD:fpexcept.obj
 0001:00066770       __umatherr                 20067770 f   LIBCMTD:fpexcept.obj
 0001:00066810       __set_errno                20067810 f   LIBCMTD:fpexcept.obj
 0001:00066890       __errcode                  20067890 f   LIBCMTD:fpexcept.obj
 0001:00066910       __set_exp                  20067910 f   LIBCMTD:util.obj
 0001:00066950       __get_exp                  20067950 f   LIBCMTD:util.obj
 0001:00066980       __add_exp                  20067980 f   LIBCMTD:util.obj
 0001:000669c0       __set_bexp                 200679c0 f   LIBCMTD:util.obj
 0001:00066a00       __sptype                   20067a00 f   LIBCMTD:util.obj
 0001:00066a80       __decomp                   20067a80 f   LIBCMTD:util.obj
 0001:00066bc0       __statfp                   20067bc0 f   LIBCMTD:fpctrl.obj
 0001:00066be0       __clrfp                    20067be0 f   LIBCMTD:fpctrl.obj
 0001:00066c00       __ctrlfp                   20067c00 f   LIBCMTD:fpctrl.obj
 0001:00066c40       __set_statfp               20067c40 f   LIBCMTD:fpctrl.obj
 0001:00066cc0       __flsbuf                   20067cc0 f   LIBCMTD:_flsbuf.obj
 0001:00066f40       __output                   20067f40 f   LIBCMTD:output.obj
 0001:00067de0       _abort                     20068de0 f   LIBCMTD:abort.obj
 0001:00067e00       __cinit                    20068e00 f   LIBCMTD:crt0dat.obj
 0001:00067e40       _exit                      20068e40 f   LIBCMTD:crt0dat.obj
 0001:00067e60       __exit                     20068e60 f   LIBCMTD:crt0dat.obj
 0001:00067e80       __cexit                    20068e80 f   LIBCMTD:crt0dat.obj
 0001:00067ea0       __c_exit                   20068ea0 f   LIBCMTD:crt0dat.obj
 0001:00067fb0       __lockexit                 20068fb0 f   LIBCMTD:crt0dat.obj
 0001:00067fc0       __unlockexit               20068fc0 f   LIBCMTD:crt0dat.obj
 0001:00068000       _signal                    20069000 f   LIBCMTD:winsig.obj
 0001:000682d0       _raise                     200692d0 f   LIBCMTD:winsig.obj
 0001:00068570       ___fpecode                 20069570 f   LIBCMTD:winsig.obj
 0001:00068580       ___pxcptinfoptrs           20069580 f   LIBCMTD:winsig.obj
 0001:00068590       ___crtMessageBoxA          20069590 f   LIBCMTD:crtmbox.obj
 0001:00068650       __itoa                     20069650 f   LIBCMTD:xtoa.obj
 0001:00068770       __ltoa                     20069770 f   LIBCMTD:xtoa.obj
 0001:000687b0       __ultoa                    200697b0 f   LIBCMTD:xtoa.obj
 0001:000687d0       __i64toa                   200697d0 f   LIBCMTD:xtoa.obj
 0001:00068920       __ui64toa                  20069920 f   LIBCMTD:xtoa.obj
 0001:00068940       _strncat                   20069940 f   LIBCMTD:strncat.obj
 0001:00068a70       _fflush                    20069a70 f   LIBCMTD:fflush.obj
 0001:00068ac0       __fflush_lk                20069ac0 f   LIBCMTD:fflush.obj
 0001:00068b10       __flush                    20069b10 f   LIBCMTD:fflush.obj
 0001:00068bd0       __flushall                 20069bd0 f   LIBCMTD:fflush.obj
 0001:00068d20       _fprintf                   20069d20 f   LIBCMTD:fprintf.obj
 0001:00068df0       _setvbuf                   20069df0 f   LIBCMTD:setvbuf.obj
 0001:00068f60       ___initstdio               20069f60 f   LIBCMTD:_file.obj
 0001:00069090       ___endstdio                2006a090 f   LIBCMTD:_file.obj
 0001:000690b0       __lock_file                2006a0b0 f   LIBCMTD:_file.obj
 0001:000690f0       __lock_file2               2006a0f0 f   LIBCMTD:_file.obj
 0001:00069120       __unlock_file              2006a120 f   LIBCMTD:_file.obj
 0001:00069160       __unlock_file2             2006a160 f   LIBCMTD:_file.obj
 0001:00069190       __frnd                     2006a190 f   LIBCMTD:frnd.obj
 0001:000691cc       __fFATN2                   2006a1cc f   LIBCMTD:87triga.obj
 0001:0006921c       __rtpiby2                  2006a21c f   LIBCMTD:87triga.obj
 0001:00069260       __cintrindisp2             2006a260 f   LIBCMTD:87cdisp.obj
 0001:0006929e       __cintrindisp1             2006a29e f   LIBCMTD:87cdisp.obj
 0001:000692db       __ctrandisp2               2006a2db f   LIBCMTD:87cdisp.obj
 0001:0006945b       __ctrandisp1               2006a45b f   LIBCMTD:87cdisp.obj
 0001:0006948e       __fload                    2006a48e f   LIBCMTD:87cdisp.obj
 0001:000694d0       __ioinit                   2006a4d0 f   LIBCMTD:ioinit.obj
 0001:00069800       __ioterm                   2006a800 f   LIBCMTD:ioinit.obj
 0001:000698a0       _malloc                    2006a8a0 f   LIBCMTD:dbgheap.obj
 0001:000698c0       __malloc_dbg               2006a8c0 f   LIBCMTD:dbgheap.obj
 0001:000698f0       __nh_malloc                2006a8f0 f   LIBCMTD:dbgheap.obj
 0001:00069910       __nh_malloc_dbg            2006a910 f   LIBCMTD:dbgheap.obj
 0001:00069970       __heap_alloc               2006a970 f   LIBCMTD:dbgheap.obj
 0001:00069990       __heap_alloc_dbg           2006a990 f   LIBCMTD:dbgheap.obj
 0001:00069cb0       _calloc                    2006acb0 f   LIBCMTD:dbgheap.obj
 0001:00069cd0       __calloc_dbg               2006acd0 f   LIBCMTD:dbgheap.obj
 0001:00069d30       _realloc                   2006ad30 f   LIBCMTD:dbgheap.obj
 0001:00069d50       __realloc_dbg              2006ad50 f   LIBCMTD:dbgheap.obj
 0001:0006a2b0       __expand                   2006b2b0 f   LIBCMTD:dbgheap.obj
 0001:0006a2d0       __expand_dbg               2006b2d0 f   LIBCMTD:dbgheap.obj
 0001:0006a310       _free                      2006b310 f   LIBCMTD:dbgheap.obj
 0001:0006a330       __free_lk                  2006b330 f   LIBCMTD:dbgheap.obj
 0001:0006a350       __free_dbg                 2006b350 f   LIBCMTD:dbgheap.obj
 0001:0006a380       __free_dbg_lk              2006b380 f   LIBCMTD:dbgheap.obj
 0001:0006a770       __msize                    2006b770 f   LIBCMTD:dbgheap.obj
 0001:0006a790       __msize_dbg                2006b790 f   LIBCMTD:dbgheap.obj
 0001:0006a8f0       __CrtSetBreakAlloc         2006b8f0 f   LIBCMTD:dbgheap.obj
 0001:0006a910       __CrtSetDbgBlockType       2006b910 f   LIBCMTD:dbgheap.obj
 0001:0006a9b0       __CrtSetAllocHook          2006b9b0 f   LIBCMTD:dbgheap.obj
 0001:0006aa60       __CrtCheckMemory           2006ba60 f   LIBCMTD:dbgheap.obj
 0001:0006add0       __CrtSetDbgFlag            2006bdd0 f   LIBCMTD:dbgheap.obj
 0001:0006ae00       __CrtDoForAllClientObjects 2006be00 f   LIBCMTD:dbgheap.obj
 0001:0006ae70       __CrtIsValidPointer        2006be70 f   LIBCMTD:dbgheap.obj
 0001:0006aec0       __CrtIsValidHeapPointer    2006bec0 f   LIBCMTD:dbgheap.obj
 0001:0006af50       __CrtIsMemoryBlock         2006bf50 f   LIBCMTD:dbgheap.obj
 0001:0006b040       __CrtSetDumpClient         2006c040 f   LIBCMTD:dbgheap.obj
 0001:0006b060       __CrtMemCheckpoint         2006c060 f   LIBCMTD:dbgheap.obj
 0001:0006b1d0       __CrtMemDifference         2006c1d0 f   LIBCMTD:dbgheap.obj
 0001:0006b300       __CrtMemDumpAllObjectsSince 2006c300 f   LIBCMTD:dbgheap.obj
 0001:0006b6e0       __CrtDumpMemoryLeaks       2006c6e0 f   LIBCMTD:dbgheap.obj
 0001:0006b760       __CrtMemDumpStatistics     2006c760 f   LIBCMTD:dbgheap.obj
 0001:0006b830       __setenvp                  2006c830 f   LIBCMTD:stdenvp.obj
 0001:0006b980       __setargv                  2006c980 f   LIBCMTD:stdargv.obj
 0001:0006be90       ___crtGetEnvironmentStringsA 2006ce90 f   LIBCMTD:a_env.obj
 0001:0006c0b0       __heap_init                2006d0b0 f   LIBCMTD:heapinit.obj
 0001:0006c100       __heap_term                2006d100 f   LIBCMTD:heapinit.obj
 0001:0006c1a0       _DllMain@12                2006d1a0 f   LIBCMTD:dllmain.obj
 0001:0006c1b0       __FF_MSGBANNER             2006d1b0 f   LIBCMTD:crt0msg.obj
 0001:0006c200       __NMSG_WRITE               2006d200 f   LIBCMTD:crt0msg.obj
 0001:0006c3c0       __GET_RTERRMSG             2006d3c0 f   LIBCMTD:crt0msg.obj
 0001:0006c410       ___crtGetStringTypeA       2006d410 f   LIBCMTD:a_str.obj
 0001:0006c5d0       __XcptFilter               2006d5d0 f   LIBCMTD:winxfltr.obj
 0001:0006c7f0       __statusfp                 2006d7f0 f   LIBCMTD:ieee87.obj
 0001:0006c810       __clearfp                  2006d810 f   LIBCMTD:ieee87.obj
 0001:0006c830       __control87                2006d830 f   LIBCMTD:ieee87.obj
 0001:0006c880       __controlfp                2006d880 f   LIBCMTD:ieee87.obj
 0001:0006c8a0       __fpreset                  2006d8a0 f   LIBCMTD:ieee87.obj
 0001:0006cc90       __ZeroTail                 2006dc90 f   LIBCMTD:intrncvt.obj
 0001:0006cd20       __IncMan                   2006dd20 f   LIBCMTD:intrncvt.obj
 0001:0006cdd0       __RoundMan                 2006ddd0 f   LIBCMTD:intrncvt.obj
 0001:0006ceb0       __CopyMan                  2006deb0 f   LIBCMTD:intrncvt.obj
 0001:0006cf00       __FillZeroMan              2006df00 f   LIBCMTD:intrncvt.obj
 0001:0006cf30       __IsZeroMan                2006df30 f   LIBCMTD:intrncvt.obj
 0001:0006cf70       __ShrMan                   2006df70 f   LIBCMTD:intrncvt.obj
 0001:0006d060       __ld12cvt                  2006e060 f   LIBCMTD:intrncvt.obj
 0001:0006d2b0       __ld12tod                  2006e2b0 f   LIBCMTD:intrncvt.obj
 0001:0006d2d0       __ld12tof                  2006e2d0 f   LIBCMTD:intrncvt.obj
 0001:0006d2f0       __ld12told                 2006e2f0 f   LIBCMTD:intrncvt.obj
 0001:0006d3b0       __atodbl                   2006e3b0 f   LIBCMTD:intrncvt.obj
 0001:0006d3f0       __atoldbl                  2006e3f0 f   LIBCMTD:intrncvt.obj
 0001:0006d430       __atoflt                   2006e430 f   LIBCMTD:intrncvt.obj
 0001:0006d470       __fptostr                  2006e470 f   LIBCMTD:_fptostr.obj
 0001:0006d570       __fltout2                  2006e570 f   LIBCMTD:cfout.obj
 0001:0006d5f0       ___dtold                   2006e5f0 f   LIBCMTD:cfout.obj
 0001:0006d760       __fptrap                   2006e760 f   LIBCMTD:crt0fp.obj
 0001:0006d770       ___strgtold12              2006e770 f   LIBCMTD:strgtold.obj
 0001:0006e2a0       ___STRINGTOLD              2006f2a0 f   LIBCMTD:strgtold.obj
 0001:0006e2f0       _mbtowc                    2006f2f0 f   LIBCMTD:mbtowc.obj
 0001:0006e370       __mbtowc_lk                2006f370 f   LIBCMTD:mbtowc.obj
 0001:0006e4d0       _isalpha                   2006f4d0 f   LIBCMTD:_ctype.obj
 0001:0006e520       _isupper                   2006f520 f   LIBCMTD:_ctype.obj
 0001:0006e560       _islower                   2006f560 f   LIBCMTD:_ctype.obj
 0001:0006e5a0       _isdigit                   2006f5a0 f   LIBCMTD:_ctype.obj
 0001:0006e5e0       _isxdigit                  2006f5e0 f   LIBCMTD:_ctype.obj
 0001:0006e630       _isspace                   2006f630 f   LIBCMTD:_ctype.obj
 0001:0006e670       _ispunct                   2006f670 f   LIBCMTD:_ctype.obj
 0001:0006e6b0       _isalnum                   2006f6b0 f   LIBCMTD:_ctype.obj
 0001:0006e700       _isprint                   2006f700 f   LIBCMTD:_ctype.obj
 0001:0006e750       _isgraph                   2006f750 f   LIBCMTD:_ctype.obj
 0001:0006e7a0       _iscntrl                   2006f7a0 f   LIBCMTD:_ctype.obj
 0001:0006e7e0       ___isascii                 2006f7e0 f   LIBCMTD:_ctype.obj
 0001:0006e7f0       ___toascii                 2006f7f0 f   LIBCMTD:_ctype.obj
 0001:0006e800       ___iscsymf                 2006f800 f   LIBCMTD:_ctype.obj
 0001:0006e860       ___iscsym                  2006f860 f   LIBCMTD:_ctype.obj
 0001:0006e8c0       __allshl                   2006f8c0 f   LIBCMTD:llshl.obj
 0001:0006e8e0       __filbuf                   2006f8e0 f   LIBCMTD:_filbuf.obj
 0001:0006ead0       _ungetc                    2006fad0 f   LIBCMTD:ungetc.obj
 0001:0006eb40       __ungetc_lk                2006fb40 f   LIBCMTD:ungetc.obj
 0001:0006ec80       __snprintf                 2006fc80 f   LIBCMTD:snprintf.obj
 0001:0006ed80       __vsnprintf                2006fd80 f   LIBCMTD:vsnprint.obj
 0001:0006ee80       __87except                 2006fe80 f   LIBCMTD:87except.obj
 0001:0006f000       ___init_time               20070000 f   LIBCMTD:inittime.obj
 0001:0006f980       ___init_numeric            20070980 f   LIBCMTD:initnum.obj
 0001:0006fcb0       ___init_monetary           20070cb0 f   LIBCMTD:initmon.obj
 0001:00070110       ___init_ctype              20071110 f   LIBCMTD:initctyp.obj
 0001:000704b0       ___init_collate            200714b0 f   LIBCMTD:initcoll.obj
 0001:000704c0       _strcspn                   200714c0 f   LIBCMTD:strcspn.obj
 0001:00070500       _strncmp                   20071500 f   LIBCMTD:strncmp.obj
 0001:00070540       _strpbrk                   20071540 f   LIBCMTD:strpbrk.obj
 0001:00070580       ___get_qualified_locale    20071580 f   LIBCMTD:getqloc.obj
 0001:00071318       __global_unwind2           20072318 f   LIBCMTD:exsup.obj
 0001:0007135a       __local_unwind2            2007235a f   LIBCMTD:exsup.obj
 0001:000713b2       __NLG_Return2              200723b2 f   LIBCMTD:exsup.obj
 0001:000713c2       __abnormal_termination     200723c2 f   LIBCMTD:exsup.obj
 0001:000713e5       __NLG_Notify1              200723e5 f   LIBCMTD:exsup.obj
 0001:000713ee       __NLG_Notify               200723ee f   LIBCMTD:exsup.obj
 0001:00071401       __NLG_Dispatch             20072401 f   LIBCMTD:exsup.obj
 0001:00071410       __except_handler3          20072410 f   LIBCMTD:exsup3.obj
 0001:000714cd       __seh_longjmp_unwind@4     200724cd f   LIBCMTD:exsup3.obj
 0001:000714f0       __dosmaperr                200724f0 f   LIBCMTD:dosmap.obj
 0001:00071590       __errno                    20072590 f   LIBCMTD:dosmap.obj
 0001:000715a0       ___doserrno                200725a0 f   LIBCMTD:dosmap.obj
 0001:000715b0       __matherr                  200725b0 f   LIBCMTD:matherr.obj
 0001:000715c0       __lseek                    200725c0 f   LIBCMTD:lseek.obj
 0001:00071650       __lseek_lk                 20072650 f   LIBCMTD:lseek.obj
 0001:00071710       __write                    20072710 f   LIBCMTD:write.obj
 0001:000717a0       __write_lk                 200727a0 f   LIBCMTD:write.obj
 0001:00071a20       __getbuf                   20072a20 f   LIBCMTD:_getbuf.obj
 0001:00071af0       __isatty                   20072af0 f   LIBCMTD:isatty.obj
 0001:00071b30       _wctomb                    20072b30 f   LIBCMTD:wctomb.obj
 0001:00071bb0       __wctomb_lk                20072bb0 f   LIBCMTD:wctomb.obj
 0001:00071c50       __aulldiv                  20072c50 f   LIBCMTD:ulldiv.obj
 0001:00071cc0       __aullrem                  20072cc0 f   LIBCMTD:ullrem.obj
 0001:00071d40       __commit                   20072d40 f   LIBCMTD:commit.obj
 0001:00071e20       __stbuf                    20072e20 f   LIBCMTD:_sftbuf.obj
 0001:00071f80       __ftbuf                    20072f80 f   LIBCMTD:_sftbuf.obj
 0001:00072020       __freebuf                  20073020 f   LIBCMTD:_freebuf.obj
 0001:000720c0       __fcloseall                200730c0 f   LIBCMTD:closeall.obj
 0001:000721a0       ?_set_new_handler@@YAP6AHI@ZP6AHI@Z@Z 200731a0 f   LIBCMTD:handler.obj
 0001:000721d0       ?_query_new_handler@@YAP6AHI@ZXZ 200731d0 f   LIBCMTD:handler.obj
 0001:000721e0       __callnewh                 200731e0 f   LIBCMTD:handler.obj
 0001:00072210       __malloc_base              20073210 f   LIBCMTD:malloc.obj
 0001:00072230       __nh_malloc_base           20073230 f   LIBCMTD:malloc.obj
 0001:00072290       __heap_alloc_base          20073290 f   LIBCMTD:malloc.obj
 0001:00072300       __CrtDefaultAllocHook      20073300 f   LIBCMTD:dbghook.obj
 0001:00072310       __expand_base              20073310 f   LIBCMTD:expand.obj
 0001:000723c0       __realloc_base             200733c0 f   LIBCMTD:realloc.obj
 0001:000725b0       __free_base                200735b0 f   LIBCMTD:free.obj
 0001:00072620       __heapchk                  20073620 f   LIBCMTD:heapchk.obj
 0001:000726a0       __heapset                  200736a0 f   LIBCMTD:heapchk.obj
 0001:000726b0       __get_sbh_threshold        200736b0 f   LIBCMTD:sbheap.obj
 0001:000726c0       __set_sbh_threshold        200736c0 f   LIBCMTD:sbheap.obj
 0001:000726e0       ___sbh_heap_init           200736e0 f   LIBCMTD:sbheap.obj
 0001:00072740       ___sbh_find_block          20073740 f   LIBCMTD:sbheap.obj
 0001:000727a0       ___sbh_verify_block        200737a0 f   LIBCMTD:sbheap.obj
 0001:00072800       ___sbh_free_block          20073800 f   LIBCMTD:sbheap.obj
 0001:00072dd0       ___sbh_alloc_block         20073dd0 f   LIBCMTD:sbheap.obj
 0001:00073310       ___sbh_alloc_new_region    20074310 f   LIBCMTD:sbheap.obj
 0001:00073420       ___sbh_alloc_new_group     20074420 f   LIBCMTD:sbheap.obj
 0001:00073610       ___sbh_resize_block        20074610 f   LIBCMTD:sbheap.obj
 0001:00073c00       ___sbh_heapmin             20074c00 f   LIBCMTD:sbheap.obj
 0001:00073d30       ___sbh_heap_check          20074d30 f   LIBCMTD:sbheap.obj
 0001:00074350       _sprintf                   20075350 f   LIBCMTD:sprintf.obj
 0001:00074450       __setmbcp                  20075450 f   LIBCMTD:mbctype.obj
 0001:00074c10       __getmbcp                  20075c10 f   LIBCMTD:mbctype.obj
 0001:00074c30       ___initmbctable            20075c30 f   LIBCMTD:mbctype.obj
 0001:00074c60       ___addl                    20075c60 f   LIBCMTD:mantold.obj
 0001:00074ca0       ___add_12                  20075ca0 f   LIBCMTD:mantold.obj
 0001:00074d50       ___shl_12                  20075d50 f   LIBCMTD:mantold.obj
 0001:00074db0       ___shr_12                  20075db0 f   LIBCMTD:mantold.obj
 0001:00074e20       ___mtold12                 20075e20 f   LIBCMTD:mantold.obj
 0001:00074f60       _$I10_OUTPUT               20075f60 f   LIBCMTD:x10fout.obj
 0001:00075480       ___ld12mul                 20076480 f   LIBCMTD:tenpow.obj
 0001:000758c0       ___multtenpow12            200768c0 f   LIBCMTD:tenpow.obj
 0001:00075990       __read                     20076990 f   LIBCMTD:read.obj
 0001:00075a20       __read_lk                  20076a20 f   LIBCMTD:read.obj
 0001:00075e70       __Getdays                  20076e70 f   LIBCMTD:strftime.obj
 0001:00075fa0       __Getmonths                20076fa0 f   LIBCMTD:strftime.obj
 0001:000760d0       __Gettnames                200770d0 f   LIBCMTD:strftime.obj
 0001:00076440       _strftime                  20077440 f   LIBCMTD:strftime.obj
 0001:00076460       __Strftime                 20077460 f   LIBCMTD:strftime.obj
 0001:000772e0       ___getlocaleinfo           200782e0 f   LIBCMTD:inithelp.obj
 0001:00077570       _localeconv                20078570 f   LIBCMTD:lconv.obj
 0001:00077580       ___crtGetStringTypeW       20078580 f   LIBCMTD:w_str.obj
 0001:000777f0       __stricmp                  200787f0 f   LIBCMTD:stricmp.obj
 0001:000777f0       __strcmpi                  200787f0 f   LIBCMTD:stricmp.obj
 0001:000778c0       __strnicmp                 200788c0 f   LIBCMTD:strnicmp.obj
 0001:000779d0       __alloc_osfhnd             200789d0 f   LIBCMTD:osfinfo.obj
 0001:00077bc0       __set_osfhnd               20078bc0 f   LIBCMTD:osfinfo.obj
 0001:00077c80       __free_osfhnd              20078c80 f   LIBCMTD:osfinfo.obj
 0001:00077d60       __get_osfhandle            20078d60 f   LIBCMTD:osfinfo.obj
 0001:00077dd0       __open_osfhandle           20078dd0 f   LIBCMTD:osfinfo.obj
 0001:00077ee0       __lock_fhandle             20078ee0 f   LIBCMTD:osfinfo.obj
 0001:00077f70       __unlock_fhandle           20078f70 f   LIBCMTD:osfinfo.obj
 0001:00077fa0       _fclose                    20078fa0 f   LIBCMTD:fclose.obj
 0001:00078030       __fclose_lk                20079030 f   LIBCMTD:fclose.obj
 0001:000780f0       ___tzset                   200790f0 f   LIBCMTD:tzset.obj
 0001:00078130       __tzset                    20079130 f   LIBCMTD:tzset.obj
 0001:00078500       __isindst                  20079500 f   LIBCMTD:tzset.obj
 0001:00078a30       ___crtGetLocaleInfoW       20079a30 f   LIBCMTD:w_loc.obj
 0001:00078bd0       ___crtGetLocaleInfoA       20079bd0 f   LIBCMTD:a_loc.obj
 0001:00078d80       __close                    20079d80 f   LIBCMTD:close.obj
 0001:00078e00       __close_lk                 20079e00 f   LIBCMTD:close.obj
 0001:00078eb0       _getenv                    20079eb0 f   LIBCMTD:getenv.obj
 0001:00078ee0       __getenv_lk                20079ee0 f   LIBCMTD:getenv.obj
 0001:00078fb0       __mbsnbicoll               20079fb0 f   LIBCMTD:mbsnbico.obj
 0001:00079000       ___wtomb_environ           2007a000 f   LIBCMTD:wtombenv.obj
 0001:000790b0       ___crtCompareStringA       2007a0b0 f   LIBCMTD:a_cmp.obj
 0001:00079500       ___crtsetenv               2007a500 f   LIBCMTD:setenv.obj
 0001:00079950       __mbschr                   2007a950 f   LIBCMTD:mbschr.obj
 0001:00079a3e       _InterlockedDecrement@4    2007aa3e f   kernel32:KERNEL32.dll
 0001:00079a44       _InterlockedIncrement@4    2007aa44 f   kernel32:KERNEL32.dll
 0001:00079a4a       _GetModuleFileNameA@12     2007aa4a f   kernel32:KERNEL32.dll
 0001:00079a50       _GetCommandLineA@0         2007aa50 f   kernel32:KERNEL32.dll
 0001:00079a56       _GetVersion@0              2007aa56 f   kernel32:KERNEL32.dll
 0001:00079a5c       _GetCurrentThreadId@0      2007aa5c f   kernel32:KERNEL32.dll
 0001:00079a62       _TlsSetValue@8             2007aa62 f   kernel32:KERNEL32.dll
 0001:00079a68       _TlsAlloc@0                2007aa68 f   kernel32:KERNEL32.dll
 0001:00079a6e       _TlsFree@4                 2007aa6e f   kernel32:KERNEL32.dll
 0001:00079a74       _SetLastError@4            2007aa74 f   kernel32:KERNEL32.dll
 0001:00079a7a       _TlsGetValue@4             2007aa7a f   kernel32:KERNEL32.dll
 0001:00079a80       _GetLastError@0            2007aa80 f   kernel32:KERNEL32.dll
 0001:00079a86       _GetCurrentThread@0        2007aa86 f   kernel32:KERNEL32.dll
 0001:00079a8c       _GetProcAddress@8          2007aa8c f   kernel32:KERNEL32.dll
 0001:00079a92       _GetModuleHandleA@4        2007aa92 f   kernel32:KERNEL32.dll
 0001:00079a98       _DebugBreak@0              2007aa98 f   kernel32:KERNEL32.dll
 0001:00079a9e       _GetStdHandle@4            2007aa9e f   kernel32:KERNEL32.dll
 0001:00079aa4       _WriteFile@20              2007aaa4 f   kernel32:KERNEL32.dll
 0001:00079aaa       _OutputDebugStringA@4      2007aaaa f   kernel32:KERNEL32.dll
 0001:00079ab0       _LoadLibraryA@4            2007aab0 f   kernel32:KERNEL32.dll
 0001:00079ab6       _InitializeCriticalSection@4 2007aab6 f   kernel32:KERNEL32.dll
 0001:00079abc       _DeleteCriticalSection@4   2007aabc f   kernel32:KERNEL32.dll
 0001:00079ac2       _EnterCriticalSection@4    2007aac2 f   kernel32:KERNEL32.dll
 0001:00079ac8       _LeaveCriticalSection@4    2007aac8 f   kernel32:KERNEL32.dll
 0001:00079ace       _ExitProcess@4             2007aace f   kernel32:KERNEL32.dll
 0001:00079ad4       _FatalAppExitA@8           2007aad4 f   kernel32:KERNEL32.dll
 0001:00079ada       _Sleep@4                   2007aada f   kernel32:KERNEL32.dll
 0001:00079ae0       _WideCharToMultiByte@32    2007aae0 f   kernel32:KERNEL32.dll
 0001:00079ae6       _MultiByteToWideChar@24    2007aae6 f   kernel32:KERNEL32.dll
 0001:00079aec       _LCMapStringA@24           2007aaec f   kernel32:KERNEL32.dll
 0001:00079af2       _LCMapStringW@24           2007aaf2 f   kernel32:KERNEL32.dll
 0001:00079af8       _RaiseException@16         2007aaf8 f   kernel32:KERNEL32.dll
 0001:00079afe       _TerminateProcess@8        2007aafe f   kernel32:KERNEL32.dll
 0001:00079b04       _GetCurrentProcess@0       2007ab04 f   kernel32:KERNEL32.dll
 0001:00079b0a       _SetConsoleCtrlHandler@8   2007ab0a f   kernel32:KERNEL32.dll
 0001:00079b10       _SetHandleCount@4          2007ab10 f   kernel32:KERNEL32.dll
 0001:00079b16       _GetFileType@4             2007ab16 f   kernel32:KERNEL32.dll
 0001:00079b1c       _GetStartupInfoA@4         2007ab1c f   kernel32:KERNEL32.dll
 0001:00079b22       _IsBadWritePtr@8           2007ab22 f   kernel32:KERNEL32.dll
 0001:00079b28       _IsBadReadPtr@8            2007ab28 f   kernel32:KERNEL32.dll
 0001:00079b2e       _HeapValidate@12           2007ab2e f   kernel32:KERNEL32.dll
 0001:00079b34       _FreeEnvironmentStringsA@4 2007ab34 f   kernel32:KERNEL32.dll
 0001:00079b3a       _FreeEnvironmentStringsW@4 2007ab3a f   kernel32:KERNEL32.dll
 0001:00079b40       _GetEnvironmentStrings@0   2007ab40 f   kernel32:KERNEL32.dll
 0001:00079b46       _GetEnvironmentStringsW@0  2007ab46 f   kernel32:KERNEL32.dll
 0001:00079b4c       _HeapDestroy@4             2007ab4c f   kernel32:KERNEL32.dll
 0001:00079b52       _HeapCreate@12             2007ab52 f   kernel32:KERNEL32.dll
 0001:00079b58       _HeapFree@12               2007ab58 f   kernel32:KERNEL32.dll
 0001:00079b5e       _VirtualFree@12            2007ab5e f   kernel32:KERNEL32.dll
 0001:00079b64       _GetStringTypeA@20         2007ab64 f   kernel32:KERNEL32.dll
 0001:00079b6a       _GetStringTypeW@16         2007ab6a f   kernel32:KERNEL32.dll
 0001:00079b70       _UnhandledExceptionFilter@4 2007ab70 f   kernel32:KERNEL32.dll
 0001:00079b76       _GetCPInfo@8               2007ab76 f   kernel32:KERNEL32.dll
 0001:00079b7c       _IsValidLocale@8           2007ab7c f   kernel32:KERNEL32.dll
 0001:00079b82       _IsValidCodePage@4         2007ab82 f   kernel32:KERNEL32.dll
 0001:00079b88       _GetLocaleInfoA@16         2007ab88 f   kernel32:KERNEL32.dll
 0001:00079b8e       _EnumSystemLocalesA@8      2007ab8e f   kernel32:KERNEL32.dll
 0001:00079b94       _GetUserDefaultLCID@0      2007ab94 f   kernel32:KERNEL32.dll
 0001:00079b9a       _GetVersionExA@4           2007ab9a f   kernel32:KERNEL32.dll
 0001:00079ba0       _RtlUnwind@16              2007aba0 f   kernel32:KERNEL32.dll
 0001:00079ba6       _SetFilePointer@16         2007aba6 f   kernel32:KERNEL32.dll
 0001:00079bac       _FlushFileBuffers@4        2007abac f   kernel32:KERNEL32.dll
 0001:00079bb2       _HeapAlloc@12              2007abb2 f   kernel32:KERNEL32.dll
 0001:00079bb8       _HeapReAlloc@16            2007abb8 f   kernel32:KERNEL32.dll
 0001:00079bbe       _VirtualAlloc@16           2007abbe f   kernel32:KERNEL32.dll
 0001:00079bc4       _GetACP@0                  2007abc4 f   kernel32:KERNEL32.dll
 0001:00079bca       _GetOEMCP@0                2007abca f   kernel32:KERNEL32.dll
 0001:00079bd0       _ReadFile@20               2007abd0 f   kernel32:KERNEL32.dll
 0001:00079bd6       _SetStdHandle@8            2007abd6 f   kernel32:KERNEL32.dll
 0001:00079bdc       _GetTimeZoneInformation@4  2007abdc f   kernel32:KERNEL32.dll
 0001:00079be2       _GetLocaleInfoW@16         2007abe2 f   kernel32:KERNEL32.dll
 0001:00079be8       _CloseHandle@4             2007abe8 f   kernel32:KERNEL32.dll
 0001:00079bee       _CompareStringA@24         2007abee f   kernel32:KERNEL32.dll
 0001:00079bf4       _CompareStringW@24         2007abf4 f   kernel32:KERNEL32.dll
 0001:00079bfa       _SetEnvironmentVariableA@8 2007abfa f   kernel32:KERNEL32.dll
 0001:00080ef0       __enc$textbss$begin        20081ef0     <linker-defined>
 0001:000bc9f0       __enc$textbss$end          200bd9f0     <linker-defined>
 0002:0000001c       ??_C@_01PEAM@t?$AA@        200be01c     ai_chat.obj
 0002:00000020       ??_C@_01FMOK@n?$AA@        200be020     ai_chat.obj
 0002:00000024       ??_C@_0O@KKJL@sv_maxclients?$AA@ 200be024     ai_chat.obj
 0002:00000034       __real@4@400dfffe000000000000 200be034     ai_chat.obj
 0002:00000038       ??_C@_07DOCO@mapname?$AA@  200be038     ai_chat.obj
 0002:00000044       ??_C@_0BB@GCDJ@?$FLunknown?5weapon?$FN?$AA@ 200be044     ai_chat.obj
 0002:00000058       ??_C@_07EGAF@Grapple?$AA@  200be058     ai_chat.obj
 0002:00000064       ??_C@_06KEGK@BFG10K?$AA@   200be064     ai_chat.obj
 0002:0000006c       ??_C@_0O@JANJ@Lightning?5Gun?$AA@ 200be06c     ai_chat.obj
 0002:0000007c       ??_C@_07MJPA@Railgun?$AA@  200be07c     ai_chat.obj
 0002:00000088       ??_C@_09DDMN@Plasmagun?$AA@ 200be088     ai_chat.obj
 0002:00000094       ??_C@_0BA@JFMN@Rocket?5Launcher?$AA@ 200be094     ai_chat.obj
 0002:000000a8       ??_C@_0BB@KEFG@Grenade?5Launcher?$AA@ 200be0a8     ai_chat.obj
 0002:000000bc       ??_C@_0L@OIKI@Machinegun?$AA@ 200be0bc     ai_chat.obj
 0002:000000cc       ??_C@_08MFME@Gauntlet?$AA@ 200be0cc     ai_chat.obj
 0002:000000d8       ??_C@_07GAKK@Shotgun?$AA@  200be0d8     ai_chat.obj
 0002:000000e8       __real@8@40028e66666666666800 200be0e8     ai_chat.obj
 0002:000000f4       __real@4@00000000000000000000 200be0f4     ai_chat.obj
 0002:000000f8       __real@4@4002a000000000000000 200be0f8     ai_chat.obj
 0002:000000fc       __real@4@3fff8000000000000000 200be0fc     ai_chat.obj
 0002:00000100       __real@4@40048000000000000000 200be100     ai_chat.obj
 0002:00000104       __real@4@4003c000000000000000 200be104     ai_chat.obj
 0002:00000108       ??_C@_0L@LNAD@game_enter?$AA@ 200be108     ai_chat.obj
 0002:00000118       ??_C@_0O@KJIC@?$FLinvalid?5var?$FN?$AA@ 200be118     ai_chat.obj
 0002:00000128       __real@4@4003c800000000000000 200be128     ai_chat.obj
 0002:0000012c       ??_C@_09CAJJ@game_exit?$AA@ 200be12c     ai_chat.obj
 0002:00000138       ??_C@_0M@OGMP@level_start?$AA@ 200be138     ai_chat.obj
 0002:00000148       ??_C@_06BKGN@vtaunt?$AA@   200be148     ai_chat.obj
 0002:00000150       ??_C@_09KAIC@level_end?$AA@ 200be150     ai_chat.obj
 0002:0000015c       ??_C@_0P@IJIF@level_end_lose?$AA@ 200be15c     ai_chat.obj
 0002:00000170       ??_C@_0BC@DOAM@level_end_victory?$AA@ 200be170     ai_chat.obj
 0002:00000188       ??_C@_0N@MDMM@death_praise?$AA@ 200be188     ai_chat.obj
 0002:00000198       ??_C@_0N@HJMK@death_insult?$AA@ 200be198     ai_chat.obj
 0002:000001a8       ??_C@_09CJMK@death_bfg?$AA@ 200be1a8     ai_chat.obj
 0002:000001b4       ??_C@_0L@PPAG@death_rail?$AA@ 200be1b4     ai_chat.obj
 0002:000001c4       ??_C@_0P@PKBC@death_gauntlet?$AA@ 200be1c4     ai_chat.obj
 0002:000001d8       __real@8@3ffe8000000000000000 200be1d8     ai_chat.obj
 0002:000001e4       ??_C@_0P@NHHG@death_telefrag?$AA@ 200be1e4     ai_chat.obj
 0002:000001f8       ??_C@_0O@EGLA@death_suicide?$AA@ 200be1f8     ai_chat.obj
 0002:00000208       ??_C@_0P@ILFA@death_cratered?$AA@ 200be208     ai_chat.obj
 0002:0000021c       ??_C@_0L@LFIA@death_lava?$AA@ 200be21c     ai_chat.obj
 0002:0000022c       ??_C@_0M@PLBB@death_slime?$AA@ 200be22c     ai_chat.obj
 0002:0000023c       ??_C@_0M@IMDN@death_drown?$AA@ 200be23c     ai_chat.obj
 0002:0000024c       ??_C@_0P@FJMN@death_teammate?$AA@ 200be24c     ai_chat.obj
 0002:00000260       ??_C@_07MKCM@?$FLworld?$FN?$AA@ 200be260     ai_chat.obj
 0002:0000026c       ??_C@_0M@PAKB@kill_praise?$AA@ 200be26c     ai_chat.obj
 0002:0000027c       ??_C@_0M@EKKH@kill_insult?$AA@ 200be27c     ai_chat.obj
 0002:0000028c       ??_C@_0O@IIJJ@kill_telefrag?$AA@ 200be28c     ai_chat.obj
 0002:0000029c       ??_C@_09NNCG@kill_rail?$AA@ 200be29c     ai_chat.obj
 0002:000002a8       ??_C@_0O@KFPN@kill_gauntlet?$AA@ 200be2a8     ai_chat.obj
 0002:000002b8       ??_C@_0O@GCC@kill_teammate?$AA@ 200be2b8     ai_chat.obj
 0002:000002c8       ??_C@_0O@IPLH@enemy_suicide?$AA@ 200be2c8     ai_chat.obj
 0002:000002d8       ??_C@_00A@?$AA@            200be2d8     ai_chat.obj
 0002:000002dc       ??_C@_0M@NJPI@hit_talking?$AA@ 200be2dc     ai_chat.obj
 0002:000002ec       ??_C@_0M@FOPD@hit_nodeath?$AA@ 200be2ec     ai_chat.obj
 0002:000002fc       ??_C@_0L@GHMP@hit_nokill?$AA@ 200be2fc     ai_chat.obj
 0002:0000030c       ??_C@_0O@KCOC@random_insult?$AA@ 200be30c     ai_chat.obj
 0002:0000031c       ??_C@_0M@DHAN@random_misc?$AA@ 200be31c     ai_chat.obj
 0002:00000330       __real@8@3ffd8000000000000000 200be330     ai_chat.obj
 0002:00000340       __real@8@3ffbccccccccccccd000 200be340     ai_chat.obj
 0002:0000034c       __real@4@40008000000000000000 200be34c     ai_chat.obj
 0002:00000350       ??_C@_0BN@PHII@?$CFs?3?5I?8ve?5got?5a?5regular?5goal?6?$AA@ 200be350     ai_cmd.obj
 0002:00000374       ??_C@_0CD@KNDJ@?$CFs?3?5I?8m?5gonna?5roam?5for?5?$CF1?40f?5sec@ 200be374     ai_cmd.obj
 0002:000003a0       ??_C@_0CF@MGHF@?$CFs?3?5I?8m?5gonna?5patrol?5for?5?$CF1?40f?5s@ 200be3a0     ai_cmd.obj
 0002:000003cc       ??_C@_0CD@BKDA@?$CFs?3?5I?8m?5gonna?5camp?5for?5?$CF1?40f?5sec@ 200be3cc     ai_cmd.obj
 0002:000003f8       ??_C@_0CL@PMBG@?$CFs?3?5I?8m?5gonna?5kill?5someone?5for?5?$CF@ 200be3f8     ai_cmd.obj
 0002:0000042c       ??_C@_0CK@BPBE@?$CFs?3?5I?8m?5gonna?5get?5an?5item?5for?5?$CF1@ 200be42c     ai_cmd.obj
 0002:00000460       ??_C@_0DA@JHLN@?$CFs?3?5I?8m?5gonna?5defend?5a?5key?5area?5@ 200be460     ai_cmd.obj
 0002:0000049c       ??_C@_0DF@GGKD@?$CFs?3?5I?8m?5gonna?5try?5to?5return?5the?5@ 200be49c     ai_cmd.obj
 0002:000004dc       ??_C@_0CP@CIM@?$CFs?3?5I?8m?5gonna?5rush?5to?5the?5base?5f@ 200be4dc     ai_cmd.obj
 0002:00000514       ??_C@_0CL@JGCF@?$CFs?3?5I?8m?5gonna?5get?5the?5flag?5for?5?$CF@ 200be514     ai_cmd.obj
 0002:00000548       ??_C@_0DE@EOCA@?$CFs?3?5I?8m?5gonna?5accompany?5a?5team?5m@ 200be548     ai_cmd.obj
 0002:00000588       ??_C@_0CP@GJCO@?$CFs?3?5I?8m?5gonna?5help?5a?5team?5mate?5f@ 200be588     ai_cmd.obj
 0002:000005c0       __real@8@4004f000000000000000 200be5c0     ai_cmd.obj
 0002:000005cc       ??_C@_0CC@EELP@I?5need?5more?5key?5points?5to?5patrol@ 200be5cc     ai_cmd.obj
 0002:000005f4       ??_C@_0BB@KFCH@what?5do?5you?5say?$DP?$AA@ 200be5f4     ai_cmd.obj
 0002:00000608       ??_C@_03HMFC@?$CFd?6?$AA@  200be608     ai_cmd.obj
 0002:0000060c       __real@4@40089600000000000000 200be60c     ai_cmd.obj
 0002:00000610       __real@4@4004f000000000000000 200be610     ai_cmd.obj
 0002:00000614       ??_C@_0M@MPGC@whereareyou?$AA@ 200be614     ai_cmd.obj
 0002:00000624       ??_C@_07EKLN@whereis?$AA@  200be624     ai_cmd.obj
 0002:00000630       ??_C@_05CPEN@whois?$AA@    200be630     ai_cmd.obj
 0002:00000638       __real@4@4005f000000000000000 200be638     ai_cmd.obj
 0002:0000063c       ??_C@_03LGKI@yes?$AA@      200be63c     ai_cmd.obj
 0002:00000640       ??_C@_0L@KHJK@keepinmind?$AA@ 200be640     ai_cmd.obj
 0002:00000650       __real@4@4006b400000000000000 200be650     ai_cmd.obj
 0002:00000654       ??_C@_0L@LHAO@joinedteam?$AA@ 200be654     ai_cmd.obj
 0002:00000664       ??_C@_08ILMG@leftteam?$AA@ 200be664     ai_cmd.obj
 0002:00000670       ??_C@_06EJHB@noteam?$AA@   200be670     ai_cmd.obj
 0002:00000678       ??_C@_06BDE@inteam?$AA@    200be678     ai_cmd.obj
 0002:00000680       ??_C@_0BD@ICHC@checkpoint_confirm?$AA@ 200be680     ai_cmd.obj
 0002:00000698       ??_C@_0BC@NADC@?$CF1?40f?5?$CF1?40f?5?$CF1?40f?$AA@ 200be698     ai_cmd.obj
 0002:000006b0       ??_C@_0BD@MHPE@checkpoint_invalid?$AA@ 200be6b0     ai_cmd.obj
 0002:000006c8       ??_C@_08JPAH@?$CFf?5?$CFf?5?$CFf?$AA@ 200be6c8     ai_cmd.obj
 0002:000006d4       __real@4@4007fa00000000000000 200be6d4     ai_cmd.obj
 0002:000006d8       __real@4@4004c000000000000000 200be6d8     ai_cmd.obj
 0002:000006e0       __real@8@40048000000000000000 200be6e0     ai_cmd.obj
 0002:000006f0       __real@8@40029c0ebedfa43fe800 200be6f0     ai_cmd.obj
 0002:000006fc       ??_C@_09JMFD@dismissed?$AA@ 200be6fc     ai_cmd.obj
 0002:00000708       ??_C@_05OBKC@taunt?$AA@    200be708     ai_cmd.obj
 0002:00000710       ??_C@_04CHLA@kill?$AA@     200be710     ai_cmd.obj
 0002:00000718       ??_C@_0BF@BCG@I?8m?5the?5team?5leader?6?$AA@ 200be718     ai_cmd.obj
 0002:00000734       ??_C@_07IJBC@roaming?$AA@  200be734     ai_cmd.obj
 0002:00000740       ??_C@_0O@FGHI@returningflag?$AA@ 200be740     ai_cmd.obj
 0002:00000750       ??_C@_0M@IJOE@rushingbase?$AA@ 200be750     ai_cmd.obj
 0002:00000760       ??_C@_0O@CPED@capturingflag?$AA@ 200be760     ai_cmd.obj
 0002:00000770       ??_C@_0L@MMEH@patrolling?$AA@ 200be770     ai_cmd.obj
 0002:00000780       ??_C@_07NAAI@camping?$AA@  200be780     ai_cmd.obj
 0002:0000078c       ??_C@_07EDHI@killing?$AA@  200be78c     ai_cmd.obj
 0002:00000798       ??_C@_0M@GPN@gettingitem?$AA@ 200be798     ai_cmd.obj
 0002:000007a8       ??_C@_09IGIA@defending?$AA@ 200be7a8     ai_cmd.obj
 0002:000007b4       ??_C@_0N@PLHM@accompanying?$AA@ 200be7b4     ai_cmd.obj
 0002:000007c4       ??_C@_07CBLO@helping?$AA@  200be7c4     ai_cmd.obj
 0002:000007d0       __real@8@3fff8000000000000000 200be7d0     ai_cmd.obj
 0002:000007dc       ??_C@_08KGHI@location?$AA@ 200be7dc     ai_cmd.obj
 0002:000007e8       ??_C@_04FEG@blue?$AA@      200be7e8     ai_cmd.obj
 0002:000007f0       ??_C@_0N@DPAO@teamlocation?$AA@ 200be7f0     ai_cmd.obj
 0002:00000800       ??_C@_03CMLD@red?$AA@      200be800     ai_cmd.obj
 0002:00000808       __real@8@3ffdccccccccccccd000 200be808     ai_cmd.obj
 0002:00000814       ??_C@_09DHIB@Blue?5Flag?$AA@ 200be814     ai_cmd.obj
 0002:00000820       ??_C@_08CLEI@Red?5Flag?$AA@ 200be820     ai_cmd.obj
 0002:0000082c       ??_C@_0M@LPCG@Heavy?5Armor?$AA@ 200be82c     ai_cmd.obj
 0002:0000083c       ??_C@_05KFDN@Armor?$AA@    200be83c     ai_cmd.obj
 0002:00000844       ??_C@_06CPDM@Flight?$AA@   200be844     ai_cmd.obj
 0002:0000084c       ??_C@_0N@PHMD@Invisibility?$AA@ 200be84c     ai_cmd.obj
 0002:0000085c       ??_C@_05PDDA@Speed?$AA@    200be85c     ai_cmd.obj
 0002:00000864       ??_C@_0M@LDNA@Battle?5Suit?$AA@ 200be864     ai_cmd.obj
 0002:00000874       ??_C@_0N@KKJF@Regeneration?$AA@ 200be874     ai_cmd.obj
 0002:00000884       ??_C@_0M@MLLH@Quad?5Damage?$AA@ 200be884     ai_cmd.obj
 0002:00000894       ??_C@_0BE@HDNL@unknown?5match?5type?6?$AA@ 200be894     ai_cmd.obj
 0002:000008ac       ??_C@_0DL@PLNJ@the?5part?5of?5my?5brain?5to?5create?5f@ 200be8ac     ai_cmd.obj
 0002:000008f4       ??_C@_0CM@GOEL@?$CFs?5at?5?$CF1?41f?5switched?5more?5than?5?$CF@ 200be8f4     ai_dmnet.obj
 0002:00000928       ??_C@_0CE@JPJI@?$CFs?5at?5?$CF2?41f?5entered?5?$CFs?3?5?$CFs?5from?5@ 200be928     ai_dmnet.obj
 0002:00000954       __real@4@4008fa00000000000000 200be954     ai_dmnet.obj
 0002:00000958       __real@4@4001c000000000000000 200be958     ai_dmnet.obj
 0002:0000095c       __real@4@4003a000000000000000 200be95c     ai_dmnet.obj
 0002:00000960       ??_C@_0N@LJHO@onreturnflag?$AA@ 200be960     ai_dmnet.obj
 0002:00000970       ??_C@_0BB@DJGJ@returnflag_start?$AA@ 200be970     ai_dmnet.obj
 0002:00000984       ??_C@_09KCFH@ongetflag?$AA@ 200be984     ai_dmnet.obj
 0002:00000990       ??_C@_0BC@FOOE@captureflag_start?$AA@ 200be990     ai_dmnet.obj
 0002:000009a8       ??_C@_0M@CPLP@patrol_stop?$AA@ 200be9a8     ai_dmnet.obj
 0002:000009b8       ??_C@_0N@EALE@patrol_start?$AA@ 200be9b8     ai_dmnet.obj
 0002:000009c8       ??_C@_04PNBL@?5to?5?$AA@   200be9c8     ai_dmnet.obj
 0002:000009d0       ??_C@_0L@KDID@inposition?$AA@ 200be9d0     ai_dmnet.obj
 0002:000009e0       ??_C@_0M@ECNH@camp_arrive?$AA@ 200be9e0     ai_dmnet.obj
 0002:000009f0       __real@4@400ae100000000000000 200be9f0     ai_dmnet.obj
 0002:000009f4       ??_C@_09DPBK@camp_stop?$AA@ 200be9f4     ai_dmnet.obj
 0002:00000a00       ??_C@_0L@MHKE@camp_start?$AA@ 200bea00     ai_dmnet.obj
 0002:00000a10       ??_C@_0O@GBIE@getitem_gotit?$AA@ 200bea10     ai_dmnet.obj
 0002:00000a20       ??_C@_0BB@DCFM@getitem_notthere?$AA@ 200bea20     ai_dmnet.obj
 0002:00000a34       ??_C@_0O@CMCH@getitem_start?$AA@ 200bea34     ai_dmnet.obj
 0002:00000a44       ??_C@_09LEFD@kill_done?$AA@ 200bea44     ai_dmnet.obj
 0002:00000a50       ??_C@_0L@MEHI@kill_start?$AA@ 200bea50     ai_dmnet.obj
 0002:00000a60       __real@4@4000c000000000000000 200bea60     ai_dmnet.obj
 0002:00000a64       __real@4@400b9920000000000000 200bea64     ai_dmnet.obj
 0002:00000a68       ??_C@_0M@ELND@defend_stop?$AA@ 200bea68     ai_dmnet.obj
 0002:00000a78       ??_C@_09EKPP@ondefense?$AA@ 200bea78     ai_dmnet.obj
 0002:00000a84       ??_C@_0N@DHNA@defend_start?$AA@ 200bea84     ai_dmnet.obj
 0002:00000a94       ??_C@_0BF@JBCB@accompany_cannotfind?$AA@ 200bea94     ai_dmnet.obj
 0002:00000ab0       ??_C@_0BM@CIDN@BotLongTermGoal?3?5go?5for?5air?$AA@ 200beab0     ai_dmnet.obj
 0002:00000ad4       __real@4@40028000000000000000 200bead4     ai_dmnet.obj
 0002:00000ad8       __real@8@3ffeccccccccccccd000 200bead8     ai_dmnet.obj
 0002:00000ae8       __real@8@3ffaccccccccccccd000 200beae8     ai_dmnet.obj
 0002:00000af4       ??_C@_0BB@IPDD@accompany_arrive?$AA@ 200beaf4     ai_dmnet.obj
 0002:00000b08       __real@4@4002f000000000000000 200beb08     ai_dmnet.obj
 0002:00000b0c       __real@4@4001a000000000000000 200beb0c     ai_dmnet.obj
 0002:00000b10       __real@8@3ffeb333333333333000 200beb10     ai_dmnet.obj
 0002:00000b1c       __real@4@40018000000000000000 200beb1c     ai_dmnet.obj
 0002:00000b20       ??_C@_0P@KJBP@accompany_stop?$AA@ 200beb20     ai_dmnet.obj
 0002:00000b34       ??_C@_0BA@CDDC@accompany_start?$AA@ 200beb34     ai_dmnet.obj
 0002:00000b48       __real@4@400c9c40000000000000 200beb48     ai_dmnet.obj
 0002:00000b4c       ??_C@_0L@GIPO@help_start?$AA@ 200beb4c     ai_dmnet.obj
 0002:00000b5c       __real@4@4010f424000000000000 200beb5c     ai_dmnet.obj
 0002:00000b60       ??_C@_08NIBB@followme?$AA@ 200beb60     ai_dmnet.obj
 0002:00000b6c       ??_C@_09IAGA@lead_stop?$AA@ 200beb6c     ai_dmnet.obj
 0002:00000b78       ??_C@_0N@HBED@intermission?$AA@ 200beb78     ai_dmnet.obj
 0002:00000b88       ??_C@_0BD@JCBP@intermission?3?5chat?$AA@ 200beb88     ai_dmnet.obj
 0002:00000ba0       ??_C@_08FLDF@observer?$AA@ 200beba0     ai_dmnet.obj
 0002:00000bac       ??_C@_0BI@LPK@observer?3?5left?5observer?$AA@ 200bebac     ai_dmnet.obj
 0002:00000bc8       ??_C@_05KECD@stand?$AA@    200bebc8     ai_dmnet.obj
 0002:00000bd0       ??_C@_0BA@GMHN@stand?3?5time?5out?$AA@ 200bebd0     ai_dmnet.obj
 0002:00000be4       ??_C@_0BD@LIGN@stand?3?5found?5enemy?$AA@ 200bebe4     ai_dmnet.obj
 0002:00000bfc       ??_C@_07CFCK@respawn?$AA@  200bebfc     ai_dmnet.obj
 0002:00000c08       ??_C@_0BD@IMPF@respawn?3?5respawned?$AA@ 200bec08     ai_dmnet.obj
 0002:00000c20       ??_C@_0BA@MHDA@activate?5entity?$AA@ 200bec20     ai_dmnet.obj
 0002:00000c34       ??_C@_0BN@BLLC@activate?5entity?3?5found?5enemy?$AA@ 200bec34     ai_dmnet.obj
 0002:00000c58       ??_C@_0BL@ENJK@activate?5entity?3?5activated?$AA@ 200bec58     ai_dmnet.obj
 0002:00000c78       ??_C@_0BL@JLCH@touched?5button?5or?5trigger?6?$AA@ 200bec78     ai_dmnet.obj
 0002:00000c98       ??_C@_0BK@HBCO@activate?5entity?3?5time?5out?$AA@ 200bec98     ai_dmnet.obj
 0002:00000cb8       ??_C@_0CB@NEHO@hit?5shootable?5button?5or?5trigger?6@ 200becb8     ai_dmnet.obj
 0002:00000ce0       ??_C@_0BJ@MDIA@activate?5entity?3?5no?5goal?$AA@ 200bece0     ai_dmnet.obj
 0002:00000d00       ??_C@_0BK@IDDM@activate?5entity?3?5bot?5dead?$AA@ 200bed00     ai_dmnet.obj
 0002:00000d20       ??_C@_0BO@OLGD@activate?5entity?3?5intermission?$AA@ 200bed20     ai_dmnet.obj
 0002:00000d44       ??_C@_0BI@FCDK@active?5entity?3?5observer?$AA@ 200bed44     ai_dmnet.obj
 0002:00000d60       ??_C@_07PEIB@no?5goal?$AA@ 200bed60     ai_dmnet.obj
 0002:00000d6c       ??_C@_08GAJL@seek?5NBG?$AA@ 200bed6c     ai_dmnet.obj
 0002:00000d78       ??_C@_0BG@OHPG@seek?5nbg?3?5found?5enemy?$AA@ 200bed78     ai_dmnet.obj
 0002:00000d94       ??_C@_0BD@PNHK@seek?5nbg?3?5time?5out?$AA@ 200bed94     ai_dmnet.obj
 0002:00000dac       ??_C@_0BD@PGI@seek?5nbg?3?5bot?5dead?$AA@ 200bedac     ai_dmnet.obj
 0002:00000dc4       ??_C@_0BG@LNJO@seek?5nbg?3?5intermision?$AA@ 200bedc4     ai_dmnet.obj
 0002:00000de0       ??_C@_0BD@FGFG@seek?5nbg?3?5observer?$AA@ 200bede0     ai_dmnet.obj
 0002:00000df8       ??_C@_08NJOA@seek?5LTG?$AA@ 200bedf8     ai_dmnet.obj
 0002:00000e04       ??_C@_0O@NMEC@ltg?5seek?3?5nbg?$AA@ 200bee04     ai_dmnet.obj
 0002:00000e18       __real@8@3ff8a3d70a3d70a3d800 200bee18     ai_dmnet.obj
 0002:00000e24       ??_C@_0BG@BLH@seek?5ltg?3?5found?5enemy?$AA@ 200bee24     ai_dmnet.obj
 0002:00000e40       ??_C@_0BG@HPPI@seek?5ltg?3?5random?5chat?$AA@ 200bee40     ai_dmnet.obj
 0002:00000e5c       ??_C@_0BD@BPGE@seek?5ltg?3?5bot?5dead?$AA@ 200bee5c     ai_dmnet.obj
 0002:00000e74       ??_C@_0BH@LAHJ@seek?5ltg?3?5intermission?$AA@ 200bee74     ai_dmnet.obj
 0002:00000e90       ??_C@_0BD@EGFK@seek?5ltg?3?5observer?$AA@ 200bee90     ai_dmnet.obj
 0002:00000ea8       ??_C@_0N@HKMN@battle?5fight?$AA@ 200beea8     ai_dmnet.obj
 0002:00000eb8       ??_C@_0BP@BIB@battle?5fight?3?5wants?5to?5retreat?$AA@ 200beeb8     ai_dmnet.obj
 0002:00000ee0       ??_C@_0CB@KOLA@battle?5fight?3?5enemy?5out?5of?5sight@ 200beee0     ai_dmnet.obj
 0002:00000f08       ??_C@_0BP@MOAN@battle?5fight?3?5chat?5hit?5someone?$AA@ 200bef08     ai_dmnet.obj
 0002:00000f30       ??_C@_0CE@OJJF@battle?5fight?3?5chat?5health?5decrea@ 200bef30     ai_dmnet.obj
 0002:00000f5c       ??_C@_0BI@LJDA@battle?5fight?3?5invisible?$AA@ 200bef5c     ai_dmnet.obj
 0002:00000f78       __real@8@3ffcccccccccccccd000 200bef78     ai_dmnet.obj
 0002:00000f84       ??_C@_0BJ@EAON@battle?5fight?3?5enemy?5dead?$AA@ 200bef84     ai_dmnet.obj
 0002:00000fa4       ??_C@_0BH@KJGM@battle?5fight?3?5no?5enemy?$AA@ 200befa4     ai_dmnet.obj
 0002:00000fc0       ??_C@_0BI@BIDK@found?5new?5better?5enemy?6?$AA@ 200befc0     ai_dmnet.obj
 0002:00000fdc       ??_C@_0BH@PHAE@battle?5fight?3?5bot?5dead?$AA@ 200befdc     ai_dmnet.obj
 0002:00000ff8       ??_C@_0BL@BPDG@battle?5fight?3?5intermission?$AA@ 200beff8     ai_dmnet.obj
 0002:00001018       ??_C@_0BH@KODK@battle?5fight?3?5observer?$AA@ 200bf018     ai_dmnet.obj
 0002:00001034       ??_C@_0N@HELN@battle?5chase?$AA@ 200bf034     ai_dmnet.obj
 0002:00001044       ??_C@_0BP@CNHA@battle?5chase?3?5wants?5to?5retreat?$AA@ 200bf044     ai_dmnet.obj
 0002:0000106c       ??_C@_0BC@PMEG@battle?5chase?3?5nbg?$AA@ 200bf06c     ai_dmnet.obj
 0002:00001084       ??_C@_0BH@MPLK@battle?5chase?3?5time?5out?$AA@ 200bf084     ai_dmnet.obj
 0002:000010a0       ??_C@_0BM@NFIF@battle?5chase?3?5no?5enemy?5area?$AA@ 200bf0a0     ai_dmnet.obj
 0002:000010c4       ??_C@_0BL@ICEP@battle?5chase?3?5better?5enemy?$AA@ 200bf0c4     ai_dmnet.obj
 0002:000010e4       ??_C@_0BH@GDMA@battle?5chase?3?5no?5enemy?$AA@ 200bf0e4     ai_dmnet.obj
 0002:00001100       ??_C@_0BH@DNKI@battle?5chase?3?5bot?5dead?$AA@ 200bf100     ai_dmnet.obj
 0002:0000111c       ??_C@_0BL@KMJJ@battle?5chase?3?5intermission?$AA@ 200bf11c     ai_dmnet.obj
 0002:0000113c       ??_C@_0BH@GEJG@battle?5chase?3?5observer?$AA@ 200bf13c     ai_dmnet.obj
 0002:00001158       ??_C@_0P@IJKP@battle?5retreat?$AA@ 200bf158     ai_dmnet.obj
 0002:00001170       __real@8@3ffd9999999999999800 200bf170     ai_dmnet.obj
 0002:0000117c       ??_C@_0BE@NICC@battle?5retreat?3?5nbg?$AA@ 200bf17c     ai_dmnet.obj
 0002:00001194       __real@4@4005c800000000000000 200bf194     ai_dmnet.obj
 0002:00001198       ??_C@_0BL@JODG@battle?5retreat?3?5no?5way?5out?$AA@ 200bf198     ai_dmnet.obj
 0002:000011b8       ??_C@_0BO@DKAH@battle?5retreat?3?5another?5enemy?$AA@ 200bf1b8     ai_dmnet.obj
 0002:000011dc       ??_C@_0BL@MDJP@battle?5retreat?3?5lost?5enemy?$AA@ 200bf1dc     ai_dmnet.obj
 0002:000011fc       ??_C@_0BP@MFKK@battle?5retreat?3?5wants?5to?5chase?$AA@ 200bf1fc     ai_dmnet.obj
 0002:00001224       ??_C@_0BL@CAOM@battle?5retreat?3?5enemy?5dead?$AA@ 200bf224     ai_dmnet.obj
 0002:00001244       ??_C@_0BJ@KPOJ@battle?5retreat?3?5no?5enemy?$AA@ 200bf244     ai_dmnet.obj
 0002:00001264       ??_C@_0BJ@PBIB@battle?5retreat?3?5bot?5dead?$AA@ 200bf264     ai_dmnet.obj
 0002:00001284       ??_C@_0BN@DFLI@battle?5retreat?3?5intermission?$AA@ 200bf284     ai_dmnet.obj
 0002:000012a8       ??_C@_0BJ@KILP@battle?5retreat?3?5observer?$AA@ 200bf2a8     ai_dmnet.obj
 0002:000012c8       ??_C@_0L@KINA@battle?5NBG?$AA@ 200bf2c8     ai_dmnet.obj
 0002:000012d8       ??_C@_0BF@CJPC@battle?5nbg?3?5time?5out?$AA@ 200bf2d8     ai_dmnet.obj
 0002:000012f4       ??_C@_0BH@MFEB@battle?5nbg?3?5enemy?5dead?$AA@ 200bf2f4     ai_dmnet.obj
 0002:00001310       ??_C@_0BF@IFII@battle?5nbg?3?5no?5enemy?$AA@ 200bf310     ai_dmnet.obj
 0002:0000132c       ??_C@_0BF@NLOA@battle?5nbg?3?5bot?5dead?$AA@ 200bf32c     ai_dmnet.obj
 0002:00001348       ??_C@_0BJ@BGKJ@battle?5nbg?3?5intermission?$AA@ 200bf348     ai_dmnet.obj
 0002:00001368       ??_C@_0BF@ICNO@battle?5nbg?3?5observer?$AA@ 200bf368     ai_dmnet.obj
 0002:00001384       __real@4@40079600000000000000 200bf384     ai_dmq3.obj
 0002:00001388       ??_C@_02ELCB@no?$AA@       200bf388     ai_dmq3.obj
 0002:0000138c       __real@4@4004c800000000000000 200bf38c     ai_dmq3.obj
 0002:00001390       ??_C@_08GAOJ@onfollow?$AA@ 200bf390     ai_dmq3.obj
 0002:0000139c       ??_C@_09DOOP@ihaveflag?$AA@ 200bf39c     ai_dmq3.obj
 0002:000013a8       ??_C@_08PDLF@teamtask?$AA@ 200bf3a8     ai_dmq3.obj
 0002:000013b4       ??_C@_02MECO@?$CFd?$AA@    200bf3b4     ai_dmq3.obj
 0002:000013b8       __real@4@40068000000000000000 200bf3b8     ai_dmq3.obj
 0002:000013bc       ??_C@_0BG@NLCE@?$FLclient?5out?5of?5range?$FN?$AA@ 200bf3bc     ai_dmq3.obj
 0002:000013d8       ??_C@_0CB@HAIP@ClientName?3?5client?5out?5of?5range?6@ 200bf3d8     ai_dmq3.obj
 0002:00001400       ??_C@_05LHJL@model?$AA@    200bf400     ai_dmq3.obj
 0002:00001408       ??_C@_0CB@DPDA@ClientSkin?3?5client?5out?5of?5range?6@ 200bf408     ai_dmq3.obj
 0002:00001430       ??_C@_01FIMD@?$FN?$AA@     200bf430     ai_dmq3.obj
 0002:00001434       ??_C@_01KHLB@?$FL?$AA@     200bf434     ai_dmq3.obj
 0002:00001438       ??_C@_01FCOA@?5?$AA@       200bf438     ai_dmq3.obj
 0002:0000143c       __real@4@4003b800000000000000 200bf43c     ai_dmq3.obj
 0002:00001440       ??_C@_0CF@OPMB@BotCreateWayPoint?3?5Out?5of?5waypoi@ 200bf440     ai_dmq3.obj
 0002:0000146c       __real@4@4005a000000000000000 200bf46c     ai_dmq3.obj
 0002:00001470       __real@4@4005aa00000000000000 200bf470     ai_dmq3.obj
 0002:00001474       __real@4@4005b400000000000000 200bf474     ai_dmq3.obj
 0002:00001478       __real@4@4005be00000000000000 200bf478     ai_dmq3.obj
 0002:0000147c       __real@4@40058c00000000000000 200bf47c     ai_dmq3.obj
 0002:00001480       __real@4@400fc34f800000000000 200bf480     ai_dmq3.obj
 0002:00001488       __real@8@3ffefd70a3d70a3d7000 200bf488     ai_dmq3.obj
 0002:00001494       __real@4@4004a000000000000000 200bf494     ai_dmq3.obj
 0002:00001498       __real@4@4006c800000000000000 200bf498     ai_dmq3.obj
 0002:000014a0       __real@8@4005c000000000000000 200bf4a0     ai_dmq3.obj
 0002:000014b0       __real@8@3ffec000000000000000 200bf4b0     ai_dmq3.obj
 0002:000014bc       __real@4@4008c800000000000000 200bf4bc     ai_dmq3.obj
 0002:000014c0       __real@8@3ffee666666666666800 200bf4c0     ai_dmq3.obj
 0002:000014d0       __real@8@3ffeef5c28f5c28f6000 200bf4d0     ai_dmq3.obj
 0002:000014e0       __real@8@c006b400000000000000 200bf4e0     ai_dmq3.obj
 0002:000014f0       __real@8@4007b400000000000000 200bf4f0     ai_dmq3.obj
 0002:00001500       __real@8@4006b400000000000000 200bf500     ai_dmq3.obj
 0002:00001510       __real@8@3ffef333333333333000 200bf510     ai_dmq3.obj
 0002:00001520       __real@8@3ff583126e978d4fe000 200bf520     ai_dmq3.obj
 0002:0000152c       __real@4@400be3d0000000000000 200bf52c     ai_dmq3.obj
 0002:00001530       __real@4@4012a02e400000000000 200bf530     ai_dmq3.obj
 0002:00001538       __real@8@4008e100000000000000 200bf538     ai_dmq3.obj
 0002:00001548       __real@8@400afa00000000000000 200bf548     ai_dmq3.obj
 0002:00001554       __real@4@4007b400000000000000 200bf554     ai_dmq3.obj
 0002:00001558       __real@4@40069600000000000000 200bf558     ai_dmq3.obj
 0002:0000155c       __real@4@400bc800000000000000 200bf55c     ai_dmq3.obj
 0002:00001560       __real@8@4002a000000000000000 200bf560     ai_dmq3.obj
 0002:00001570       __real@8@4003a000000000000000 200bf570     ai_dmq3.obj
 0002:00001580       __real@8@4004c800000000000000 200bf580     ai_dmq3.obj
 0002:0000158c       __real@4@40058000000000000000 200bf58c     ai_dmq3.obj
 0002:00001590       __real@8@3ffe9999999999999800 200bf590     ai_dmq3.obj
 0002:0000159c       __real@4@40098000000000000000 200bf59c     ai_dmq3.obj
 0002:000015a0       __real@4@40038000000000000000 200bf5a0     ai_dmq3.obj
 0002:000015a4       __real@4@3ffeb333330000000000 200bf5a4     ai_dmq3.obj
 0002:000015a8       __real@4@400a9000000000000000 200bf5a8     ai_dmq3.obj
 0002:000015ac       __real@4@3ffdcccccd0000000000 200bf5ac     ai_dmq3.obj
 0002:000015b0       __real@8@4008fa00000000000000 200bf5b0     ai_dmq3.obj
 0002:000015bc       __real@4@c002c000000000000000 200bf5bc     ai_dmq3.obj
 0002:000015c0       ??_C@_0N@HAMJ@mpq3tourney6?$AA@ 200bf5c0     ai_dmq3.obj
 0002:000015d0       __real@8@40028000000000000000 200bf5d0     ai_dmq3.obj
 0002:000015dc       ??_C@_0L@FINL@q3tourney6?$AA@ 200bf5dc     ai_dmq3.obj
 0002:000015ec       __real@4@40088000000000000000 200bf5ec     ai_dmq3.obj
 0002:000015f0       ??_C@_06HECL@health?$AA@   200bf5f0     ai_dmq3.obj
 0002:000015f8       ??_C@_05LIJM@angle?$AA@    200bf5f8     ai_dmq3.obj
 0002:00001600       ??_C@_03JNMJ@lip?$AA@      200bf600     ai_dmq3.obj
 0002:00001604       __real@4@400c9c3c000000000000 200bf604     ai_dmq3.obj
 0002:00001608       ??_C@_0N@OJKH@target_delay?$AA@ 200bf608     ai_dmq3.obj
 0002:00001618       ??_C@_0N@CLCN@target_relay?$AA@ 200bf618     ai_dmq3.obj
 0002:00001628       ??_C@_0L@JLGK@func_timer?$AA@ 200bf628     ai_dmq3.obj
 0002:00001638       ??_C@_0BB@HNOL@trigger_multiple?$AA@ 200bf638     ai_dmq3.obj
 0002:00001650       __real@8@4001a000000000000000 200bf650     ai_dmq3.obj
 0002:0000165c       ??_C@_0DO@DDMN@BotGetActivateGoal?3?5entity?5with?5@ 200bf65c     ai_dmq3.obj
 0002:000016a8       ??_C@_0DA@GLKL@BotGetActivateGoal?3?5no?5entity?5wi@ 200bf6a8     ai_dmq3.obj
 0002:000016e4       ??_C@_06CCPD@target?$AA@   200bf6e4     ai_dmq3.obj
 0002:000016ec       ??_C@_0DO@KBFM@BotGetActivateGoal?3?5entity?5with?5@ 200bf6ec     ai_dmq3.obj
 0002:00001738       ??_C@_0L@PMO@targetname?$AA@ 200bf738     ai_dmq3.obj
 0002:00001748       ??_C@_0M@BFDL@func_button?$AA@ 200bf748     ai_dmq3.obj
 0002:00001758       ??_C@_06NOHF@origin?$AA@   200bf758     ai_dmq3.obj
 0002:00001760       ??_C@_0L@CANC@spawnflags?$AA@ 200bf760     ai_dmq3.obj
 0002:00001770       ??_C@_09HMCI@func_door?$AA@ 200bf770     ai_dmq3.obj
 0002:0000177c       ??_C@_0DL@EAEK@BotGetActivateGoal?3?5entity?5with?5@ 200bf77c     ai_dmq3.obj
 0002:000017c4       ??_C@_09JDJH@classname?$AA@ 200bf7c4     ai_dmq3.obj
 0002:000017d0       ??_C@_0DD@CAHE@BotGetActivateGoal?3?5no?5entity?5fo@ 200bf7d0     ai_dmq3.obj
 0002:00001810       ??_C@_03LCGD@?$CK?$CFd?$AA@ 200bf810     ai_dmq3.obj
 0002:00001814       ??_C@_0BF@KENH@BotGoForActivateGoal?$AA@ 200bf814     ai_dmq3.obj
 0002:00001830       ??_C@_0DN@LCBN@?$CFs?3?5I?5have?5to?5activate?5a?5?$CFs?5at?5?$CF@ 200bf830     ai_dmq3.obj
 0002:0000187c       ??_C@_0DP@DCKG@?$CFs?3?5I?5have?5to?5shoot?5at?5a?5?$CFs?5from@ 200bf87c     ai_dmq3.obj
 0002:000018c8       __real@4@bfff8000000000000000 200bf8c8     ai_dmq3.obj
 0002:000018cc       __real@4@40039000000000000000 200bf8cc     ai_dmq3.obj
 0002:000018d0       ??_C@_0CE@FFHL@BotCheckConsoleMessages?3?5reply?5c@ 200bf8d0     ai_dmq3.obj
 0002:00001900       __real@8@3fffc000000000000000 200bf900     ai_dmq3.obj
 0002:0000190c       ??_C@_0BK@CEGG@?$CK?$CK?$CK?$CK?5no?5valid?5reply?5?$CK?$CK?$CK?$CK?6?$AA@ 200bf90c     ai_dmq3.obj
 0002:0000192c       ??_C@_0BK@GDPA@?9?9?9?9?9?9?9?9?9?9?9?9?9?9?9?9?9?9?9?9?9?9?9?9?6?$AA@ 200bf92c     ai_dmq3.obj
 0002:0000194c       ??_C@_0O@OJLM@bot_testrchat?$AA@ 200bf94c     ai_dmq3.obj
 0002:0000195c       ??_C@_01FBAH@1?$AA@        200bf95c     ai_dmq3.obj
 0002:00001960       ??_C@_0O@IAAP@?$CKfalling1?4wav?$AA@ 200bf960     ai_dmq3.obj
 0002:00001970       ??_C@_0CP@IKFA@EV_GENERAL_SOUND?3?5eventParm?5?$CI?$CFd?$CJ@ 200bf970     ai_dmq3.obj
 0002:000019a8       ??_C@_0BP@BAMJ@sound?1items?1poweruprespawn?4wav?$AA@ 200bf9a8     ai_dmq3.obj
 0002:000019d0       ??_C@_0CO@IIPO@EV_GLOBAL_SOUND?3?5eventParm?5?$CI?$CFd?$CJ?5@ 200bf9d0     ai_dmq3.obj
 0002:00001a08       ??_C@_0CB@HNNA@BotDeathmatchAI?3?5chat?5enter?5game@ 200bfa08     ai_dmq3.obj
 0002:00001a30       ??_C@_0BM@MCBP@BotDeathmatchAI?3?5no?5ai?5node?$AA@ 200bfa30     ai_dmq3.obj
 0002:00001a54       ??_C@_07IIAF@team?5?$CFs?$AA@ 200bfa54     ai_dmq3.obj
 0002:00001a60       ??_C@_03CJDB@sex?$AA@      200bfa60     ai_dmq3.obj
 0002:00001a64       ??_C@_0BH@FFNE@CTF?5without?5Blue?5Flag?6?$AA@ 200bfa64     ai_dmq3.obj
 0002:00001a80       ??_C@_0BG@FKFD@CTF?5without?5Red?5Flag?6?$AA@ 200bfa80     ai_dmq3.obj
 0002:00001a9c       ??_C@_09DOO@g_spSkill?$AA@ 200bfa9c     ai_dmq3.obj
 0002:00001aa8       ??_C@_01KOLO@2?$AA@        200bfaa8     ai_dmq3.obj
 0002:00001aac       ??_C@_0BF@PKNE@bot_predictobstacles?$AA@ 200bfaac     ai_dmq3.obj
 0002:00001ac8       ??_C@_0O@GMHH@bot_challenge?$AA@ 200bfac8     ai_dmq3.obj
 0002:00001ad8       ??_C@_0L@PHPD@bot_nochat?$AA@ 200bfad8     ai_dmq3.obj
 0002:00001ae8       ??_C@_0N@EJK@bot_fastchat?$AA@ 200bfae8     ai_dmq3.obj
 0002:00001af8       ??_C@_0M@KMHN@bot_grapple?$AA@ 200bfaf8     ai_dmq3.obj
 0002:00001b08       ??_C@_01PLJA@0?$AA@        200bfb08     ai_dmq3.obj
 0002:00001b0c       ??_C@_0P@JABN@bot_rocketjump?$AA@ 200bfb0c     ai_dmq3.obj
 0002:00001b20       ??_C@_0L@IEJM@g_gametype?$AA@ 200bfb20     ai_dmq3.obj
 0002:00001b30       ??_C@_0BE@FAGB@unknown?5print?5type?6?$AA@ 200bfb30     ai_main.obj
 0002:00001b48       ??_C@_0L@PKFH@?$FO1Exit?3?5?$CFs?$AA@ 200bfb48     ai_main.obj
 0002:00001b58       ??_C@_0M@PGBK@?$FO1Fatal?3?5?$CFs?$AA@ 200bfb58     ai_main.obj
 0002:00001b68       ??_C@_0M@BOEE@?$FO1Error?3?5?$CFs?$AA@ 200bfb68     ai_main.obj
 0002:00001b78       ??_C@_0O@MADG@?$FO3Warning?3?5?$CFs?$AA@ 200bfb78     ai_main.obj
 0002:00001b88       ??_C@_02DILL@?$CFs?$AA@    200bfb88     ai_main.obj
 0002:00001b8c       ??_C@_0BM@HKP@?$ANarea?5?$CFd?0?5cluster?5?$CFd?5?5?5?5?5?5?5?$AA@ 200bfb8c     ai_main.obj
 0002:00001bb0       ??_C@_0CI@BGOA@?$AN?$FO1Solid?$CB?5?5?5?5?5?5?5?5?5?5?5?5?5?5?5?5?5?5?5?5?5?5?5@ 200bfbb0     ai_main.obj
 0002:00001be0       ??_C@_0O@CAKJ@?$AN?$FO1SOLID?5area?$AA@ 200bfbe0     ai_main.obj
 0002:00001bf0       ??_C@_0M@NBLC@?$ANemtpy?5area?$AA@ 200bfbf0     ai_main.obj
 0002:00001c00       ??_C@_0BE@HMBN@?$CF?920s?$CFs?$CFs?3?5roaming?6?$AA@ 200bfc00     ai_main.obj
 0002:00001c18       ??_C@_0BH@MGGA@?$CF?920s?$CFs?$CFs?3?5harvesting?6?$AA@ 200bfc18     ai_main.obj
 0002:00001c34       ??_C@_0CF@FFLL@?$CF?920s?$CFs?$CFs?3?5attacking?5the?5enemy?5b@ 200bfc34     ai_main.obj
 0002:00001c60       ??_C@_0BL@BICE@?$CF?920s?$CFs?$CFs?3?5returning?5flag?6?$AA@ 200bfc60     ai_main.obj
 0002:00001c80       ??_C@_0BJ@PJGA@?$CF?920s?$CFs?$CFs?3?5rushing?5base?6?$AA@ 200bfc80     ai_main.obj
 0002:00001ca0       ??_C@_0BL@HBAJ@?$CF?920s?$CFs?$CFs?3?5capturing?5flag?6?$AA@ 200bfca0     ai_main.obj
 0002:00001cc0       ??_C@_0BH@KCHC@?$CF?920s?$CFs?$CFs?3?5patrolling?6?$AA@ 200bfcc0     ai_main.obj
 0002:00001cdc       ??_C@_0BE@PNEE@?$CF?920s?$CFs?$CFs?3?5camping?6?$AA@ 200bfcdc     ai_main.obj
 0002:00001cf4       ??_C@_0BH@PPND@?$CF?920s?$CFs?$CFs?3?5killing?5?$CFs?6?$AA@ 200bfcf4     ai_main.obj
 0002:00001d10       ??_C@_0BM@BHGF@?$CF?920s?$CFs?$CFs?3?5getting?5item?5?$CFs?6?$AA@ 200bfd10     ai_main.obj
 0002:00001d34       ??_C@_0BJ@EBKA@?$CF?920s?$CFs?$CFs?3?5defending?5?$CFs?6?$AA@ 200bfd34     ai_main.obj
 0002:00001d54       ??_C@_0BM@JGKP@?$CF?920s?$CFs?$CFs?3?5accompanying?5?$CFs?6?$AA@ 200bfd54     ai_main.obj
 0002:00001d78       ??_C@_0BH@GCHP@?$CF?920s?$CFs?$CFs?3?5helping?5?$CFs?6?$AA@ 200bfd78     ai_main.obj
 0002:00001d94       ??_C@_04FAIH@?$FO4F?5?$AA@ 200bfd94     ai_main.obj
 0002:00001d9c       ??_C@_04EKML@?$FO1F?5?$AA@ 200bfd9c     ai_main.obj
 0002:00001da4       ??_C@_02IHLC@?5?5?$AA@     200bfda4     ai_main.obj
 0002:00001da8       ??_C@_01FLCE@L?$AA@        200bfda8     ai_main.obj
 0002:00001dac       ??_C@_07JMJI@?$FO4BLUE?6?$AA@ 200bfdac     ai_main.obj
 0002:00001db8       ??_C@_06GBGP@?$FO1RED?6?$AA@ 200bfdb8     ai_main.obj
 0002:00001dc0       ??_C@_0P@EPGP@l?2?$CFs?2c?2?$CFs?2a?2?$CFs?$AA@ 200bfdc0     ai_main.obj
 0002:00001dd4       ??_C@_0L@OKJH@roaming?5?$CFs?$AA@ 200bfdd4     ai_main.obj
 0002:00001de4       ??_C@_0L@NOLF@harvesting?$AA@ 200bfde4     ai_main.obj
 0002:00001df4       ??_C@_0BJ@PEAP@attacking?5the?5enemy?5base?$AA@ 200bfdf4     ai_main.obj
 0002:00001e14       ??_C@_0P@ECK@returning?5flag?$AA@ 200bfe14     ai_main.obj
 0002:00001e28       ??_C@_0N@FOJL@rushing?5base?$AA@ 200bfe28     ai_main.obj
 0002:00001e38       ??_C@_0P@CJFD@capturing?5flag?$AA@ 200bfe38     ai_main.obj
 0002:00001e4c       ??_C@_0L@GNKG@killing?5?$CFs?$AA@ 200bfe4c     ai_main.obj
 0002:00001e5c       ??_C@_0BA@EANM@getting?5item?5?$CFs?$AA@ 200bfe5c     ai_main.obj
 0002:00001e70       ??_C@_0N@JOAO@defending?5?$CFs?$AA@ 200bfe70     ai_main.obj
 0002:00001e80       ??_C@_0BA@IKOM@accompanying?5?$CFs?$AA@ 200bfe80     ai_main.obj
 0002:00001e94       ??_C@_0L@MBCA@helping?5?$CFs?$AA@ 200bfe94     ai_main.obj
 0002:00001ea4       ??_C@_02IPLK@F?5?$AA@      200bfea4     ai_main.obj
 0002:00001ea8       ??_C@_0BE@DGLD@bot_interbreedwrite?$AA@ 200bfea8     ai_main.obj
 0002:00001ec0       ??_C@_0BD@MHOO@bot_interbreedchar?$AA@ 200bfec0     ai_main.obj
 0002:00001ed8       ??_C@_0BK@MPHC@addbot?5?$CFs?54?5free?5?$CFi?5?$CFs?$CFd?6?$AA@ 200bfed8     ai_main.obj
 0002:00001ef8       ??_C@_0BF@KLBA@bot_reloadcharacters?$AA@ 200bfef8     ai_main.obj
 0002:00001f18       __real@8@3ffde666666666666800 200bff18     ai_main.obj
 0002:00001f24       __real@4@c006b400000000000000 200bff24     ai_main.obj
 0002:00001f28       __real@4@4006f000000000000000 200bff28     ai_main.obj
 0002:00001f2c       __real@4@4007c800000000000000 200bff2c     ai_main.obj
 0002:00001f30       __real@4@4005fe00000000000000 200bff30     ai_main.obj
 0002:00001f34       __real@4@400f8000000000000000 200bff34     ai_main.obj
 0002:00001f38       __real@8@3ff7b400000000000000 200bff38     ai_main.obj
 0002:00001f44       ??_C@_0BA@OGON@clientLevelShot?$AA@ 200bff44     ai_main.obj
 0002:00001f58       ??_C@_06CLLB@scores?$AA@   200bff58     ai_main.obj
 0002:00001f60       ??_C@_05NEJE@tchat?$AA@    200bff60     ai_main.obj
 0002:00001f68       ??_C@_04FLKK@chat?$AA@     200bff68     ai_main.obj
 0002:00001f70       ??_C@_05KCGF@print?$AA@    200bff70     ai_main.obj
 0002:00001f78       ??_C@_02OFOB@cs?$AA@       200bff78     ai_main.obj
 0002:00001f7c       ??_C@_03HGPK@cp?5?$AA@     200bff7c     ai_main.obj
 0002:00001f80       ??_C@_0BP@CGBK@BotAI?3?5client?5?$CFd?5is?5not?5setup?6?$AA@ 200bff80     ai_main.obj
 0002:00001fa8       ??_C@_0N@EHJA@botsession?$CFi?$AA@ 200bffa8     ai_main.obj
 0002:00001fb8       ??_C@_0DD@JGJ@?$CFi?5?$CFi?5?$CFi?5?$CFi?5?$CFi?5?$CFi?5?$CFi?5?$CFi?5?$CFf?5?$CFf?5?$CFf@ 200bffb8     ai_main.obj
 0002:00001ff8       ??_C@_0O@KKM@bot_testichat?$AA@ 200bfff8     ai_main.obj
 0002:00002008       ??_C@_0CA@HCCD@couldn?8t?5load?5skill?5?$CFf?5from?5?$CFs?6?$AA@ 200c0008     ai_main.obj
 0002:00002030       ??_C@_0BF@DKHA@AAS?5not?5initialized?6?$AA@ 200c0030     ai_main.obj
 0002:0000204c       ??_C@_0CL@CIIC@BotAISetupClient?3?5client?5?$CFd?5alre@ 200c004c     ai_main.obj
 0002:00002080       ??_C@_0O@GOAJ@bot_thinktime?$AA@ 200c0080     ai_main.obj
 0002:00002090       ??_C@_03IDPJ@200?$AA@      200c0090     ai_main.obj
 0002:00002094       ??_C@_0BF@LIBI@bot_saveroutingcache?$AA@ 200c0094     ai_main.obj
 0002:000020b0       ??_C@_0BB@BODP@saveroutingcache?$AA@ 200c00b0     ai_main.obj
 0002:000020c4       ??_C@_0P@GPE@bot_memorydump?$AA@ 200c00c4     ai_main.obj
 0002:000020d8       ??_C@_0L@HHKE@memorydump?$AA@ 200c00d8     ai_main.obj
 0002:000020e8       ??_C@_05NOEM@cddir?$AA@    200c00e8     ai_main.obj
 0002:000020f0       ??_C@_09MOEB@fs_cdpath?$AA@ 200c00f0     ai_main.obj
 0002:000020fc       ??_C@_07MNHC@gamedir?$AA@  200c00fc     ai_main.obj
 0002:00002108       ??_C@_07CCMH@fs_game?$AA@  200c0108     ai_main.obj
 0002:00002114       ??_C@_07JKBB@basedir?$AA@  200c0114     ai_main.obj
 0002:00002120       ??_C@_0M@CIA@fs_basepath?$AA@ 200c0120     ai_main.obj
 0002:00002130       ??_C@_0M@GINN@aasoptimize?$AA@ 200c0130     ai_main.obj
 0002:00002140       ??_C@_0BA@IDKM@bot_aasoptimize?$AA@ 200c0140     ai_main.obj
 0002:00002154       ??_C@_0L@JKLN@forcewrite?$AA@ 200c0154     ai_main.obj
 0002:00002164       ??_C@_0P@OLON@bot_forcewrite?$AA@ 200c0164     ai_main.obj
 0002:00002178       ??_C@_0BC@FEKN@forcereachability?$AA@ 200c0178     ai_main.obj
 0002:00002190       ??_C@_0BG@ICAL@bot_forcereachability?$AA@ 200c0190     ai_main.obj
 0002:000021ac       ??_C@_0BA@FICF@forceclustering?$AA@ 200c01ac     ai_main.obj
 0002:000021c0       ??_C@_0BE@HPCF@bot_forceclustering?$AA@ 200c01c0     ai_main.obj
 0002:000021d8       ??_C@_0BG@MPGF@bot_visualizejumppads?$AA@ 200c01d8     ai_main.obj
 0002:000021f4       ??_C@_06DLEI@nochat?$AA@   200c01f4     ai_main.obj
 0002:000021fc       ??_C@_03BGKD@log?$AA@      200c01fc     ai_main.obj
 0002:00002200       ??_C@_0O@POCA@bot_developer?$AA@ 200c0200     ai_main.obj
 0002:00002210       ??_C@_0P@GPPK@max_levelitems?$AA@ 200c0210     ai_main.obj
 0002:00002224       ??_C@_0N@LKAP@max_aaslinks?$AA@ 200c0224     ai_main.obj
 0002:00002234       ??_C@_0P@FLOG@sv_mapChecksum?$AA@ 200c0234     ai_main.obj
 0002:00002248       ??_C@_0M@NLOP@maxentities?$AA@ 200c0248     ai_main.obj
 0002:00002258       ??_C@_0L@IGMM@maxclients?$AA@ 200c0258     ai_main.obj
 0002:00002268       ??_C@_01KPCI@8?$AA@        200c0268     ai_main.obj
 0002:0000226c       ??_C@_0BE@BKHA@bot_interbreedcycle?$AA@ 200c026c     ai_main.obj
 0002:00002284       ??_C@_02GJDO@20?$AA@       200c0284     ai_main.obj
 0002:00002288       ??_C@_0BD@NAOD@bot_interbreedbots?$AA@ 200c0288     ai_main.obj
 0002:000022a0       ??_C@_02FCMB@10?$AA@       200c02a0     ai_main.obj
 0002:000022a4       ??_C@_0BB@HEAB@bot_testclusters?$AA@ 200c02a4     ai_main.obj
 0002:000022b8       ??_C@_0O@KCDP@bot_testsolid?$AA@ 200c02b8     ai_main.obj
 0002:000022c8       ??_C@_0L@MCPA@bot_report?$AA@ 200c02c8     ai_main.obj
 0002:000022d8       ??_C@_09EKMD@bot_pause?$AA@ 200c02d8     ai_main.obj
 0002:000022e4       ??_C@_03HFMC@100?$AA@      200c02e4     ai_main.obj
 0002:000022e8       ??_C@_0M@DPHC@?$BJ?$CI?$CFs?$BJ?$CJ?$BJ?3?5?$CFs?$AA@ 200c02e8     ai_team.obj
 0002:000022f8       ??_C@_0L@MJBL@returnflag?$AA@ 200c02f8     ai_team.obj
 0002:00002308       ??_C@_0BC@MPEC@followflagcarrier?$AA@ 200c0308     ai_team.obj
 0002:00002320       ??_C@_0O@CPMP@cmd_accompany?$AA@ 200c0320     ai_team.obj
 0002:00002330       ??_C@_0BA@DHII@cmd_accompanyme?$AA@ 200c0330     ai_team.obj
 0002:00002344       ??_C@_07NLAE@getflag?$AA@  200c0344     ai_team.obj
 0002:00002350       ??_C@_0M@DCEB@cmd_getflag?$AA@ 200c0350     ai_team.obj
 0002:00002360       ??_C@_06LLPL@defend?$AA@   200c0360     ai_team.obj
 0002:00002368       ??_C@_0P@KOKO@cmd_defendbase?$AA@ 200c0368     ai_team.obj
 0002:0000237c       ??_C@_0M@OJDM@startleader?$AA@ 200c037c     ai_team.obj
 0002:0000238c       ??_C@_0O@IMJL@iamteamleader?$AA@ 200c038c     ai_team.obj
 0002:0000239c       ??_C@_0BA@IG@whoisteamleader?$AA@ 200c039c     ai_team.obj
 0002:000023b0       ??_C@_0O@JNKM@wantonoffense?$AA@ 200c03b0     ai_vcmd.obj
 0002:000023c0       ??_C@_0O@CEFP@wantondefense?$AA@ 200c03c0     ai_vcmd.obj
 0002:000023d0       ??_C@_0M@LDML@whoisleader?$AA@ 200c03d0     ai_vcmd.obj
 0002:000023e0       ??_C@_0L@NNKC@stopleader?$AA@ 200c03e0     ai_vcmd.obj
 0002:000023f0       ??_C@_04NMKL@camp?$AA@     200c03f0     ai_vcmd.obj
 0002:000023f8       ??_C@_06PFHA@patrol?$AA@   200c03f8     ai_vcmd.obj
 0002:00002400       ??_C@_0L@OLP@defendflag?$AA@ 200c0400     ai_vcmd.obj
 0002:00002410       ??_C@_07IKFP@offense?$AA@  200c0410     ai_vcmd.obj
 0002:0000241c       ??_C@_08KGLG@onpatrol?$AA@ 200c041c     ai_vcmd.obj
 0002:00002428       ??_C@_0BL@FFOI@EV_TAUNTEV_JUMP_PAD_ENTITY?$AA@ 200c0428     bg_misc.obj
 0002:00002448       ??_C@_0BE@BDJC@EV_STOPLOOPINGSOUND?$AA@ 200c0448     bg_misc.obj
 0002:00002460       ??_C@_0O@BDBB@EV_DEBUG_LINE?$AA@ 200c0460     bg_misc.obj
 0002:00002470       ??_C@_0BB@MBOB@EV_LIGHTNINGBOLT?$AA@ 200c0470     bg_misc.obj
 0002:00002484       ??_C@_09JFKJ@EV_JUICED?$AA@ 200c0484     bg_misc.obj
 0002:00002490       ??_C@_0BA@GDOI@EV_INVUL_IMPACT?$AA@ 200c0490     bg_misc.obj
 0002:000024a4       ??_C@_0BC@POAK@EV_OBELISKEXPLODE?$AA@ 200c04a4     bg_misc.obj
 0002:000024bc       ??_C@_0M@KIDO@EV_KAMIKAZE?$AA@ 200c04bc     bg_misc.obj
 0002:000024cc       ??_C@_0BK@KGMO@EV_PROXIMITY_MINE_TRIGGER?$AA@ 200c04cc     bg_misc.obj
 0002:000024ec       ??_C@_0BI@LIAD@EV_PROXIMITY_MINE_STICK?$AA@ 200c04ec     bg_misc.obj
 0002:00002508       ??_C@_0N@CDHP@EV_SCOREPLUM?$AA@ 200c0508     bg_misc.obj
 0002:00002518       ??_C@_0O@CIDG@EV_GIB_PLAYER?$AA@ 200c0518     bg_misc.obj
 0002:00002528       ??_C@_0BB@LKNF@EV_POWERUP_REGEN?$AA@ 200c0528     bg_misc.obj
 0002:0000253c       ??_C@_0BG@KJJ@EV_POWERUP_BATTLESUIT?$AA@ 200c053c     bg_misc.obj
 0002:00002558       ??_C@_0BA@EMDG@EV_POWERUP_QUAD?$AA@ 200c0558     bg_misc.obj
 0002:0000256c       ??_C@_0M@MMOI@EV_OBITUARY?$AA@ 200c056c     bg_misc.obj
 0002:0000257c       ??_C@_09EH@EV_DEATH3?$AA@  200c057c     bg_misc.obj
 0002:00002588       ??_C@_09KKNA@EV_DEATH2?$AA@ 200c0588     bg_misc.obj
 0002:00002594       ??_C@_09FFGJ@EV_DEATH1?$AA@ 200c0594     bg_misc.obj
 0002:000025a0       ??_C@_07MFPI@EV_PAIN?$AA@  200c05a0     bg_misc.obj
 0002:000025ac       ??_C@_09PBG@EV_BULLET?$AA@ 200c05ac     bg_misc.obj
 0002:000025b8       ??_C@_0L@PELA@EV_SHOTGUN?$AA@ 200c05b8     bg_misc.obj
 0002:000025c8       ??_C@_0N@FBDJ@EV_RAILTRAIL?$AA@ 200c05c8     bg_misc.obj
 0002:000025d8       ??_C@_0BG@KLM@EV_MISSILE_MISS_METAL?$AA@ 200c05d8     bg_misc.obj
 0002:000025f4       ??_C@_0BA@FHCK@EV_MISSILE_MISS?$AA@ 200c05f4     bg_misc.obj
 0002:00002608       ??_C@_0P@GMEB@EV_MISSILE_HIT?$AA@ 200c0608     bg_misc.obj
 0002:0000261c       ??_C@_0BD@FCGB@EV_BULLET_HIT_WALL?$AA@ 200c061c     bg_misc.obj
 0002:00002634       ??_C@_0BE@OJNL@EV_BULLET_HIT_FLESH?$AA@ 200c0634     bg_misc.obj
 0002:0000264c       ??_C@_0BF@GBCB@EV_GLOBAL_TEAM_SOUND?$AA@ 200c064c     bg_misc.obj
 0002:00002668       ??_C@_0BA@DICP@EV_GLOBAL_SOUND?$AA@ 200c0668     bg_misc.obj
 0002:0000267c       ??_C@_0BB@PHBP@EV_GENERAL_SOUND?$AA@ 200c067c     bg_misc.obj
 0002:00002690       ??_C@_0BC@MNAB@EV_GRENADE_BOUNCE?$AA@ 200c0690     bg_misc.obj
 0002:000026a8       ??_C@_0BH@CBAJ@EV_PLAYER_TELEPORT_OUT?$AA@ 200c06a8     bg_misc.obj
 0002:000026c4       ??_C@_0BG@JACO@EV_PLAYER_TELEPORT_IN?$AA@ 200c06c4     bg_misc.obj
 0002:000026e0       ??_C@_0M@FEGJ@EV_ITEM_POP?$AA@ 200c06e0     bg_misc.obj
 0002:000026f0       ??_C@_0BA@KOE@EV_ITEM_RESPAWN?$AA@ 200c06f0     bg_misc.obj
 0002:00002704       ??_C@_0O@PBJJ@EV_USE_ITEM15?$AA@ 200c0704     bg_misc.obj
 0002:00002714       ??_C@_0O@FLAO@EV_USE_ITEM14?$AA@ 200c0714     bg_misc.obj
 0002:00002724       ??_C@_0O@OOL@EV_USE_ITEM13?$AA@ 200c0724     bg_misc.obj
 0002:00002734       ??_C@_0O@KEHM@EV_USE_ITEM12?$AA@ 200c0734     bg_misc.obj
 0002:00002744       ??_C@_0O@FLMF@EV_USE_ITEM11?$AA@ 200c0744     bg_misc.obj
 0002:00002754       ??_C@_0O@PBFC@EV_USE_ITEM10?$AA@ 200c0754     bg_misc.obj
 0002:00002764       ??_C@_0N@JGCE@EV_USE_ITEM9?$AA@ 200c0764     bg_misc.obj
 0002:00002774       ??_C@_0N@DMLD@EV_USE_ITEM8?$AA@ 200c0774     bg_misc.obj
 0002:00002784       ??_C@_0N@DNOO@EV_USE_ITEM7?$AA@ 200c0784     bg_misc.obj
 0002:00002794       ??_C@_0N@JHHJ@EV_USE_ITEM6?$AA@ 200c0794     bg_misc.obj
 0002:000027a4       ??_C@_0N@GIMA@EV_USE_ITEM5?$AA@ 200c07a4     bg_misc.obj
 0002:000027b4       ??_C@_0N@MCFH@EV_USE_ITEM4?$AA@ 200c07b4     bg_misc.obj
 0002:000027c4       ??_C@_0N@JHLC@EV_USE_ITEM3?$AA@ 200c07c4     bg_misc.obj
 0002:000027d4       ??_C@_0N@DNCF@EV_USE_ITEM2?$AA@ 200c07d4     bg_misc.obj
 0002:000027e4       ??_C@_0N@MCJM@EV_USE_ITEM1?$AA@ 200c07e4     bg_misc.obj
 0002:000027f4       ??_C@_0N@GIAL@EV_USE_ITEM0?$AA@ 200c07f4     bg_misc.obj
 0002:00002804       ??_C@_0P@HOLG@EV_FIRE_WEAPON?$AA@ 200c0804     bg_misc.obj
 0002:00002818       ??_C@_0BB@OKAK@EV_CHANGE_WEAPON?$AA@ 200c0818     bg_misc.obj
 0002:0000282c       ??_C@_09MIBL@EV_NOAMMO?$AA@ 200c082c     bg_misc.obj
 0002:00002838       ??_C@_0BG@LBJI@EV_GLOBAL_ITEM_PICKUP?$AA@ 200c0838     bg_misc.obj
 0002:00002854       ??_C@_0P@DDBJ@EV_ITEM_PICKUP?$AA@ 200c0854     bg_misc.obj
 0002:00002868       ??_C@_0P@HGEE@EV_WATER_CLEAR?$AA@ 200c0868     bg_misc.obj
 0002:0000287c       ??_C@_0P@PGNG@EV_WATER_UNDER?$AA@ 200c087c     bg_misc.obj
 0002:00002890       ??_C@_0P@KHGF@EV_WATER_LEAVE?$AA@ 200c0890     bg_misc.obj
 0002:000028a4       ??_C@_0P@NPME@EV_WATER_TOUCH?$AA@ 200c08a4     bg_misc.obj
 0002:000028b8       ??_C@_07MBMN@EV_JUMP?$AA@  200c08b8     bg_misc.obj
 0002:000028c4       ??_C@_0M@ONMG@EV_JUMP_PAD?$AA@ 200c08c4     bg_misc.obj
 0002:000028d4       ??_C@_0M@FCFB@EV_FALL_FAR?$AA@ 200c08d4     bg_misc.obj
 0002:000028e4       ??_C@_0P@DAAM@EV_FALL_MEDIUM?$AA@ 200c08e4     bg_misc.obj
 0002:000028f8       ??_C@_0O@MOHH@EV_FALL_SHORT?$AA@ 200c08f8     bg_misc.obj
 0002:00002908       ??_C@_0L@BPHB@EV_STEP_16?$AA@ 200c0908     bg_misc.obj
 0002:00002918       ??_C@_0L@LFCN@EV_STEP_12?$AA@ 200c0918     bg_misc.obj
 0002:00002928       ??_C@_09GNLK@EV_STEP_8?$AA@ 200c0928     bg_misc.obj
 0002:00002934       ??_C@_09JDFO@EV_STEP_4?$AA@ 200c0934     bg_misc.obj
 0002:00002940       ??_C@_07JIKK@EV_SWIM?$AA@  200c0940     bg_misc.obj
 0002:0000294c       ??_C@_0M@FIHK@EV_FOOTWADE?$AA@ 200c094c     bg_misc.obj
 0002:0000295c       ??_C@_0O@KHFI@EV_FOOTSPLASH?$AA@ 200c095c     bg_misc.obj
 0002:0000296c       ??_C@_0BC@OEIA@EV_FOOTSTEP_METAL?$AA@ 200c096c     bg_misc.obj
 0002:00002984       ??_C@_0M@EJAF@EV_FOOTSTEP?$AA@ 200c0984     bg_misc.obj
 0002:00002994       ??_C@_07NDDD@EV_NONE?$AA@  200c0994     bg_misc.obj
 0002:000029a0       ??_C@_0BB@NLLL@icons?1iconf_blu1?$AA@ 200c09a0     bg_misc.obj
 0002:000029b4       ??_C@_0BI@ILPD@models?1flags?1b_flag?4md3?$AA@ 200c09b4     bg_misc.obj
 0002:000029d0       ??_C@_0BC@GPLF@team_CTF_blueflag?$AA@ 200c09d0     bg_misc.obj
 0002:000029e8       ??_C@_0BB@DADK@icons?1iconf_red1?$AA@ 200c09e8     bg_misc.obj
 0002:000029fc       ??_C@_0BI@HHNH@models?1flags?1r_flag?4md3?$AA@ 200c09fc     bg_misc.obj
 0002:00002a18       ??_C@_0BB@FOCB@team_CTF_redflag?$AA@ 200c0a18     bg_misc.obj
 0002:00002a2c       ??_C@_0N@DFIJ@icons?1flight?$AA@ 200c0a2c     bg_misc.obj
 0002:00002a3c       ??_C@_0CI@PHJ@models?1powerups?1instant?1flight_r@ 200c0a3c     bg_misc.obj
 0002:00002a6c       ??_C@_0CD@MKAO@models?1powerups?1instant?1flight?4m@ 200c0a6c     bg_misc.obj
 0002:00002a98       ??_C@_0BH@FEAN@sound?1items?1flight?4wav?$AA@ 200c0a98     bg_misc.obj
 0002:00002ab4       ??_C@_0M@NKLB@item_flight?$AA@ 200c0ab4     bg_misc.obj
 0002:00002ac4       ??_C@_0BG@JFPE@sound?1items?1regen?4wav?$AA@ 200c0ac4     bg_misc.obj
 0002:00002ae0       ??_C@_0M@KGFF@icons?1regen?$AA@ 200c0ae0     bg_misc.obj
 0002:00002af0       ??_C@_0CH@LMHA@models?1powerups?1instant?1regen_ri@ 200c0af0     bg_misc.obj
 0002:00002b20       ??_C@_0CC@JDKK@models?1powerups?1instant?1regen?4md@ 200c0b20     bg_misc.obj
 0002:00002b48       ??_C@_0BN@ELHM@sound?1items?1regeneration?4wav?$AA@ 200c0b48     bg_misc.obj
 0002:00002b6c       ??_C@_0L@JOKD@item_regen?$AA@ 200c0b6c     bg_misc.obj
 0002:00002b7c       ??_C@_0M@GBKC@icons?1invis?$AA@ 200c0b7c     bg_misc.obj
 0002:00002b8c       ??_C@_0CH@FMDJ@models?1powerups?1instant?1invis_ri@ 200c0b8c     bg_misc.obj
 0002:00002bbc       ??_C@_0CC@GFDH@models?1powerups?1instant?1invis?4md@ 200c0bbc     bg_misc.obj
 0002:00002be4       ??_C@_0BN@JBDA@sound?1items?1invisibility?4wav?$AA@ 200c0be4     bg_misc.obj
 0002:00002c08       ??_C@_0L@FJFE@item_invis?$AA@ 200c0c08     bg_misc.obj
 0002:00002c18       ??_C@_0M@MOBK@icons?1haste?$AA@ 200c0c18     bg_misc.obj
 0002:00002c28       ??_C@_0CH@HLNN@models?1powerups?1instant?1haste_ri@ 200c0c28     bg_misc.obj
 0002:00002c58       ??_C@_0CC@HMKI@models?1powerups?1instant?1haste?4md@ 200c0c58     bg_misc.obj
 0002:00002c80       ??_C@_0BG@HKPG@sound?1items?1haste?4wav?$AA@ 200c0c80     bg_misc.obj
 0002:00002c9c       ??_C@_0L@PGOM@item_haste?$AA@ 200c0c9c     bg_misc.obj
 0002:00002cac       ??_C@_0DA@KGOL@sound?1items?1airout?4wav?5sound?1ite@ 200c0cac     bg_misc.obj
 0002:00002ce8       ??_C@_0BB@LIEJ@icons?1envirosuit?$AA@ 200c0ce8     bg_misc.obj
 0002:00002cfc       ??_C@_0CI@BLEN@models?1powerups?1instant?1enviro_r@ 200c0cfc     bg_misc.obj
 0002:00002d2c       ??_C@_0CD@EJAP@models?1powerups?1instant?1enviro?4m@ 200c0d2c     bg_misc.obj
 0002:00002d58       ??_C@_0BI@LHNB@sound?1items?1protect?4wav?$AA@ 200c0d58     bg_misc.obj
 0002:00002d74       ??_C@_0M@CNAP@item_enviro?$AA@ 200c0d74     bg_misc.obj
 0002:00002d84       ??_C@_0DA@MMGJ@sound?1items?1damage2?4wav?5sound?1it@ 200c0d84     bg_misc.obj
 0002:00002dc0       ??_C@_0L@CMEC@icons?1quad?$AA@ 200c0dc0     bg_misc.obj
 0002:00002dd0       ??_C@_0CG@HCKJ@models?1powerups?1instant?1quad_rin@ 200c0dd0     bg_misc.obj
 0002:00002e00       ??_C@_0CB@LCDA@models?1powerups?1instant?1quad?4md3@ 200c0e00     bg_misc.obj
 0002:00002e28       ??_C@_0BL@FBJD@sound?1items?1quaddamage?4wav?$AA@ 200c0e28     bg_misc.obj
 0002:00002e48       ??_C@_09NKAN@item_quad?$AA@ 200c0e48     bg_misc.obj
 0002:00002e54       ??_C@_0BL@LIGH@sound?1items?1use_medkit?4wav?$AA@ 200c0e54     bg_misc.obj
 0002:00002e74       ??_C@_06MJBN@Medkit?$AA@   200c0e74     bg_misc.obj
 0002:00002e7c       ??_C@_0N@NDKI@icons?1medkit?$AA@ 200c0e7c     bg_misc.obj
 0002:00002e8c       ??_C@_0CL@EEMI@models?1powerups?1holdable?1medkit_@ 200c0e8c     bg_misc.obj
 0002:00002ec0       ??_C@_0CE@BLCG@models?1powerups?1holdable?1medkit?4@ 200c0ec0     bg_misc.obj
 0002:00002eec       ??_C@_0BA@HJCK@holdable_medkit?$AA@ 200c0eec     bg_misc.obj
 0002:00002f00       ??_C@_0BE@NHOP@Personal?5Teleporter?$AA@ 200c0f00     bg_misc.obj
 0002:00002f18       ??_C@_0BB@EOIF@icons?1teleporter?$AA@ 200c0f18     bg_misc.obj
 0002:00002f2c       ??_C@_0CI@EJIK@models?1powerups?1holdable?1telepor@ 200c0f2c     bg_misc.obj
 0002:00002f5c       ??_C@_0BJ@PMCF@sound?1items?1holdable?4wav?$AA@ 200c0f5c     bg_misc.obj
 0002:00002f7c       ??_C@_0BE@EFDD@holdable_teleporter?$AA@ 200c0f7c     bg_misc.obj
 0002:00002f94       ??_C@_08HHBB@Bfg?5Ammo?$AA@ 200c0f94     bg_misc.obj
 0002:00002fa0       ??_C@_0BA@LIKB@icons?1icona_bfg?$AA@ 200c0fa0     bg_misc.obj
 0002:00002fb4       ??_C@_0BP@KGME@models?1powerups?1ammo?1bfgam?4md3?$AA@ 200c0fb4     bg_misc.obj
 0002:00002fdc       ??_C@_08BHPM@ammo_bfg?$AA@ 200c0fdc     bg_misc.obj
 0002:00002fe8       ??_C@_05OJGD@Slugs?$AA@    200c0fe8     bg_misc.obj
 0002:00002ff0       ??_C@_0BE@KFKB@icons?1icona_railgun?$AA@ 200c0ff0     bg_misc.obj
 0002:00003008       ??_C@_0CD@BHHI@models?1powerups?1ammo?1railgunam?4m@ 200c1008     bg_misc.obj
 0002:00003034       ??_C@_0L@PCJD@ammo_slugs?$AA@ 200c1034     bg_misc.obj
 0002:00003044       ??_C@_07ONGL@Rockets?$AA@  200c1044     bg_misc.obj
 0002:00003050       ??_C@_0BD@NDBD@icons?1icona_rocket?$AA@ 200c1050     bg_misc.obj
 0002:00003068       ??_C@_0CC@JMHP@models?1powerups?1ammo?1rocketam?4md@ 200c1068     bg_misc.obj
 0002:00003090       ??_C@_0N@DEF@ammo_rockets?$AA@ 200c1090     bg_misc.obj
 0002:000030a0       ??_C@_09NPLP@Lightning?$AA@ 200c10a0     bg_misc.obj
 0002:000030ac       ??_C@_0BG@BLCM@icons?1icona_lightning?$AA@ 200c10ac     bg_misc.obj
 0002:000030c8       ??_C@_0CF@DECD@models?1powerups?1ammo?1lightningam@ 200c10c8     bg_misc.obj
 0002:000030f4       ??_C@_0P@FNDL@ammo_lightning?$AA@ 200c10f4     bg_misc.obj
 0002:00003108       ??_C@_05IJJG@Cells?$AA@    200c1108     bg_misc.obj
 0002:00003110       ??_C@_0BD@PPKI@icons?1icona_plasma?$AA@ 200c1110     bg_misc.obj
 0002:00003128       ??_C@_0CC@GNJA@models?1powerups?1ammo?1plasmaam?4md@ 200c1128     bg_misc.obj
 0002:00003150       ??_C@_0L@JCGG@ammo_cells?$AA@ 200c1150     bg_misc.obj
 0002:00003160       ??_C@_08CFEJ@Grenades?$AA@ 200c1160     bg_misc.obj
 0002:0000316c       ??_C@_0BE@MMLE@icons?1icona_grenade?$AA@ 200c116c     bg_misc.obj
 0002:00003184       ??_C@_0CD@NMEK@models?1powerups?1ammo?1grenadeam?4m@ 200c1184     bg_misc.obj
 0002:000031b0       ??_C@_0O@KBKH@ammo_grenades?$AA@ 200c11b0     bg_misc.obj
 0002:000031c0       ??_C@_07EDBM@Bullets?$AA@  200c11c0     bg_misc.obj
 0002:000031cc       ??_C@_0BH@DHGM@icons?1icona_machinegun?$AA@ 200c11cc     bg_misc.obj
 0002:000031e8       ??_C@_0CG@KHPE@models?1powerups?1ammo?1machineguna@ 200c11e8     bg_misc.obj
 0002:00003218       ??_C@_0N@KNDC@ammo_bullets?$AA@ 200c1218     bg_misc.obj
 0002:00003228       ??_C@_06OAJC@Shells?$AA@   200c1228     bg_misc.obj
 0002:00003230       ??_C@_0BE@MPL@icons?1icona_shotgun?$AA@ 200c1230     bg_misc.obj
 0002:00003248       ??_C@_0CD@LJLN@models?1powerups?1ammo?1shotgunam?4m@ 200c1248     bg_misc.obj
 0002:00003274       ??_C@_0BH@EMHN@sound?1misc?1am_pkup?4wav?$AA@ 200c1274     bg_misc.obj
 0002:00003290       ??_C@_0M@MOIJ@ammo_shells?$AA@ 200c1290     bg_misc.obj
 0002:000032a0       ??_C@_0P@MANM@Grappling?5Hook?$AA@ 200c12a0     bg_misc.obj
 0002:000032b4       ??_C@_0BE@IDGG@icons?1iconw_grapple?$AA@ 200c12b4     bg_misc.obj
 0002:000032cc       ??_C@_0CE@LPMO@models?1weapons2?1grapple?1grapple?4@ 200c12cc     bg_misc.obj
 0002:000032f8       ??_C@_0BF@GCPL@weapon_grapplinghook?$AA@ 200c12f8     bg_misc.obj
 0002:00003314       ??_C@_0BA@HKCL@icons?1iconw_bfg?$AA@ 200c1314     bg_misc.obj
 0002:00003328       ??_C@_0BM@MFN@models?1weapons2?1bfg?1bfg?4md3?$AA@ 200c1328     bg_misc.obj
 0002:0000334c       ??_C@_0L@NOHL@weapon_bfg?$AA@ 200c134c     bg_misc.obj
 0002:0000335c       ??_C@_0L@OMHC@Plasma?5Gun?$AA@ 200c135c     bg_misc.obj
 0002:0000336c       ??_C@_0BD@MNKG@icons?1iconw_plasma?$AA@ 200c136c     bg_misc.obj
 0002:00003384       ??_C@_0CC@DOHF@models?1weapons2?1plasma?1plasma?4md@ 200c1384     bg_misc.obj
 0002:000033ac       ??_C@_0BB@IMNM@weapon_plasmagun?$AA@ 200c13ac     bg_misc.obj
 0002:000033c0       ??_C@_0BE@MJD@icons?1iconw_railgun?$AA@ 200c13c0     bg_misc.obj
 0002:000033d8       ??_C@_0CE@GDNL@models?1weapons2?1railgun?1railgun?4@ 200c13d8     bg_misc.obj
 0002:00003404       ??_C@_0P@FOOL@weapon_railgun?$AA@ 200c1404     bg_misc.obj
 0002:00003418       ??_C@_0BG@MMPA@icons?1iconw_lightning?$AA@ 200c1418     bg_misc.obj
 0002:00003434       ??_C@_0CI@OODD@models?1weapons2?1lightning?1lightn@ 200c1434     bg_misc.obj
 0002:00003464       ??_C@_0BB@GAKO@weapon_lightning?$AA@ 200c1464     bg_misc.obj
 0002:00003478       ??_C@_0BD@OBBN@icons?1iconw_rocket?$AA@ 200c1478     bg_misc.obj
 0002:00003490       ??_C@_0CE@CDMO@models?1weapons2?1rocketl?1rocketl?4@ 200c1490     bg_misc.obj
 0002:000034bc       ??_C@_0BG@EKMA@weapon_rocketlauncher?$AA@ 200c14bc     bg_misc.obj
 0002:000034d8       ??_C@_0EG@FCJ@sound?1weapons?1grenade?1hgrenb1a?4w@ 200c14d8     bg_misc.obj
 0002:0000352c       ??_C@_0BE@GFIG@icons?1iconw_grenade?$AA@ 200c152c     bg_misc.obj
 0002:00003544       ??_C@_0CG@MONC@models?1weapons2?1grenadel?1grenade@ 200c1544     bg_misc.obj
 0002:00003574       ??_C@_0BH@FDFB@weapon_grenadelauncher?$AA@ 200c1574     bg_misc.obj
 0002:00003590       ??_C@_0BH@IFLL@icons?1iconw_machinegun?$AA@ 200c1590     bg_misc.obj
 0002:000035ac       ??_C@_0CK@BP@models?1weapons2?1machinegun?1machi@ 200c15ac     bg_misc.obj
 0002:000035e0       ??_C@_0BC@JMBH@weapon_machinegun?$AA@ 200c15e0     bg_misc.obj
 0002:000035f8       ??_C@_0BE@KFMJ@icons?1iconw_shotgun?$AA@ 200c15f8     bg_misc.obj
 0002:00003610       ??_C@_0CE@FIBC@models?1weapons2?1shotgun?1shotgun?4@ 200c1610     bg_misc.obj
 0002:0000363c       ??_C@_0P@PHLB@weapon_shotgun?$AA@ 200c163c     bg_misc.obj
 0002:00003650       ??_C@_0BF@IKAB@icons?1iconw_gauntlet?$AA@ 200c1650     bg_misc.obj
 0002:0000366c       ??_C@_0CG@ENLL@models?1weapons2?1gauntlet?1gauntle@ 200c166c     bg_misc.obj
 0002:0000369c       ??_C@_0BG@OBIE@sound?1misc?1w_pkup?4wav?$AA@ 200c169c     bg_misc.obj
 0002:000036b8       ??_C@_0BA@NEFD@weapon_gauntlet?$AA@ 200c16b8     bg_misc.obj
 0002:000036cc       ??_C@_0M@MPBK@Mega?5Health?$AA@ 200c16cc     bg_misc.obj
 0002:000036dc       ??_C@_0BB@FCLL@icons?1iconh_mega?$AA@ 200c16dc     bg_misc.obj
 0002:000036f0       ??_C@_0CH@HNCC@models?1powerups?1health?1mega_sphe@ 200c16f0     bg_misc.obj
 0002:00003720       ??_C@_0CG@GJOF@models?1powerups?1health?1mega_cros@ 200c1720     bg_misc.obj
 0002:00003750       ??_C@_0BJ@GHGJ@sound?1items?1m_health?4wav?$AA@ 200c1750     bg_misc.obj
 0002:00003770       ??_C@_0BB@KJE@item_health_mega?$AA@ 200c1770     bg_misc.obj
 0002:00003784       ??_C@_09DDEP@50?5Health?$AA@ 200c1784     bg_misc.obj
 0002:00003790       ??_C@_0BA@PMIC@icons?1iconh_red?$AA@ 200c1790     bg_misc.obj
 0002:000037a4       ??_C@_0CI@LKJF@models?1powerups?1health?1large_sph@ 200c17a4     bg_misc.obj
 0002:000037d4       ??_C@_0CH@NOLN@models?1powerups?1health?1large_cro@ 200c17d4     bg_misc.obj
 0002:00003804       ??_C@_0BJ@KID@sound?1items?1l_health?4wav?$AA@ 200c1804     bg_misc.obj
 0002:00003824       ??_C@_0BC@KFF@item_health_large?$AA@ 200c1824     bg_misc.obj
 0002:0000383c       ??_C@_09BECD@25?5Health?$AA@ 200c183c     bg_misc.obj
 0002:00003848       ??_C@_0BD@IBDP@icons?1iconh_yellow?$AA@ 200c1848     bg_misc.obj
 0002:00003860       ??_C@_0CJ@KCHG@models?1powerups?1health?1medium_sp@ 200c1860     bg_misc.obj
 0002:00003894       ??_C@_0CI@DNPD@models?1powerups?1health?1medium_cr@ 200c1894     bg_misc.obj
 0002:000038c4       ??_C@_0BJ@NBFG@sound?1items?1n_health?4wav?$AA@ 200c18c4     bg_misc.obj
 0002:000038e4       ??_C@_0M@DFKC@item_health?$AA@ 200c18e4     bg_misc.obj
 0002:000038f4       ??_C@_08PNDE@5?5Health?$AA@ 200c18f4     bg_misc.obj
 0002:00003900       ??_C@_0BC@CNMA@icons?1iconh_green?$AA@ 200c1900     bg_misc.obj
 0002:00003918       ??_C@_0CI@MNOG@models?1powerups?1health?1small_sph@ 200c1918     bg_misc.obj
 0002:00003948       ??_C@_0CH@KNOH@models?1powerups?1health?1small_cro@ 200c1948     bg_misc.obj
 0002:00003978       ??_C@_0BJ@LKOK@sound?1items?1s_health?4wav?$AA@ 200c1978     bg_misc.obj
 0002:00003998       ??_C@_0BC@HBNN@item_health_small?$AA@ 200c1998     bg_misc.obj
 0002:000039b0       ??_C@_0BA@LPLH@icons?1iconr_red?$AA@ 200c19b0     bg_misc.obj
 0002:000039c4       ??_C@_0CE@HDBK@models?1powerups?1armor?1armor_red?4@ 200c19c4     bg_misc.obj
 0002:000039f0       ??_C@_0BA@GFMA@item_armor_body?$AA@ 200c19f0     bg_misc.obj
 0002:00003a04       ??_C@_0BD@NCPP@icons?1iconr_yellow?$AA@ 200c1a04     bg_misc.obj
 0002:00003a1c       ??_C@_0CE@HFCD@models?1powerups?1armor?1armor_yel?4@ 200c1a1c     bg_misc.obj
 0002:00003a48       ??_C@_0BI@BDMK@sound?1misc?1ar2_pkup?4wav?$AA@ 200c1a48     bg_misc.obj
 0002:00003a64       ??_C@_0BC@GPNI@item_armor_combat?$AA@ 200c1a64     bg_misc.obj
 0002:00003a7c       ??_C@_0M@KPGH@Armor?5Shard?$AA@ 200c1a7c     bg_misc.obj
 0002:00003a8c       ??_C@_0BC@BIPJ@icons?1iconr_shard?$AA@ 200c1a8c     bg_misc.obj
 0002:00003aa4       ??_C@_0CH@FIOC@models?1powerups?1armor?1shard_sphe@ 200c1aa4     bg_misc.obj
 0002:00003ad4       ??_C@_0CA@DPKE@models?1powerups?1armor?1shard?4md3?$AA@ 200c1ad4     bg_misc.obj
 0002:00003afc       ??_C@_0BI@IDIM@sound?1misc?1ar1_pkup?4wav?$AA@ 200c1afc     bg_misc.obj
 0002:00003b18       ??_C@_0BB@JODA@item_armor_shard?$AA@ 200c1b18     bg_misc.obj
 0002:00003b2c       ??_C@_0BH@HPPA@HoldableItem?5not?5found?$AA@ 200c1b2c     bg_misc.obj
 0002:00003b48       ??_C@_0CB@NJCB@Couldn?8t?5find?5item?5for?5weapon?5?$CFi@ 200c1b48     bg_misc.obj
 0002:00003b70       __real@4@c0049000000000000000 200c1b70     bg_misc.obj
 0002:00003b74       __real@4@40049000000000000000 200c1b74     bg_misc.obj
 0002:00003b78       __real@4@c004c800000000000000 200c1b78     bg_misc.obj
 0002:00003b7c       __real@4@4004b000000000000000 200c1b7c     bg_misc.obj
 0002:00003b80       ??_C@_0CG@LBIF@BG_CanItemBeGrabbed?3?5unknown?5enu@ 200c1b80     bg_misc.obj
 0002:00003bb0       ??_C@_0BM@HEIN@BG_CanItemBeGrabbed?3?5IT_BAD?$AA@ 200c1bb0     bg_misc.obj
 0002:00003bd4       ??_C@_0CI@DJME@BG_CanItemBeGrabbed?3?5index?5out?5o@ 200c1bd4     bg_misc.obj
 0002:00003c04       ??_C@_0CK@CFCO@BG_EvaluateTrajectory?3?5unknown?5t@ 200c1c04     bg_misc.obj
 0002:00003c38       __real@8@4007c800000000000000 200c1c38     bg_misc.obj
 0002:00003c44       __real@4@4000c90fdb0000000000 200c1c44     bg_misc.obj
 0002:00003c48       ??_C@_0CP@HAJH@BG_EvaluateTrajectoryDelta?3?5unkn@ 200c1c48     bg_misc.obj
 0002:00003c80       ??_C@_0DA@GE@Cgame?5event?5svt?5?$CF5d?5?9?$DO?5?$CF5d?3?5num?5@ 200c1c80     bg_misc.obj
 0002:00003cc0       __real@8@00000000000000000000 200c1cc0     bg_misc.obj
 0002:00003ccc       ??_C@_0L@IGHG@showevents?$AA@ 200c1ccc     bg_misc.obj
 0002:00003cdc       ??_C@_0BE@DBKH@fabs?$CIAng?$FLi?$FN?$CJ?5?$DM?$DN?5400?$AA@ 200c1cdc     bg_pmove.obj
 0002:00003cf4       __real@4@4004e52ee00000000000 200c1cf4     bg_pmove.obj
 0002:00003cf8       __real@8@3ff583126f0000000000 200c1cf8     bg_pmove.obj
 0002:00003d08       __real@8@3fffc90fdb0000000000 200c1d08     bg_pmove.obj
 0002:00003d14       ??_C@_0CL@EAPD@Matrix?$FL0?$FN?$FL2?$FN?5?$DO?$DN?5?91?40f?5?$CG?$CG?5Matrix?$FL@ 200c1d14     bg_pmove.obj
 0002:00003d48       ??_C@_0DB@FANA@C?3?2ygpip?2quake3?2escherspace?2code@ 200c1d48     bg_pmove.obj
 0002:00003d84       __real@4@3ffe8000000000000000 200c1d84     bg_pmove.obj
 0002:00003d88       __real@8@400e8000000000000000 200c1d88     bg_pmove.obj
 0002:00003d94       ??_C@_0CD@GJNH@DotProduct?$CIDir?0?5Matrix?$FL2?$FN?$CJ?5?$DM?50?40@ 200c1d94     bg_pmove.obj
 0002:00003dc0       __real@4@3ff8a3d70a0000000000 200c1dc0     bg_pmove.obj
 0002:00003dc8       __real@8@4005b400000000000000 200c1dc8     bg_pmove.obj
 0002:00003dd4       __real@4@400ca2f9830000000000 200c1dd4     bg_pmove.obj
 0002:00003dd8       __real@4@3ff583126f0000000000 200c1dd8     bg_pmove.obj
 0002:00003ddc       __real@4@3ff8c49ba60000000000 200c1ddc     bg_pmove.obj
 0002:00003de0       __real@4@3ffbcccccd0000000000 200c1de0     bg_pmove.obj
 0002:00003de8       __real@8@3ff683126f0000000000 200c1de8     bg_pmove.obj
 0002:00003df8       __real@8@4005fe00000000000000 200c1df8     bg_pmove.obj
 0002:00003e04       __real@4@4003f000000000000000 200c1e04     bg_pmove.obj
 0002:00003e08       __real@4@c0038000000000000000 200c1e08     bg_pmove.obj
 0002:00003e10       __real@8@4000c000000000000000 200c1e10     bg_pmove.obj
 0002:00003e1c       __real@4@3ffc99999a0000000000 200c1e1c     bg_pmove.obj
 0002:00003e20       __real@4@c002b000000000000000 200c1e20     bg_pmove.obj
 0002:00003e28       __real@8@4003c000000000000000 200c1e28     bg_pmove.obj
 0002:00003e34       __real@4@4002b000000000000000 200c1e34     bg_pmove.obj
 0002:00003e38       __real@4@4001e000000000000000 200c1e38     bg_pmove.obj
 0002:00003e3c       __real@4@4007b60b610000000000 200c1e3c     bg_pmove.obj
 0002:00003e40       __real@4@3ffd8000000000000000 200c1e40     bg_pmove.obj
 0002:00003e48       __real@8@4006ffe6666666666800 200c1e48     bg_pmove.obj
 0002:00003e58       __real@8@4000c90fdb0000000000 200c1e58     bg_pmove.obj
 0002:00003e68       __real@8@4005ffccccccccccd000 200c1e68     bg_pmove.obj
 0002:00003e74       ??_C@_08OEON@?$CFi?3Land?6?$AA@ 200c1e74     bg_pmove.obj
 0002:00003e80       __real@4@40028400000000000000 200c1e80     bg_pmove.obj
 0002:00003e84       ??_C@_09KHNP@?$CFi?3steep?6?$AA@ 200c1e84     bg_pmove.obj
 0002:00003e90       ??_C@_0M@CLKI@?$CFi?3kickoff?6?$AA@ 200c1e90     bg_pmove.obj
 0002:00003ea0       __real@8@3ff1d1b71758e2196800 200c1ea0     bg_pmove.obj
 0002:00003eac       ??_C@_0N@LFAC@?$CFi?3allsolid?6?$AA@ 200c1eac     bg_pmove.obj
 0002:00003ebc       ??_C@_08DAML@?$CFi?3lift?6?$AA@ 200c1ebc     bg_pmove.obj
 0002:00003ec8       __real@4@c003c000000000000000 200c1ec8     bg_pmove.obj
 0002:00003ecc       __real@4@3ff6cccccd0000000000 200c1ecc     bg_pmove.obj
 0002:00003ed0       __real@8@3fffa666666666666800 200c1ed0     bg_pmove.obj
 0002:00003edc       ??_C@_0M@CBLA@?$CFi?3stepped?6?$AA@ 200c1edc     bg_slidemove.obj
 0002:00003eec       ??_C@_0BE@CFBB@?$CFi?3bend?5can?8t?5step?6?$AA@ 200c1eec     bg_slidemove.obj
 0002:00003f08       __real@8@40078000000000000000 200c1f08     g_active.obj
 0002:00003f14       __real@4@4006ff00000000000000 200c1f14     g_active.obj
 0002:00003f18       ??_C@_0BH@NCCD@sound?1player?1gurp2?4wav?$AA@ 200c1f18     g_active.obj
 0002:00003f34       ??_C@_0BH@DCEM@sound?1player?1gurp1?4wav?$AA@ 200c1f34     g_active.obj
 0002:00003f50       ??_C@_0L@PAPK@?$CKdrown?4wav?$AA@ 200c1f50     g_active.obj
 0002:00003f60       ??_C@_0CJ@CBHF@cp?5?$CCTen?5seconds?5until?5inactivity@ 200c1f60     g_active.obj
 0002:00003f94       ??_C@_0BK@NHBL@Dropped?5due?5to?5inactivity?$AA@ 200c1f94     g_active.obj
 0002:00003fb8       __real@8@3fff8cccccccccccd000 200c1fb8     g_active.obj
 0002:00003fc4       ??_C@_02IACN@33?$AA@       200c1fc4     g_active.obj
 0002:00003fc8       ??_C@_0L@CBI@pmove_msec?$AA@ 200c1fc8     g_active.obj
 0002:00003fd8       __real@4@c0008000000000000000 200c1fd8     g_active.obj
 0002:00003fdc       ??_C@_09LKDE@?5?$CFi?5?$CFi?5?$CFi?$AA@ 200c1fdc     g_arenas.obj
 0002:00003fe8       ??_C@_0CB@FIAF@postgame?5?$CFi?5?$CFi?5?$CFi?5?$CFi?5?$CFi?5?$CFi?5?$CFi?5?$CFi@ 200c1fe8     g_arenas.obj
 0002:00004010       ??_C@_0BL@IJAP@postgame?5?$CFi?5?$CFi?50?50?50?50?50?50?$AA@ 200c2010     g_arenas.obj
 0002:00004030       ??_C@_0BL@JCFJ@?$FO1ERROR?3?5out?5of?5gentities?6?$AA@ 200c2030     g_arenas.obj
 0002:00004050       ??_C@_0N@GCMD@g_podiumDrop?$AA@ 200c2050     g_arenas.obj
 0002:00004060       ??_C@_0N@KCM@g_podiumDist?$AA@ 200c2060     g_arenas.obj
 0002:00004070       ??_C@_0CF@DJMI@models?1mapobjects?1podium?1podium4@ 200c2070     g_arenas.obj
 0002:0000409c       ??_C@_06HOHP@podium?$AA@   200c209c     g_arenas.obj
 0002:000040a4       ??_C@_05JKL@?2num?2?$AA@   200c20a4     g_bot.obj
 0002:000040ac       ??_C@_06CENM@?$DMNULL?$DO?$AA@ 200c20ac     g_bot.obj
 0002:000040b4       ??_C@_01KCD@?$HN?$AA@      200c20b4     g_bot.obj
 0002:000040b8       ??_C@_0BN@HAGP@Unexpected?5end?5of?5info?5file?6?$AA@ 200c20b8     g_bot.obj
 0002:000040dc       ??_C@_0BE@NIAP@Max?5infos?5exceeded?6?$AA@ 200c20dc     g_bot.obj
 0002:000040f4       ??_C@_0BI@FBJM@Missing?5?$HL?5in?5info?5file?6?$AA@ 200c20f4     g_bot.obj
 0002:00004110       ??_C@_01PFFB@?$HL?$AA@     200c2110     g_bot.obj
 0002:00004114       ??_C@_03HKIL@map?$AA@      200c2114     g_bot.obj
 0002:00004118       ??_C@_0BE@MKAI@addbot?5?$CFs?5?$CFf?5?$CFs?5?$CFi?6?$AA@ 200c2118     g_bot.obj
 0002:00004130       ??_C@_04OPJK@name?$AA@     200c2130     g_bot.obj
 0002:00004138       ??_C@_08OJCO@kick?5?$CFs?6?$AA@ 200c2138     g_bot.obj
 0002:00004144       ??_C@_0CD@MMK@play?5sound?1player?1announce?1?$CFs?4wa@ 200c2144     g_bot.obj
 0002:00004170       ??_C@_07FMEP@default?$AA@  200c2170     g_bot.obj
 0002:0000417c       ??_C@_0BI@OLAG@BotAISetupClient?5failed?$AA@ 200c217c     g_bot.obj
 0002:00004198       ??_C@_04CJJD@team?$AA@     200c2198     g_bot.obj
 0002:000041a0       ??_C@_05MIHE@skill?$AA@    200c21a0     g_bot.obj
 0002:000041a8       ??_C@_0O@CGGA@characterfile?$AA@ 200c21a8     g_bot.obj
 0002:000041b8       ??_C@_0N@CAAJ@loaddefered?6?$AA@ 200c21b8     g_bot.obj
 0002:000041c8       ??_C@_0L@DDHE@cl_running?$AA@ 200c21c8     g_bot.obj
 0002:000041d8       ??_C@_0ED@GMAO@Usage?3?5Addbot?5?$DMbotname?$DO?5?$FLskill?51@ 200c21d8     g_bot.obj
 0002:00004228       ??_C@_0L@MALI@bot_enable?$AA@ 200c2228     g_bot.obj
 0002:00004238       ??_C@_05MPII@?$CF5?42f?$AA@ 200c2238     g_bot.obj
 0002:00004240       ??_C@_0FB@BCGI@?$FO1Start?5server?5with?5more?5?8open?8?5@ 200c2240     g_bot.obj
 0002:000042a4       ??_C@_0DE@LGIN@?$FO1Unable?5to?5add?5bot?4?5?5All?5player@ 200c22a4     g_bot.obj
 0002:000042e4       ??_C@_0CG@IHBJ@?$FO1Error?3?5bot?5has?5no?5aifile?5speci@ 200c22e4     g_bot.obj
 0002:00004314       ??_C@_06KGEJ@aifile?$AA@   200c2314     g_bot.obj
 0002:0000431c       ??_C@_01PLFL@5?$AA@        200c231c     g_bot.obj
 0002:00004320       ??_C@_06DAMC@color2?$AA@   200c2320     g_bot.obj
 0002:00004328       ??_C@_01FBMM@4?$AA@        200c2328     g_bot.obj
 0002:0000432c       ??_C@_06MPHL@color1?$AA@   200c232c     g_bot.obj
 0002:00004334       ??_C@_04JGMG@male?$AA@     200c2334     g_bot.obj
 0002:0000433c       ??_C@_06KFDE@gender?$AA@   200c233c     g_bot.obj
 0002:00004344       ??_C@_0P@KCPO@team_headmodel?$AA@ 200c2344     g_bot.obj
 0002:00004358       ??_C@_09MLPD@headmodel?$AA@ 200c2358     g_bot.obj
 0002:00004364       ??_C@_0L@MKIK@team_model?$AA@ 200c2364     g_bot.obj
 0002:00004374       ??_C@_0O@GFOH@visor?1default?$AA@ 200c2374     g_bot.obj
 0002:00004384       ??_C@_02OHJF@90?$AA@       200c2384     g_bot.obj
 0002:00004388       ??_C@_02CFDO@70?$AA@       200c2388     g_bot.obj
 0002:0000438c       ??_C@_08GAKB@handicap?$AA@ 200c238c     g_bot.obj
 0002:00004398       ??_C@_02IGL@50?$AA@        200c2398     g_bot.obj
 0002:0000439c       ??_C@_05FKMA@?$CF1?42f?$AA@ 200c239c     g_bot.obj
 0002:000043a4       ??_C@_05MFKB@snaps?$AA@    200c23a4     g_bot.obj
 0002:000043ac       ??_C@_04MMDE@rate?$AA@     200c23ac     g_bot.obj
 0002:000043b4       ??_C@_05COBI@25000?$AA@    200c23b4     g_bot.obj
 0002:000043bc       ??_C@_07PGBP@funname?$AA@  200c23bc     g_bot.obj
 0002:000043c8       ??_C@_0BP@PHDN@?$FO1Error?3?5Bot?5?8?$CFs?8?5not?5defined?6?$AA@ 200c23c8     g_bot.obj
 0002:000043f0       ??_C@_0BJ@NJNI@?$FO3Unable?5to?5delay?5spawn?6?$AA@ 200c23f0     g_bot.obj
 0002:00004410       ??_C@_0BJ@NPEI@?$CF?916s?5?$CF?916s?5?$CF?920s?5?$CF?920s?6?$AA@ 200c2410     g_bot.obj
 0002:00004430       ??_C@_0BB@NIIH@bots?1default_c?4c?$AA@ 200c2430     g_bot.obj
 0002:00004444       ??_C@_0O@BDEG@UnnamedPlayer?$AA@ 200c2444     g_bot.obj
 0002:00004454       ??_C@_0EB@GLFE@?$FO1name?5?5?5?5?5?5?5?5?5?5?5?5?5model?5?5?5?5?5?5?5?5@ 200c2454     g_bot.obj
 0002:000044a4       ??_C@_0BK@DPGC@?$FO1Invalid?5bot?5number?3?5?$CFi?6?$AA@ 200c24a4     g_bot.obj
 0002:000044c4       ??_C@_04LDNF@bots?$AA@     200c24c4     g_bot.obj
 0002:000044cc       ??_C@_08JLCL@training?$AA@ 200c24cc     g_bot.obj
 0002:000044d8       ??_C@_07LCAN@special?$AA@  200c24d8     g_bot.obj
 0002:000044e4       ??_C@_09GBNJ@timelimit?$AA@ 200c24e4     g_bot.obj
 0002:000044f0       ??_C@_09DPJO@fraglimit?$AA@ 200c24f0     g_bot.obj
 0002:000044fc       ??_C@_0P@LHJF@bot_minplayers?$AA@ 200c24fc     g_bot.obj
 0002:00004510       ??_C@_03EBLA@num?$AA@      200c2510     g_bot.obj
 0002:00004514       ??_C@_02JAFN@?$CFi?$AA@    200c2514     g_bot.obj
 0002:00004518       ??_C@_0BC@LFAD@?$CFi?5arenas?5parsed?6?$AA@ 200c2518     g_bot.obj
 0002:00004530       ??_C@_08CJIE@scripts?1?$AA@ 200c2530     g_bot.obj
 0002:0000453c       ??_C@_07DJDJ@scripts?$AA@  200c253c     g_bot.obj
 0002:00004548       ??_C@_06BFIE@?4arena?$AA@  200c2548     g_bot.obj
 0002:00004550       ??_C@_0BD@HCGB@scripts?1arenas?4txt?$AA@ 200c2550     g_bot.obj
 0002:00004568       ??_C@_0N@DNGO@g_arenasFile?$AA@ 200c2568     g_bot.obj
 0002:00004578       ??_C@_0CO@CPGF@?$FO1file?5too?5large?3?5?$CFs?5is?5?$CFi?0?5max?5@ 200c2578     g_bot.obj
 0002:000045b0       ??_C@_0BG@FOLB@?$FO1file?5not?5found?3?5?$CFs?6?$AA@ 200c25b0     g_bot.obj
 0002:000045cc       ??_C@_0BG@CDDP@addbot?5?$CFs?5?$CFf?5free?5?$CFi?6?$AA@ 200c25cc     g_bot.obj
 0002:000045e8       ??_C@_0BA@PAJG@?$CFi?5bots?5parsed?6?$AA@ 200c25e8     g_bot.obj
 0002:000045fc       ??_C@_04GDJG@?4bot?$AA@    200c25fc     g_bot.obj
 0002:00004604       ??_C@_0BB@CNHD@scripts?1bots?4txt?$AA@ 200c2604     g_bot.obj
 0002:00004618       ??_C@_0L@MOAL@g_botsFile?$AA@ 200c2618     g_bot.obj
 0002:00004628       ??_C@_08IGPL@nohumans?$AA@ 200c2628     g_client.obj
 0002:00004634       ??_C@_06NDDH@nobots?$AA@   200c2634     g_client.obj
 0002:0000463c       ??_C@_0BH@MKJP@info_player_deathmatch?$AA@ 200c263c     g_client.obj
 0002:00004658       __real@4@40029000000000000000 200c2658     g_client.obj
 0002:0000465c       ??_C@_0BM@DIAH@Couldn?8t?5find?5a?5spawn?5point?$AA@ 200c265c     g_client.obj
 0002:00004680       ??_C@_07IAGC@bodyque?$AA@  200c2680     g_client.obj
 0002:0000468c       ??_C@_0BO@DNJP@ClientUserinfoChanged?3?5?$CFi?5?$CFs?6?$AA@ 200c268c     g_client.obj
 0002:000046b0       ??_C@_0GA@IAGN@n?2?$CFs?2t?2?$CFi?2model?2?$CFs?2hmodel?2?$CFs?2g_r@ 200c26b0     g_client.obj
 0002:00004724       ??_C@_0EO@GLOF@n?2?$CFs?2t?2?$CFi?2model?2?$CFs?2hmodel?2?$CFs?2c1?2@ 200c2724     g_client.obj
 0002:00004784       ??_C@_0L@CKFL@g_blueteam?$AA@ 200c2784     g_client.obj
 0002:00004794       ??_C@_09NMHP@g_redteam?$AA@ 200c2794     g_client.obj
 0002:000047a0       ??_C@_0M@FNOC@teamoverlay?$AA@ 200c27a0     g_client.obj
 0002:000047b0       ??_C@_01KCAO@b?$AA@        200c27b0     g_client.obj
 0002:000047b4       ??_C@_01LHO@r?$AA@         200c27b4     g_client.obj
 0002:000047b8       ??_C@_0BM@CJLE@print?5?$CC?$CFs?$FO7?5renamed?5to?5?$CFs?6?$CC?$AA@ 200c27b8     g_client.obj
 0002:000047dc       ??_C@_0L@BGG@scoreboard?$AA@ 200c27dc     g_client.obj
 0002:000047ec       ??_C@_0BA@PHDH@cg_predictItems?$AA@ 200c27ec     g_client.obj
 0002:00004800       ??_C@_09FBHK@localhost?$AA@ 200c2800     g_client.obj
 0002:0000480c       ??_C@_02ICFJ@ip?$AA@       200c280c     g_client.obj
 0002:00004810       ??_C@_0O@DLDI@?2name?2badinfo?$AA@ 200c2810     g_client.obj
 0002:00004820       ??_C@_0BI@NJLD@print?5?$CC?$CFs?$FO7?5connected?6?$CC?$AA@ 200c2820     g_client.obj
 0002:0000483c       ??_C@_0BD@CCFO@ClientConnect?3?5?$CFi?6?$AA@ 200c283c     g_client.obj
 0002:00004854       ??_C@_0BB@ONCC@BotConnectfailed?$AA@ 200c2854     g_client.obj
 0002:00004868       ??_C@_0BB@DGNF@Invalid?5password?$AA@ 200c2868     g_client.obj
 0002:0000487c       ??_C@_04KIKH@none?$AA@     200c287c     g_client.obj
 0002:00004884       ??_C@_08NPHI@password?$AA@ 200c2884     g_client.obj
 0002:00004890       ??_C@_0CB@BIPM@You?5are?5banned?5from?5this?5server?4@ 200c2890     g_client.obj
 0002:000048b8       ??_C@_0BB@FLOM@ClientBegin?3?5?$CFi?6?$AA@ 200c28b8     g_client.obj
 0002:000048cc       ??_C@_0BP@GFAG@print?5?$CC?$CFs?$FO7?5entered?5the?5game?6?$CC?$AA@ 200c28cc     g_client.obj
 0002:000048f4       ??_C@_06MNOE@player?$AA@   200c28f4     g_client.obj
 0002:000048fc       ??_C@_0N@OGHP@disconnected?$AA@ 200c28fc     g_client.obj
 0002:0000490c       ??_C@_0BG@DJBH@ClientDisconnect?3?5?$CFi?6?$AA@ 200c290c     g_client.obj
 0002:00004928       ??_C@_09IBOJ@Harvester?$AA@ 200c2928     g_cmds.obj
 0002:00004934       ??_C@_08HLK@Overload?$AA@  200c2934     g_cmds.obj
 0002:00004940       ??_C@_0N@DCK@One?5Flag?5CTF?$AA@ 200c2940     g_cmds.obj
 0002:00004950       ??_C@_0BB@EEMI@Capture?5the?5Flag?$AA@ 200c2950     g_cmds.obj
 0002:00004964       ??_C@_0BA@MBBA@Team?5Deathmatch?$AA@ 200c2964     g_cmds.obj
 0002:00004978       ??_C@_0O@IEE@Single?5Player?$AA@ 200c2978     g_cmds.obj
 0002:00004988       ??_C@_0L@MDJG@Tournament?$AA@ 200c2988     g_cmds.obj
 0002:00004998       ??_C@_0N@EEDI@Free?5For?5All?$AA@ 200c2998     g_cmds.obj
 0002:000049a8       ??_C@_06OEL@report?$AA@    200c29a8     g_cmds.obj
 0002:000049b0       ??_C@_0BD@FNGG@search?5and?5destroy?$AA@ 200c29b0     g_cmds.obj
 0002:000049c8       ??_C@_0P@PGFP@guard?5location?$AA@ 200c29c8     g_cmds.obj
 0002:000049dc       ??_C@_08BIMD@cover?5me?$AA@ 200c29dc     g_cmds.obj
 0002:000049e8       ??_C@_09GAKN@come?5here?$AA@ 200c29e8     g_cmds.obj
 0002:000049f4       ??_C@_0BD@ECOF@hold?5this?5position?$AA@ 200c29f4     g_cmds.obj
 0002:00004a0c       ??_C@_0BD@FLK@hold?5your?5position?$AA@ 200c2a0c     g_cmds.obj
 0002:00004a24       ??_C@_0BC@FMKL@scores?5?$CFi?5?$CFi?5?$CFi?$CFs?$AA@ 200c2a24     g_cmds.obj
 0002:00004a3c       ??_C@_0CL@FGDI@?5?$CFi?5?$CFi?5?$CFi?5?$CFi?5?$CFi?5?$CFi?5?$CFi?5?$CFi?5?$CFi?5?$CFi?5?$CF@ 200c2a3c     g_cmds.obj
 0002:00004a70       ??_C@_0DA@LCNN@print?5?$CCYou?5must?5be?5alive?5to?5use?5@ 200c2a70     g_cmds.obj
 0002:00004aac       ??_C@_0DA@HMOL@print?5?$CCCheats?5are?5not?5enabled?5on@ 200c2aac     g_cmds.obj
 0002:00004ae8       ??_C@_0CG@OBDE@print?5?$CCUser?5?$CFs?5is?5not?5on?5the?5ser@ 200c2ae8     g_cmds.obj
 0002:00004b18       ??_C@_0CB@ELFN@print?5?$CCClient?5?$CFi?5is?5not?5active?6?$CC@ 200c2b18     g_cmds.obj
 0002:00004b40       ??_C@_0BN@GMGE@print?5?$CCBad?5client?5slot?3?5?$CFi?6?$CC?$AA@ 200c2b40     g_cmds.obj
 0002:00004b64       ??_C@_05KBJH@armor?$AA@    200c2b64     g_cmds.obj
 0002:00004b6c       ??_C@_04OGMN@ammo?$AA@     200c2b6c     g_cmds.obj
 0002:00004b74       ??_C@_07LLGA@weapons?$AA@  200c2b74     g_cmds.obj
 0002:00004b80       ??_C@_03MKE@all?$AA@       200c2b80     g_cmds.obj
 0002:00004b84       ??_C@_0L@CJPH@print?5?$CC?$CFs?$CC?$AA@ 200c2b84     g_cmds.obj
 0002:00004b94       ??_C@_0M@EOGG@godmode?5ON?6?$AA@ 200c2b94     g_cmds.obj
 0002:00004ba4       ??_C@_0N@JADG@godmode?5OFF?6?$AA@ 200c2ba4     g_cmds.obj
 0002:00004bb4       ??_C@_0N@HPPA@notarget?5ON?6?$AA@ 200c2bb4     g_cmds.obj
 0002:00004bc4       ??_C@_0O@EPAH@notarget?5OFF?6?$AA@ 200c2bc4     g_cmds.obj
 0002:00004bd4       ??_C@_0L@DMHD@noclip?5ON?6?$AA@ 200c2bd4     g_cmds.obj
 0002:00004be4       ??_C@_0M@GMEE@noclip?5OFF?6?$AA@ 200c2be4     g_cmds.obj
 0002:00004bf4       ??_C@_0CP@FCGF@print?5?$CCMust?5be?5in?5g_gametype?50?5f@ 200c2bf4     g_cmds.obj
 0002:00004c2c       ??_C@_0BO@NPKI@cp?5?$CC?$CFs?$FO7?5joined?5the?5battle?4?6?$CC?$AA@ 200c2c2c     g_cmds.obj
 0002:00004c50       ??_C@_0CC@LOIM@cp?5?$CC?$CFs?$FO7?5joined?5the?5spectators?4?6@ 200c2c50     g_cmds.obj
 0002:00004c78       ??_C@_0CB@COMJ@cp?5?$CC?$CFs?$FO7?5joined?5the?5blue?5team?4?6?$CC@ 200c2c78     g_cmds.obj
 0002:00004ca0       ??_C@_0CA@CHBG@cp?5?$CC?$CFs?$FO7?5joined?5the?5red?5team?4?6?$CC?$AA@ 200c2ca0     g_cmds.obj
 0002:00004cc8       ??_C@_0CG@NCAA@cp?5?$CCBlue?5team?5has?5too?5many?5playe@ 200c2cc8     g_cmds.obj
 0002:00004cf8       ??_C@_0CF@DOGO@cp?5?$CCRed?5team?5has?5too?5many?5player@ 200c2cf8     g_cmds.obj
 0002:00004d24       ??_C@_01KBOJ@s?$AA@        200c2d24     g_cmds.obj
 0002:00004d28       ??_C@_09OOFE@spectator?$AA@ 200c2d28     g_cmds.obj
 0002:00004d34       ??_C@_07PHIN@follow2?$AA@  200c2d34     g_cmds.obj
 0002:00004d40       ??_C@_07IDE@follow1?$AA@   200c2d40     g_cmds.obj
 0002:00004d4c       ??_C@_05FILO@score?$AA@    200c2d4c     g_cmds.obj
 0002:00004d54       ??_C@_0DM@BNDL@print?5?$CCMay?5not?5switch?5teams?5more@ 200c2d54     g_cmds.obj
 0002:00004d9c       ??_C@_0BI@GIKJ@print?5?$CCSpectator?5team?6?$CC?$AA@ 200c2d9c     g_cmds.obj
 0002:00004db8       ??_C@_0BD@NLE@print?5?$CCFree?5team?6?$CC?$AA@ 200c2db8     g_cmds.obj
 0002:00004dd0       ??_C@_0BC@DIIJ@print?5?$CCRed?5team?6?$CC?$AA@ 200c2dd0     g_cmds.obj
 0002:00004de8       ??_C@_0BD@CBLC@print?5?$CCBlue?5team?6?$CC?$AA@ 200c2de8     g_cmds.obj
 0002:00004e00       ??_C@_0BO@KIAG@Cmd_FollowCycle_f?3?5bad?5dir?5?$CFi?$AA@ 200c2e00     g_cmds.obj
 0002:00004e24       ??_C@_05JHKE@?$CFs?$CFs?6?$AA@ 200c2e24     g_cmds.obj
 0002:00004e2c       ??_C@_0O@BKBJ@?$BJ?$FL?$CFs?$CFc?$CFc?$BJ?$FN?$BJ?3?5?$AA@ 200c2e2c     g_cmds.obj
 0002:00004e3c       ??_C@_0BD@HDJN@?$BJ?$FL?$CFs?$CFc?$CFc?$BJ?$FN?5?$CI?$CFs?$CJ?$BJ?3?5?$AA@ 200c2e3c     g_cmds.obj
 0002:00004e54       ??_C@_0O@ILNC@?$BJ?$CI?$CFs?$CFc?$CFc?$BJ?$CJ?$BJ?3?5?$AA@ 200c2e54     g_cmds.obj
 0002:00004e64       ??_C@_0BD@FHAH@?$BJ?$CI?$CFs?$CFc?$CFc?$BJ?$CJ?5?$CI?$CFs?$CJ?$BJ?3?5?$AA@ 200c2e64     g_cmds.obj
 0002:00004e7c       ??_C@_0BB@ENGD@sayteam?3?5?$CFs?3?5?$CFs?6?$AA@ 200c2e7c     g_cmds.obj
 0002:00004e90       ??_C@_09NBOC@?$CFs?$CFc?$CFc?$BJ?3?5?$AA@ 200c2e90     g_cmds.obj
 0002:00004e9c       ??_C@_0N@KIKC@say?3?5?$CFs?3?5?$CFs?6?$AA@ 200c2e9c     g_cmds.obj
 0002:00004eac       ??_C@_0O@BGPA@?$CFs?5?$CC?$CFs?$CFc?$CFc?$CFs?$CC?$AA@ 200c2eac     g_cmds.obj
 0002:00004ebc       ??_C@_0O@CLOO@voice?3?5?$CFs?5?$CFs?6?$AA@ 200c2ebc     g_cmds.obj
 0002:00004ecc       ??_C@_0P@ELGL@?$CFs?5?$CFd?5?$CFd?5?$CFd?5?$CFs?$AA@ 200c2ecc     g_cmds.obj
 0002:00004ee0       ??_C@_05JENO@vchat?$AA@    200c2ee0     g_cmds.obj
 0002:00004ee8       ??_C@_05LFCE@vtell?$AA@    200c2ee8     g_cmds.obj
 0002:00004ef0       ??_C@_06CPFL@vtchat?$AA@   200c2ef0     g_cmds.obj
 0002:00004ef8       ??_C@_0M@EOB@print?5?$CC?$CFs?6?$CC?$AA@ 200c2ef8     g_cmds.obj
 0002:00004f08       ??_C@_0BL@GKB@print?5?$CC?$CFs?5called?5a?5vote?4?6?$CC?$AA@ 200c2f08     g_cmds.obj
 0002:00004f28       ??_C@_07OLCC@?$CFs?5?$CC?$CFs?$CC?$AA@ 200c2f28     g_cmds.obj
 0002:00004f34       ??_C@_0N@BEPM@vstr?5nextmap?$AA@ 200c2f34     g_cmds.obj
 0002:00004f44       ??_C@_0BK@KJKO@print?5?$CCnextmap?5not?5set?4?6?$CC?$AA@ 200c2f44     g_cmds.obj
 0002:00004f64       ??_C@_0BI@JOGJ@?$CFs?5?$CFs?$DL?5set?5nextmap?5?$CC?$CFs?$CC?$AA@ 200c2f64     g_cmds.obj
 0002:00004f80       ??_C@_05JKGE@?$CFs?5?$CFs?$AA@ 200c2f80     g_cmds.obj
 0002:00004f88       ??_C@_05GGPB@?$CFs?5?$CFd?$AA@ 200c2f88     g_cmds.obj
 0002:00004f90       ??_C@_0BL@NPCH@print?5?$CCInvalid?5gametype?4?6?$CC?$AA@ 200c2f90     g_cmds.obj
 0002:00004fb0       ??_C@_03HHKO@?$CFs?6?$AA@  200c2fb0     g_cmds.obj
 0002:00004fb4       ??_C@_0KJ@HKA@print?5?$CCVote?5commands?5are?3?5map_re@ 200c2fb4     g_cmds.obj
 0002:00005080       ??_C@_0L@HEIK@g_doWarmup?$AA@ 200c3080     g_cmds.obj
 0002:00005090       ??_C@_0L@JJGG@clientkick?$AA@ 200c3090     g_cmds.obj
 0002:000050a0       ??_C@_04KGFE@kick?$AA@     200c30a0     g_cmds.obj
 0002:000050a8       ??_C@_07LBIF@nextmap?$AA@  200c30a8     g_cmds.obj
 0002:000050b4       ??_C@_0M@PKCG@map_restart?$AA@ 200c30b4     g_cmds.obj
 0002:000050c4       ??_C@_0BO@KPBG@print?5?$CCInvalid?5vote?5string?4?6?$CC?$AA@ 200c30c4     g_cmds.obj
 0002:000050e8       ??_C@_0DC@DKGG@print?5?$CCNot?5allowed?5to?5call?5a?5vot@ 200c30e8     g_cmds.obj
 0002:00005124       ??_C@_0DG@GOAD@print?5?$CCYou?5have?5called?5the?5maxim@ 200c3124     g_cmds.obj
 0002:00005164       ??_C@_0CI@CIHN@print?5?$CCA?5vote?5is?5already?5in?5prog@ 200c3164     g_cmds.obj
 0002:00005194       ??_C@_0CC@NPF@print?5?$CCVoting?5not?5allowed?5here?4?6@ 200c3194     g_cmds.obj
 0002:000051bc       ??_C@_0BE@LPI@print?5?$CCVote?5cast?4?6?$CC?$AA@ 200c31bc     g_cmds.obj
 0002:000051d4       ??_C@_0CL@MLAL@print?5?$CCNot?5allowed?5to?5vote?5as?5sp@ 200c31d4     g_cmds.obj
 0002:00005208       ??_C@_0BM@BODM@print?5?$CCVote?5already?5cast?4?6?$CC?$AA@ 200c3208     g_cmds.obj
 0002:0000522c       ??_C@_0BO@BDFP@print?5?$CCNo?5vote?5in?5progress?4?6?$CC?$AA@ 200c322c     g_cmds.obj
 0002:00005250       ??_C@_0CA@CJAK@print?5?$CC?$CFs?5called?5a?5team?5vote?4?6?$CC?$AA@ 200c3250     g_cmds.obj
 0002:00005278       ??_C@_0DC@FLGA@print?5?$CCTeam?5vote?5commands?5are?3?5l@ 200c3278     g_cmds.obj
 0002:000052b4       ??_C@_0DA@CNOD@print?5?$CC?$CFs?5is?5not?5a?5valid?5player?5@ 200c32b4     g_cmds.obj
 0002:000052f0       ??_C@_06GGPL@leader?$AA@   200c32f0     g_cmds.obj
 0002:000052f8       ??_C@_0DL@ENCM@print?5?$CCYou?5have?5called?5the?5maxim@ 200c32f8     g_cmds.obj
 0002:00005340       ??_C@_0CN@NICJ@print?5?$CCA?5team?5vote?5is?5already?5in@ 200c3340     g_cmds.obj
 0002:00005378       ??_C@_0BJ@KGDN@print?5?$CCTeam?5vote?5cast?4?6?$CC?$AA@ 200c3378     g_cmds.obj
 0002:00005398       ??_C@_0CB@INOH@print?5?$CCTeam?5vote?5already?5cast?4?6?$CC@ 200c3398     g_cmds.obj
 0002:000053c0       ??_C@_0CD@JMPF@print?5?$CCNo?5team?5vote?5in?5progress?4@ 200c33c0     g_cmds.obj
 0002:000053ec       ??_C@_0CF@CJBM@print?5?$CCusage?3?5setviewpos?5x?5y?5z?5y@ 200c33ec     g_cmds.obj
 0002:00005418       ??_C@_0BI@JKDA@print?5?$CCunknown?5cmd?5?$CFs?6?$CC?$AA@ 200c3418     g_cmds.obj
 0002:00005434       ??_C@_09OOOK@resetgrav?$AA@ 200c3434     g_cmds.obj
 0002:00005440       ??_C@_05KKBO@stats?$AA@    200c3440     g_cmds.obj
 0002:00005448       ??_C@_0L@NFLA@setviewpos?$AA@ 200c3448     g_cmds.obj
 0002:00005458       ??_C@_02BGDL@gc?$AA@       200c3458     g_cmds.obj
 0002:0000545c       ??_C@_08PEM@teamvote?$AA@  200c345c     g_cmds.obj
 0002:00005468       ??_C@_0N@OPKJ@callteamvote?$AA@ 200c3468     g_cmds.obj
 0002:00005478       ??_C@_04CFLO@vote?$AA@     200c3478     g_cmds.obj
 0002:00005480       ??_C@_08BDO@callvote?$AA@  200c3480     g_cmds.obj
 0002:0000548c       ??_C@_05KJNF@where?$AA@    200c348c     g_cmds.obj
 0002:00005494       ??_C@_0L@PFEJ@followprev?$AA@ 200c3494     g_cmds.obj
 0002:000054a4       ??_C@_0L@MMM@follownext?$AA@ 200c34a4     g_cmds.obj
 0002:000054b4       ??_C@_06DDCP@follow?$AA@   200c34b4     g_cmds.obj
 0002:000054bc       ??_C@_09IADL@levelshot?$AA@ 200c34bc     g_cmds.obj
 0002:000054c8       ??_C@_06GMBK@noclip?$AA@   200c34c8     g_cmds.obj
 0002:000054d0       ??_C@_08BHIO@notarget?$AA@ 200c34d0     g_cmds.obj
 0002:000054dc       ??_C@_03IPJE@god?$AA@      200c34dc     g_cmds.obj
 0002:000054e0       ??_C@_04JEOP@give?$AA@     200c34e0     g_cmds.obj
 0002:000054e8       ??_C@_06ONLB@votell?$AA@   200c34e8     g_cmds.obj
 0002:000054f0       ??_C@_0L@KCIN@vosay_team?$AA@ 200c34f0     g_cmds.obj
 0002:00005500       ??_C@_05DIJB@vosay?$AA@    200c3500     g_cmds.obj
 0002:00005508       ??_C@_09ICHE@vsay_team?$AA@ 200c3508     g_cmds.obj
 0002:00005514       ??_C@_04KNAG@vsay?$AA@     200c3514     g_cmds.obj
 0002:0000551c       ??_C@_04HKFA@tell?$AA@     200c351c     g_cmds.obj
 0002:00005524       ??_C@_08PAEI@say_team?$AA@ 200c3524     g_cmds.obj
 0002:00005530       ??_C@_03NJAM@say?$AA@      200c3530     g_cmds.obj
 0002:00005534       ??_C@_0BE@GMKD@tell?3?5?$CFs?5to?5?$CFs?3?5?$CFs?6?$AA@ 200c3534     g_cmds.obj
 0002:0000554c       ??_C@_0BF@FLAB@vtell?3?5?$CFs?5to?5?$CFs?3?5?$CFs?6?$AA@ 200c354c     g_cmds.obj
 0002:00005568       ??_C@_06MOON@praise?$AA@   200c3568     g_cmds.obj
 0002:00005570       ??_C@_0M@KEKF@MOD_GRAPPLE?$AA@ 200c3570     g_combat.obj
 0002:00005580       ??_C@_0BB@OGKE@MOD_TRIGGER_HURT?$AA@ 200c3580     g_combat.obj
 0002:00005594       ??_C@_0BB@KPAK@MOD_TARGET_LASER?$AA@ 200c3594     g_combat.obj
 0002:000055a8       ??_C@_0M@HCKJ@MOD_SUICIDE?$AA@ 200c35a8     g_combat.obj
 0002:000055b8       ??_C@_0M@DOAD@MOD_FALLING?$AA@ 200c35b8     g_combat.obj
 0002:000055c8       ??_C@_0N@GMKC@MOD_TELEFRAG?$AA@ 200c35c8     g_combat.obj
 0002:000055d8       ??_C@_09IHFC@MOD_CRUSH?$AA@ 200c35d8     g_combat.obj
 0002:000055e4       ??_C@_08OKHF@MOD_LAVA?$AA@ 200c35e4     g_combat.obj
 0002:000055f0       ??_C@_09CAKO@MOD_SLIME?$AA@ 200c35f0     g_combat.obj
 0002:000055fc       ??_C@_09NIOD@MOD_WATER?$AA@ 200c35fc     g_combat.obj
 0002:00005608       ??_C@_0P@BFDC@MOD_BFG_SPLASH?$AA@ 200c3608     g_combat.obj
 0002:0000561c       ??_C@_07DMNN@MOD_BFG?$AA@  200c361c     g_combat.obj
 0002:00005628       ??_C@_0O@NDNL@MOD_LIGHTNING?$AA@ 200c3628     g_combat.obj
 0002:00005638       ??_C@_0M@CLFA@MOD_RAILGUN?$AA@ 200c3638     g_combat.obj
 0002:00005648       ??_C@_0BC@LEOF@MOD_PLASMA_SPLASH?$AA@ 200c3648     g_combat.obj
 0002:00005660       ??_C@_0L@OOPL@MOD_PLASMA?$AA@ 200c3660     g_combat.obj
 0002:00005670       ??_C@_0BC@PBE@MOD_ROCKET_SPLASH?$AA@ 200c3670     g_combat.obj
 0002:00005688       ??_C@_0L@MCEA@MOD_ROCKET?$AA@ 200c3688     g_combat.obj
 0002:00005698       ??_C@_0BD@KNKE@MOD_GRENADE_SPLASH?$AA@ 200c3698     g_combat.obj
 0002:000056b0       ??_C@_0M@ECEF@MOD_GRENADE?$AA@ 200c36b0     g_combat.obj
 0002:000056c0       ??_C@_0P@PPEE@MOD_MACHINEGUN?$AA@ 200c36c0     g_combat.obj
 0002:000056d4       ??_C@_0N@EBMG@MOD_GAUNTLET?$AA@ 200c36d4     g_combat.obj
 0002:000056e4       ??_C@_0M@ICAK@MOD_SHOTGUN?$AA@ 200c36e4     g_combat.obj
 0002:000056f4       ??_C@_0M@BANH@MOD_UNKNOWN?$AA@ 200c36f4     g_combat.obj
 0002:00005704       __real@4@4004b400000000000000 200c3704     g_combat.obj
 0002:00005708       ??_C@_0P@BLOK@kamikaze?5timer?$AA@ 200c3708     g_combat.obj
 0002:0000571c       ??_C@_0BB@GAHF@team_blueobelisk?$AA@ 200c371c     g_combat.obj
 0002:00005730       ??_C@_0BA@IPGA@team_redobelisk?$AA@ 200c3730     g_combat.obj
 0002:00005744       ??_C@_0CE@MOLM@Kill?3?5?$CFi?5?$CFi?5?$CFi?3?5?$CFs?5killed?5?$CFs?5by?5@ 200c3744     g_combat.obj
 0002:00005770       ??_C@_0P@OHDF@?$DMbad?5obituary?$DO?$AA@ 200c3770     g_combat.obj
 0002:00005784       ??_C@_07HMIB@?$DMworld?$DO?$AA@ 200c3784     g_combat.obj
 0002:00005790       ??_C@_0N@LGML@?$DMnon?9client?$DO?$AA@ 200c3790     g_combat.obj
 0002:000057a0       __real@8@3ffea8f5c28f5c28f800 200c37a0     g_combat.obj
 0002:000057b0       __real@8@40008000000000000000 200c37b0     g_combat.obj
 0002:000057bc       ??_C@_0CM@DKGG@?$CFi?3?5client?3?$CFi?5health?3?$CFi?5damage?3?$CF@ 200c37bc     g_combat.obj
 0002:000057f0       __real@8@4002f000000000000000 200c37f0     g_combat.obj
 0002:000057fc       __real@4@4006c000000000000000 200c37fc     g_items.obj
 0002:00005800       ??_C@_0CA@OJOE@sound?1items?1kamikazerespawn?4wav?$AA@ 200c3800     g_items.obj
 0002:00005828       ??_C@_0BM@BLNJ@RespawnItem?3?5bad?5teammaster?$AA@ 200c3828     g_items.obj
 0002:0000584c       ??_C@_0N@LAHO@Item?3?5?$CFi?5?$CFs?6?$AA@ 200c384c     g_items.obj
 0002:00005860       __real@8@4006c800000000000000 200c3860     g_items.obj
 0002:00005870       __real@8@4004b400000000000000 200c3870     g_items.obj
 0002:0000587c       ??_C@_0CJ@GEBL@FinishSpawningItem?3?5?$CFs?5startsoli@ 200c387c     g_items.obj
 0002:000058b0       __real@4@400b8000000000000000 200c38b0     g_items.obj
 0002:000058b4       ??_C@_0CH@PIGH@?$FO3WARNING?3?5No?5team_CTF_blueflag?5@ 200c38b4     g_items.obj
 0002:000058e4       ??_C@_0CG@HCJH@?$FO3WARNING?3?5No?5team_CTF_redflag?5i@ 200c38e4     g_items.obj
 0002:00005914       ??_C@_0BD@HN@RegisterItem?3?5NULL?$AA@ 200c3914     g_items.obj
 0002:0000592c       ??_C@_0BF@EFMJ@?$CFi?5items?5registered?6?$AA@ 200c392c     g_items.obj
 0002:00005948       ??_C@_0L@LGAP@disable_?$CFs?$AA@ 200c3948     g_items.obj
 0002:00005958       ??_C@_0O@CGJM@noglobalsound?$AA@ 200c3958     g_items.obj
 0002:00005968       ??_C@_04OMDE@wait?$AA@     200c3968     g_items.obj
 0002:00005970       ??_C@_06IMKP@random?$AA@   200c3970     g_items.obj
 0002:00005978       ??_C@_0L@BMKK@g_rankings?$AA@ 200c3978     g_main.obj
 0002:00005988       ??_C@_0M@JGEC@pmove_fixed?$AA@ 200c3988     g_main.obj
 0002:00005998       ??_C@_0BA@DHGA@g_smoothClients?$AA@ 200c3998     g_main.obj
 0002:000059ac       ??_C@_0N@INJL@g_listEntity?$AA@ 200c39ac     g_main.obj
 0002:000059bc       ??_C@_0M@MFF@g_allowVote?$AA@ 200c39bc     g_main.obj
 0002:000059cc       ??_C@_02PBDP@80?$AA@       200c39cc     g_main.obj
 0002:000059d0       ??_C@_09NJEO@com_blood?$AA@ 200c39d0     g_main.obj
 0002:000059dc       ??_C@_06MBNC@g_motd?$AA@   200c39dc     g_main.obj
 0002:000059e4       ??_C@_0N@NPJN@g_debugAlloc?$AA@ 200c39e4     g_main.obj
 0002:000059f4       ??_C@_0O@GELE@g_debugDamage?$AA@ 200c39f4     g_main.obj
 0002:00005a04       ??_C@_0M@LOLD@g_debugMove?$AA@ 200c3a04     g_main.obj
 0002:00005a14       ??_C@_0N@BBFG@g_inactivity?$AA@ 200c3a14     g_main.obj
 0002:00005a24       ??_C@_0P@KCDK@g_forcerespawn?$AA@ 200c3a24     g_main.obj
 0002:00005a38       ??_C@_02HPJE@30?$AA@       200c3a38     g_main.obj
 0002:00005a3c       ??_C@_0BE@MPMK@g_weaponTeamRespawn?$AA@ 200c3a3c     g_main.obj
 0002:00005a54       ??_C@_0BA@LIKE@g_weaponrespawn?$AA@ 200c3a54     g_main.obj
 0002:00005a68       ??_C@_01ECJ@3?$AA@         200c3a68     g_main.obj
 0002:00005a6c       ??_C@_0N@FLFA@g_quadfactor?$AA@ 200c3a6c     g_main.obj
 0002:00005a7c       ??_C@_04PNOF@1000?$AA@     200c3a7c     g_main.obj
 0002:00005a84       ??_C@_0M@LHND@g_knockback?$AA@ 200c3a84     g_main.obj
 0002:00005a94       ??_C@_02GJPF@25?$AA@       200c3a94     g_main.obj
 0002:00005a98       ??_C@_09IEPK@g_gravity?$AA@ 200c3a98     g_main.obj
 0002:00005aa4       ??_C@_03NJFD@240?$AA@      200c3aa4     g_main.obj
 0002:00005aa8       ??_C@_07DOME@g_speed?$AA@  200c3aa8     g_main.obj
 0002:00005ab4       ??_C@_09GLCL@dedicated?$AA@ 200c3ab4     g_main.obj
 0002:00005ac0       ??_C@_0L@HDNO@g_needpass?$AA@ 200c3ac0     g_main.obj
 0002:00005ad0       ??_C@_0M@FKEL@g_filterBan?$AA@ 200c3ad0     g_main.obj
 0002:00005ae0       ??_C@_08HAAI@g_banIPs?$AA@ 200c3ae0     g_main.obj
 0002:00005aec       ??_C@_0L@JDNM@g_password?$AA@ 200c3aec     g_main.obj
 0002:00005afc       ??_C@_09BGGJ@g_logSync?$AA@ 200c3afc     g_main.obj
 0002:00005b08       ??_C@_09PMGJ@games?4log?$AA@ 200c3b08     g_main.obj
 0002:00005b14       ??_C@_05KKCN@g_log?$AA@    200c3b14     g_main.obj
 0002:00005b1c       ??_C@_08GPLH@g_warmup?$AA@ 200c3b1c     g_main.obj
 0002:00005b28       ??_C@_0BD@OGFO@g_teamForceBalance?$AA@ 200c3b28     g_main.obj
 0002:00005b40       ??_C@_0P@DOOK@g_teamAutoJoin?$AA@ 200c3b40     g_main.obj
 0002:00005b54       ??_C@_0P@DIBC@g_friendlyFire?$AA@ 200c3b54     g_main.obj
 0002:00005b68       ??_C@_0BF@HEGL@g_synchronousClients?$AA@ 200c3b68     g_main.obj
 0002:00005b84       ??_C@_0N@ELFE@capturelimit?$AA@ 200c3b84     g_main.obj
 0002:00005b94       ??_C@_07NJLK@dmflags?$AA@  200c3b94     g_main.obj
 0002:00005ba0       ??_C@_0BB@IINK@g_maxGameClients?$AA@ 200c3ba0     g_main.obj
 0002:00005bb4       ??_C@_0L@BIFK@sv_mapname?$AA@ 200c3bb4     g_main.obj
 0002:00005bc4       ??_C@_0M@BGFJ@g_restarted?$AA@ 200c3bc4     g_main.obj
 0002:00005bd4       ??_C@_0M@KDEC@Mar?515?52017?$AA@ 200c3bd4     g_main.obj
 0002:00005be4       ??_C@_08HGGM@gamedate?$AA@ 200c3be4     g_main.obj
 0002:00005bf0       ??_C@_06EEGI@baseq3?$AA@   200c3bf0     g_main.obj
 0002:00005bf8       ??_C@_08NPAP@gamename?$AA@ 200c3bf8     g_main.obj
 0002:00005c04       ??_C@_09CPMK@sv_cheats?$AA@ 200c3c04     g_main.obj
 0002:00005c10       ??_C@_0BL@KDOE@?$CFi?5teams?5with?5?$CFi?5entities?6?$AA@ 200c3c10     g_main.obj
 0002:00005c30       ??_C@_0DA@LFAN@g_gametype?5?$CFi?5is?5out?5of?5range?0?5d@ 200c3c30     g_main.obj
 0002:00005c6c       ??_C@_0CC@KJEE@print?5?$CCServer?3?5?$CFs?5changed?5to?5?$CFs?6@ 200c3c6c     g_main.obj
 0002:00005c94       ??_C@_0BA@ELKM@com_buildScript?$AA@ 200c3c94     g_main.obj
 0002:00005ca8       ??_C@_0CF@GMCH@?9?9?9?9?9?9?9?9?9?9?9?9?9?9?9?9?9?9?9?9?9?9?9?9?9?9?9?9?9?9?9?9@ 200c3ca8     g_main.obj
 0002:00005cd4       ??_C@_0BG@OGGC@Not?5logging?5to?5disk?4?6?$AA@ 200c3cd4     g_main.obj
 0002:00005cf0       ??_C@_0O@ELOI@InitGame?3?5?$CFs?6?$AA@ 200c3cf0     g_main.obj
 0002:00005d00       ??_C@_0DO@PGFB@?9?9?9?9?9?9?9?9?9?9?9?9?9?9?9?9?9?9?9?9?9?9?9?9?9?9?9?9?9?9?9?9@ 200c3d00     g_main.obj
 0002:00005d4c       ??_C@_0CE@BBND@WARNING?3?5Couldn?8t?5open?5logfile?3?5@ 200c3d4c     g_main.obj
 0002:00005d78       ??_C@_0BF@PACI@sound?1player?1fry?4wav?$AA@ 200c3d78     g_main.obj
 0002:00005d94       ??_C@_0O@BPB@gamedate?3?5?$CFs?6?$AA@ 200c3d94     g_main.obj
 0002:00005da4       ??_C@_0O@CEEC@gamename?3?5?$CFs?6?$AA@ 200c3da4     g_main.obj
 0002:00005db4       ??_C@_0CF@PAKE@?9?9?9?9?9?9?9?5Game?5Initialization?5?9?9?9?9@ 200c3db4     g_main.obj
 0002:00005de0       ??_C@_0P@KMFJ@ShutdownGame?3?6?$AA@ 200c3de0     g_main.obj
 0002:00005df4       ??_C@_0BI@PFML@?$DN?$DN?$DN?$DN?5ShutdownGame?5?$DN?$DN?$DN?$DN?6?$AA@ 200c3df4     g_main.obj
 0002:00005e10       ??_C@_01IFC@f?$AA@         200c3e10     g_main.obj
 0002:00005e14       ??_C@_0BJ@JMLD@info_player_intermission?$AA@ 200c3e14     g_main.obj
 0002:00005e34       ??_C@_0O@CHIC@vstr?5nextmap?6?$AA@ 200c3e34     g_main.obj
 0002:00005e44       ??_C@_0P@IGLO@map_restart?50?6?$AA@ 200c3e44     g_main.obj
 0002:00005e58       ??_C@_09JLOJ@?$CF3i?3?$CFi?$CFi?5?$AA@ 200c3e58     g_main.obj
 0002:00005e64       ??_C@_0CE@CBJC@score?3?5?$CFi?5?5ping?3?5?$CFi?5?5client?3?5?$CFi?5@ 200c3e64     g_main.obj
 0002:00005e90       ??_C@_0BB@GBBB@red?3?$CFi?5?5blue?3?$CFi?6?$AA@ 200c3e90     g_main.obj
 0002:00005ea4       ??_C@_09PDJB@Exit?3?5?$CFs?6?$AA@ 200c3ea4     g_main.obj
 0002:00005eb0       ??_C@_0CE@NGAF@print?5?$CCBlue?5hit?5the?5capturelimit@ 200c3eb0     g_main.obj
 0002:00005edc       ??_C@_0BC@MOCC@Capturelimit?5hit?4?$AA@ 200c3edc     g_main.obj
 0002:00005ef4       ??_C@_0CD@EPFI@print?5?$CCRed?5hit?5the?5capturelimit?4@ 200c3ef4     g_main.obj
 0002:00005f20       ??_C@_0CB@LDNE@print?5?$CC?$CFs?$FO7?5hit?5the?5fraglimit?4?6?$CC@ 200c3f20     g_main.obj
 0002:00005f48       ??_C@_0CB@OAJJ@print?5?$CCBlue?5hit?5the?5fraglimit?4?6?$CC@ 200c3f48     g_main.obj
 0002:00005f70       ??_C@_0P@CBAF@Fraglimit?5hit?4?$AA@ 200c3f70     g_main.obj
 0002:00005f84       ??_C@_0CA@EKHK@print?5?$CCRed?5hit?5the?5fraglimit?4?6?$CC?$AA@ 200c3f84     g_main.obj
 0002:00005fac       ??_C@_0P@HFH@Timelimit?5hit?4?$AA@ 200c3fac     g_main.obj
 0002:00005fc0       ??_C@_0BI@PGBD@print?5?$CCTimelimit?5hit?4?6?$CC?$AA@ 200c3fc0     g_main.obj
 0002:00005fdc       ??_C@_08HCGC@Warmup?3?6?$AA@ 200c3fdc     g_main.obj
 0002:00005fe8       ??_C@_0BG@HOFN@print?5?$CCVote?5passed?4?6?$CC?$AA@ 200c3fe8     g_main.obj
 0002:00006004       ??_C@_0BG@INA@print?5?$CCVote?5failed?4?6?$CC?$AA@ 200c4004     g_main.obj
 0002:00006020       ??_C@_0CD@EPAB@print?5?$CC?$CFs?5is?5the?5new?5team?5leader@ 200c4020     g_main.obj
 0002:0000604c       ??_C@_0CH@LJKP@print?5?$CC?$CFs?5is?5not?5on?5the?5team?5any@ 200c404c     g_main.obj
 0002:0000607c       ??_C@_0BN@GKAB@print?5?$CC?$CFs?5is?5not?5connected?6?$CC?$AA@ 200c407c     g_main.obj
 0002:000060a0       ??_C@_0BL@NLEK@print?5?$CCTeam?5vote?5passed?4?6?$CC?$AA@ 200c40a0     g_main.obj
 0002:000060c0       ??_C@_0BL@KNMH@print?5?$CCTeam?5vote?5failed?4?6?$CC?$AA@ 200c40c0     g_main.obj
 0002:000060e0       ??_C@_0BA@IHJH@NULL?5ent?9?$DOthink?$AA@ 200c40e0     g_main.obj
 0002:000060f4       ??_C@_0BE@FFFP@NULL?5ent?9?$DOlastthink?$AA@ 200c40f4     g_main.obj
 0002:0000610c       ??_C@_08JCCB@?$CF4i?3?5?$CFs?6?$AA@ 200c410c     g_main.obj
 0002:00006118       ??_C@_0CL@CLMF@G_Alloc?3?5failed?5on?5allocation?5of@ 200c4118     g_mem.obj
 0002:0000614c       ??_C@_0BP@FHDO@G_Alloc?5of?5?$CFi?5bytes?5?$CI?$CFi?5left?$CJ?6?$AA@ 200c414c     g_mem.obj
 0002:00006174       ??_C@_0DC@EKMP@Game?5memory?5status?3?5?$CFi?5out?5of?5?$CFi@ 200c4174     g_mem.obj
 0002:000061b0       ??_C@_0CO@FHKI@Couldn?8t?5find?5target?5for?5misc_pa@ 200c41b0     g_misc.obj
 0002:000061e8       ??_C@_04JBCE@roll?$AA@     200c41e8     g_misc.obj
 0002:000061f0       __real@8@3ffea666666666666800 200c41f0     g_missile.obj
 0002:000061fc       ??_C@_04MKCL@hook?$AA@     200c41fc     g_missile.obj
 0002:00006204       __real@4@4009fa00000000000000 200c4204     g_missile.obj
 0002:00006208       ??_C@_06BKOB@plasma?$AA@   200c4208     g_missile.obj
 0002:00006210       __real@4@4008af00000000000000 200c4210     g_missile.obj
 0002:00006214       ??_C@_07HCFB@grenade?$AA@  200c4214     g_missile.obj
 0002:00006220       ??_C@_03MJJP@bfg?$AA@      200c4220     g_missile.obj
 0002:00006224       __real@4@4008e100000000000000 200c4224     g_missile.obj
 0002:00006228       ??_C@_06DGFK@rocket?$AA@   200c4228     g_missile.obj
 0002:00006230       ??_C@_0CC@CAB@pushed_p?5?$DO?5?$CGpushed?$FLMAX_GENTITIES@ 200c4230     g_mover.obj
 0002:00006258       __real@8@3ffc8000000000000000 200c4258     g_mover.obj
 0002:00006264       ??_C@_0CE@FCLG@Reached_BinaryMover?3?5bad?5moverSt@ 200c4264     g_mover.obj
 0002:00006290       ??_C@_05HMGA@color?$AA@    200c4290     g_mover.obj
 0002:00006298       ??_C@_05LJGE@1?51?51?$AA@  200c4298     g_mover.obj
 0002:000062a0       ??_C@_05DKPF@light?$AA@    200c42a0     g_mover.obj
 0002:000062a8       ??_C@_05DOHE@noise?$AA@    200c42a8     g_mover.obj
 0002:000062b0       ??_C@_0N@LBGK@door_trigger?$AA@ 200c42b0     g_mover.obj
 0002:000062c0       ??_C@_03KLED@dmg?$AA@      200c42c0     g_mover.obj
 0002:000062c4       ??_C@_0BP@HGJN@sound?1movers?1doors?1dr1_end?4wav?$AA@ 200c42c4     g_mover.obj
 0002:000062ec       ??_C@_0CA@MLKC@sound?1movers?1doors?1dr1_strt?4wav?$AA@ 200c42ec     g_mover.obj
 0002:00006314       __real@4@40048400000000000000 200c4314     g_mover.obj
 0002:00006318       ??_C@_0N@DENH@plat_trigger?$AA@ 200c4318     g_mover.obj
 0002:00006328       ??_C@_06OKPG@height?$AA@   200c4328     g_mover.obj
 0002:00006330       ??_C@_05PHJK@speed?$AA@    200c4330     g_mover.obj
 0002:00006338       ??_C@_0BP@PPCL@sound?1movers?1plats?1pt1_end?4wav?$AA@ 200c4338     g_mover.obj
 0002:00006360       ??_C@_0CA@IMCL@sound?1movers?1plats?1pt1_strt?4wav?$AA@ 200c4360     g_mover.obj
 0002:00006388       ??_C@_0CA@PEIC@sound?1movers?1switches?1butn2?4wav?$AA@ 200c4388     g_mover.obj
 0002:000063b0       ??_C@_0M@PJIA@path_corner?$AA@ 200c43b0     g_mover.obj
 0002:000063c0       ??_C@_0DB@CBFO@Train?5corner?5at?5?$CFs?5without?5a?5tar@ 200c43c0     g_mover.obj
 0002:000063fc       ??_C@_0CF@GPIC@Train?5corner?5at?5?$CFs?5without?5a?5tar@ 200c43fc     g_mover.obj
 0002:00006428       ??_C@_0CJ@EPKJ@func_train?5at?5?$CFs?5with?5an?5unfound@ 200c4428     g_mover.obj
 0002:0000645c       ??_C@_0CG@FPGB@path_corner?5with?5no?5targetname?5a@ 200c445c     g_mover.obj
 0002:0000648c       ??_C@_0CD@EJHD@func_train?5without?5a?5target?5at?5?$CF@ 200c448c     g_mover.obj
 0002:000064b8       ??_C@_05JHNP@phase?$AA@    200c44b8     g_mover.obj
 0002:000064c0       ??_C@_02CKLK@32?$AA@       200c44c0     g_mover.obj
 0002:000064c8       __real@8@3ffca2f9832237cda000 200c44c8     g_mover.obj
 0002:000064d4       ??_C@_09KDJI@session?$CFi?$AA@ 200c44d4     g_session.obj
 0002:000064e0       ??_C@_0BF@DPFM@?$CFi?5?$CFi?5?$CFi?5?$CFi?5?$CFi?5?$CFi?5?$CFi?$AA@ 200c44e0     g_session.obj
 0002:000064fc       ??_C@_0CK@DPKC@Gametype?5changed?0?5clearing?5sessi@ 200c44fc     g_session.obj
 0002:00006530       ??_C@_07CLAB@session?$AA@  200c4530     g_session.obj
 0002:0000653c       ??_C@_0P@IPDJ@teamtournament?$AA@ 200c453c     g_spawn.obj
 0002:00006550       ??_C@_09MIOM@harvester?$AA@ 200c4550     g_spawn.obj
 0002:0000655c       ??_C@_07CGNJ@obelisk?$AA@  200c455c     g_spawn.obj
 0002:00006568       ??_C@_07BODI@oneflag?$AA@  200c4568     g_spawn.obj
 0002:00006574       ??_C@_03HGOC@ctf?$AA@      200c4574     g_spawn.obj
 0002:00006578       ??_C@_06IBFJ@single?$AA@   200c4578     g_spawn.obj
 0002:00006580       ??_C@_0L@DLNP@tournament?$AA@ 200c4580     g_spawn.obj
 0002:00006590       ??_C@_03HOLH@ffa?$AA@      200c4590     g_spawn.obj
 0002:00006594       ??_C@_0N@EBAD@item_botroam?$AA@ 200c4594     g_spawn.obj
 0002:000065a4       ??_C@_0BD@DPDA@team_CTF_bluespawn?$AA@ 200c45a4     g_spawn.obj
 0002:000065bc       ??_C@_0BC@FJAB@team_CTF_redspawn?$AA@ 200c45bc     g_spawn.obj
 0002:000065d4       ??_C@_0BE@KACC@team_CTF_blueplayer?$AA@ 200c45d4     g_spawn.obj
 0002:000065ec       ??_C@_0BD@POEE@team_CTF_redplayer?$AA@ 200c45ec     g_spawn.obj
 0002:00006604       ??_C@_0P@LABE@shooter_plasma?$AA@ 200c4604     g_spawn.obj
 0002:00006618       ??_C@_0BA@BOPL@shooter_grenade?$AA@ 200c4618     g_spawn.obj
 0002:0000662c       ??_C@_0P@JMKP@shooter_rocket?$AA@ 200c462c     g_spawn.obj
 0002:00006640       ??_C@_0BD@BBDK@misc_portal_camera?$AA@ 200c4640     g_spawn.obj
 0002:00006658       ??_C@_0BE@BPFF@misc_portal_surface?$AA@ 200c4658     g_spawn.obj
 0002:00006670       ??_C@_0L@FNHL@misc_model?$AA@ 200c4670     g_spawn.obj
 0002:00006680       ??_C@_0BF@HFGF@misc_teleporter_dest?$AA@ 200c4680     g_spawn.obj
 0002:0000669c       ??_C@_0M@HJLH@target_push?$AA@ 200c469c     g_spawn.obj
 0002:000066ac       ??_C@_0BA@FCBO@target_location?$AA@ 200c46ac     g_spawn.obj
 0002:000066c0       ??_C@_0BA@OKBB@target_position?$AA@ 200c46c0     g_spawn.obj
 0002:000066d4       ??_C@_0M@IEIB@target_kill?$AA@ 200c46d4     g_spawn.obj
 0002:000066e4       ??_C@_0BC@JHNF@target_teleporter?$AA@ 200c46e4     g_spawn.obj
 0002:000066fc       ??_C@_0N@KEBN@target_score?$AA@ 200c46fc     g_spawn.obj
 0002:0000670c       ??_C@_0N@IDNA@target_laser?$AA@ 200c470c     g_spawn.obj
 0002:0000671c       ??_C@_0N@FOMG@target_print?$AA@ 200c471c     g_spawn.obj
 0002:0000672c       ??_C@_0P@GCHO@target_speaker?$AA@ 200c472c     g_spawn.obj
 0002:00006740       ??_C@_0BH@NGMJ@target_remove_powerups?$AA@ 200c4740     g_spawn.obj
 0002:0000675c       ??_C@_0M@DHNO@target_give?$AA@ 200c475c     g_spawn.obj
 0002:0000676c       ??_C@_0N@HKNA@trigger_hurt?$AA@ 200c476c     g_spawn.obj
 0002:0000677c       ??_C@_0BB@EDMK@trigger_teleport?$AA@ 200c477c     g_spawn.obj
 0002:00006790       ??_C@_0N@EEFP@trigger_push?$AA@ 200c4790     g_spawn.obj
 0002:000067a0       ??_C@_0P@LGNO@trigger_always?$AA@ 200c47a0     g_spawn.obj
 0002:000067b4       ??_C@_0L@PCLN@func_group?$AA@ 200c47b4     g_spawn.obj
 0002:000067c4       ??_C@_0L@OLKI@func_train?$AA@ 200c47c4     g_spawn.obj
 0002:000067d4       ??_C@_0O@OIAN@func_pendulum?$AA@ 200c47d4     g_spawn.obj
 0002:000067e4       ??_C@_0N@BKKD@func_bobbing?$AA@ 200c47e4     g_spawn.obj
 0002:000067f4       ??_C@_0O@HHKP@func_rotating?$AA@ 200c47f4     g_spawn.obj
 0002:00006804       ??_C@_0M@LMAL@func_static?$AA@ 200c4804     g_spawn.obj
 0002:00006814       ??_C@_09HHKD@func_plat?$AA@ 200c4814     g_spawn.obj
 0002:00006820       ??_C@_09ELFE@info_camp?$AA@ 200c4820     g_spawn.obj
 0002:0000682c       ??_C@_0N@BOHL@info_notnull?$AA@ 200c482c     g_spawn.obj
 0002:0000683c       ??_C@_09PJNA@info_null?$AA@ 200c483c     g_spawn.obj
 0002:00006848       ??_C@_0BC@MCPA@info_player_start?$AA@ 200c4848     g_spawn.obj
 0002:00006860       ??_C@_0BE@JLFH@targetShaderNewName?$AA@ 200c4860     g_spawn.obj
 0002:00006878       ??_C@_0BB@FAGH@targetShaderName?$AA@ 200c4878     g_spawn.obj
 0002:0000688c       ??_C@_06MFB@angles?$AA@    200c488c     g_spawn.obj
 0002:00006894       ??_C@_05HGHB@count?$AA@    200c4894     g_spawn.obj
 0002:0000689c       ??_C@_07NPGL@message?$AA@  200c489c     g_spawn.obj
 0002:000068a8       ??_C@_06FGAJ@model2?$AA@   200c48a8     g_spawn.obj
 0002:000068b0       ??_C@_0CC@GHOH@?$CFs?5doesn?8t?5have?5a?5spawn?5function@ 200c48b0     g_spawn.obj
 0002:000068d8       ??_C@_0BN@ENGO@G_CallSpawn?3?5NULL?5classname?6?$AA@ 200c48d8     g_spawn.obj
 0002:000068fc       ??_C@_08MIDI@gametype?$AA@ 200c48fc     g_spawn.obj
 0002:00006908       ??_C@_06DDPM@notq3a?$AA@   200c4908     g_spawn.obj
 0002:00006910       ??_C@_07FFFB@notfree?$AA@  200c4910     g_spawn.obj
 0002:0000691c       ??_C@_07NLMN@notteam?$AA@  200c491c     g_spawn.obj
 0002:00006928       ??_C@_09FGLM@notsingle?$AA@ 200c4928     g_spawn.obj
 0002:00006934       ??_C@_0CE@KEJD@G_AddSpawnVarToken?3?5MAX_SPAWN_CH@ 200c4934     g_spawn.obj
 0002:00006960       ??_C@_0CB@KIDB@G_ParseSpawnVars?3?5MAX_SPAWN_VARS@ 200c4960     g_spawn.obj
 0002:00006988       ??_C@_0CN@GGMF@G_ParseSpawnVars?3?5closing?5brace?5@ 200c4988     g_spawn.obj
 0002:000069c0       ??_C@_0CM@FCJP@G_ParseSpawnVars?3?5EOF?5without?5cl@ 200c49c0     g_spawn.obj
 0002:000069f4       ??_C@_0CM@CKA@G_ParseSpawnVars?3?5found?5?$CFs?5when?5@ 200c49f4     g_spawn.obj
 0002:00006a28       ??_C@_0P@KELP@g_enableBreath?$AA@ 200c4a28     g_spawn.obj
 0002:00006a3c       ??_C@_0N@KLLF@enableBreath?$AA@ 200c4a3c     g_spawn.obj
 0002:00006a4c       ??_C@_0N@HBAA@g_enableDust?$AA@ 200c4a4c     g_spawn.obj
 0002:00006a5c       ??_C@_0L@HNLK@enableDust?$AA@ 200c4a5c     g_spawn.obj
 0002:00006a6c       ??_C@_05PDCG@music?$AA@    200c4a6c     g_spawn.obj
 0002:00006a74       ??_C@_08LEPD@baseq3?91?$AA@ 200c4a74     g_spawn.obj
 0002:00006a80       ??_C@_0DD@DCJO@SP_worldspawn?3?5The?5first?5entity?5@ 200c4a80     g_spawn.obj
 0002:00006ac0       ??_C@_0L@LME@worldspawn?$AA@ 200c4ac0     g_spawn.obj
 0002:00006ad0       ??_C@_0BL@LMED@SpawnEntities?3?5no?5entities?$AA@ 200c4ad0     g_spawn.obj
 0002:00006af0       ??_C@_0BI@EBJA@IP?5filter?5list?5is?5full?6?$AA@ 200c4af0     g_svcmds.obj
 0002:00006b0c       ??_C@_0BI@PKEJ@Bad?5filter?5address?3?5?$CFs?6?$AA@ 200c4b0c     g_svcmds.obj
 0002:00006b28       ??_C@_0CO@OJMM@g_banIPs?5overflowed?5at?5MAX_CVAR_@ 200c4b28     g_svcmds.obj
 0002:00006b60       ??_C@_01PJCK@?4?$AA@       200c4b60     g_svcmds.obj
 0002:00006b64       ??_C@_01FDHG@?$CK?$AA@     200c4b64     g_svcmds.obj
 0002:00006b68       ??_C@_0BJ@NFNM@Usage?3?5?5addip?5?$DMip?9mask?$DO?6?$AA@ 200c4b68     g_svcmds.obj
 0002:00006b88       ??_C@_0BB@MKAO@Didn?8t?5find?5?$CFs?4?6?$AA@ 200c4b88     g_svcmds.obj
 0002:00006b9c       ??_C@_09ECMH@Removed?4?6?$AA@ 200c4b9c     g_svcmds.obj
 0002:00006ba8       ??_C@_0BP@DAMB@Usage?3?5?5sv?5removeip?5?$DMip?9mask?$DO?6?$AA@ 200c4ba8     g_svcmds.obj
 0002:00006bd0       ??_C@_01BJG@?6?$AA@        200c4bd0     g_svcmds.obj
 0002:00006bd4       ??_C@_0BF@PBDM@?$CF3i?5?5?5?5?5?5?5?5?5?5?5?5?5?5?5?5?5?$AA@ 200c4bd4     g_svcmds.obj
 0002:00006bf0       ??_C@_0BF@OOKC@ET_GRAPPLE?5?5?5?5?5?5?5?5?5?5?$AA@ 200c4bf0     g_svcmds.obj
 0002:00006c0c       ??_C@_0BF@MHAK@ET_INVISIBLE?5?5?5?5?5?5?5?5?$AA@ 200c4c0c     g_svcmds.obj
 0002:00006c28       ??_C@_0BF@FFFF@ET_TELEPORT_TRIGGER?5?$AA@ 200c4c28     g_svcmds.obj
 0002:00006c44       ??_C@_0BF@EJBM@ET_PUSH_TRIGGER?5?5?5?5?5?$AA@ 200c4c44     g_svcmds.obj
 0002:00006c60       ??_C@_0BF@MBJA@ET_SPEAKER?5?5?5?5?5?5?5?5?5?5?$AA@ 200c4c60     g_svcmds.obj
 0002:00006c7c       ??_C@_0BF@MNAH@ET_PORTAL?5?5?5?5?5?5?5?5?5?5?5?$AA@ 200c4c7c     g_svcmds.obj
 0002:00006c98       ??_C@_0BF@NIEH@ET_BEAM?5?5?5?5?5?5?5?5?5?5?5?5?5?$AA@ 200c4c98     g_svcmds.obj
 0002:00006cb4       ??_C@_0BF@FPBB@ET_MOVER?5?5?5?5?5?5?5?5?5?5?5?5?$AA@ 200c4cb4     g_svcmds.obj
 0002:00006cd0       ??_C@_0BF@FEPN@ET_MISSILE?5?5?5?5?5?5?5?5?5?5?$AA@ 200c4cd0     g_svcmds.obj
 0002:00006cec       ??_C@_0BF@FCEC@ET_ITEM?5?5?5?5?5?5?5?5?5?5?5?5?5?$AA@ 200c4cec     g_svcmds.obj
 0002:00006d08       ??_C@_0BF@HJAO@ET_PLAYER?5?5?5?5?5?5?5?5?5?5?5?$AA@ 200c4d08     g_svcmds.obj
 0002:00006d24       ??_C@_0BF@MCJK@ET_GENERAL?5?5?5?5?5?5?5?5?5?5?$AA@ 200c4d24     g_svcmds.obj
 0002:00006d40       ??_C@_04KJND@?$CF3i?3?$AA@ 200c4d40     g_svcmds.obj
 0002:00006d48       ??_C@_0BO@OFML@User?5?$CFs?5is?5not?5on?5the?5server?6?$AA@ 200c4d48     g_svcmds.obj
 0002:00006d6c       ??_C@_0BM@GKOB@Client?5?$CFi?5is?5not?5connected?6?$AA@ 200c4d6c     g_svcmds.obj
 0002:00006d90       ??_C@_0BF@KOCH@Bad?5client?5slot?3?5?$CFi?6?$AA@ 200c4d90     g_svcmds.obj
 0002:00006dac       ??_C@_0BD@CCFJ@print?5?$CCserver?3?5?$CFs?$CC?$AA@ 200c4dac     g_svcmds.obj
 0002:00006dc4       ??_C@_09NLOG@g_banIPs?6?$AA@ 200c4dc4     g_svcmds.obj
 0002:00006dd0       ??_C@_06GDHL@listip?$AA@   200c4dd0     g_svcmds.obj
 0002:00006dd8       ??_C@_08KLO@removeip?$AA@  200c4dd8     g_svcmds.obj
 0002:00006de4       ??_C@_05MLCI@addip?$AA@    200c4de4     g_svcmds.obj
 0002:00006dec       ??_C@_0N@MLJ@abort_podium?$AA@ 200c4dec     g_svcmds.obj
 0002:00006dfc       ??_C@_07KCML@botlist?$AA@  200c4dfc     g_svcmds.obj
 0002:00006e08       ??_C@_06JDOB@addbot?$AA@   200c4e08     g_svcmds.obj
 0002:00006e10       ??_C@_0M@PPPN@game_memory?$AA@ 200c4e10     g_svcmds.obj
 0002:00006e20       ??_C@_09EEOJ@forceteam?$AA@ 200c4e20     g_svcmds.obj
 0002:00006e2c       ??_C@_0L@JNGK@entitylist?$AA@ 200c4e2c     g_svcmds.obj
 0002:00006e3c       ??_C@_05BFAE@delay?$AA@    200c4e3c     g_target.obj
 0002:00006e44       ??_C@_07BHNH@cp?5?$CC?$CFs?$CC?$AA@ 200c4e44     g_target.obj
 0002:00006e50       ??_C@_06FHNF@?$CFs?4wav?$AA@ 200c4e50     g_target.obj
 0002:00006e58       ??_C@_04MPDF@?4wav?$AA@    200c4e58     g_target.obj
 0002:00006e60       ??_C@_0CJ@NMMJ@target_speaker?5without?5a?5noise?5k@ 200c4e60     g_target.obj
 0002:00006e94       ??_C@_07KNAL@NOSOUND?$AA@  200c4e94     g_target.obj
 0002:00006ea0       __real@4@400a8000000000000000 200c4ea0     g_target.obj
 0002:00006ea4       ??_C@_0BO@BFAL@?$CFs?5at?5?$CFs?3?5?$CFs?5is?5a?5bad?5target?6?$AA@ 200c4ea4     g_target.obj
 0002:00006ec8       ??_C@_0CG@EAJC@Couldn?8t?5find?5teleporter?5destina@ 200c4ec8     g_target.obj
 0002:00006ef8       ??_C@_0BF@ONKA@untargeted?5?$CFs?5at?5?$CFs?6?$AA@ 200c4ef8     g_target.obj
 0002:00006f14       ??_C@_07CAMD@unknown?$AA@  200c4f14     g_target.obj
 0002:00006f20       ??_C@_04MICK@FREE?$AA@     200c4f20     g_team.obj
 0002:00006f28       ??_C@_09KPLM@SPECTATOR?$AA@ 200c4f28     g_team.obj
 0002:00006f34       ??_C@_04GKGD@BLUE?$AA@     200c4f34     g_team.obj
 0002:00006f3c       ??_C@_03OJNE@RED?$AA@      200c4f3c     g_team.obj
 0002:00006f40       ??_C@_02KMNC@?$FO7?$AA@    200c4f40     g_team.obj
 0002:00006f44       ??_C@_02GIO@?$FO3?$AA@     200c4f44     g_team.obj
 0002:00006f48       ??_C@_02FDGL@?$FO4?$AA@    200c4f48     g_team.obj
 0002:00006f4c       ??_C@_02FDKA@?$FO1?$AA@    200c4f4c     g_team.obj
 0002:00006f50       ??_C@_0BB@MPDE@PrintMsg?5overrun?$AA@ 200c4f50     g_team.obj
 0002:00006f64       __real@4@400bfa00000000000000 200c4f64     g_team.obj
 0002:00006f68       ??_C@_0CC@HFJM@?$CFs?$FO7?5fragged?5?$CFs?8s?5skull?5carrier?$CB@ 200c4f68     g_team.obj
 0002:00006f90       ??_C@_0CB@DELP@?$CFs?$FO7?5fragged?5?$CFs?8s?5flag?5carrier?$CB?6@ 200c4f90     g_team.obj
 0002:00006fb8       ??_C@_0BF@KKFJ@team_CTF_neutralflag?$AA@ 200c4fb8     g_team.obj
 0002:00006fd4       ??_C@_0CP@BPBM@Warning?3?5?5NULL?5passed?5to?5Team_Re@ 200c4fd4     g_team.obj
 0002:0000700c       ??_C@_0CN@EGAB@Warning?3?5?5NULL?5passed?5to?5Team_Ta@ 200c500c     g_team.obj
 0002:00007044       ??_C@_0DA@KEMJ@Warning?3?5?5NULL?5passed?5to?5Team_Ca@ 200c5044     g_team.obj
 0002:00007080       ??_C@_0BL@IBGD@The?5?$CFs?5flag?5has?5returned?$CB?6?$AA@ 200c5080     g_team.obj
 0002:000070a0       ??_C@_0BI@NDAH@The?5flag?5has?5returned?$CB?6?$AA@ 200c50a0     g_team.obj
 0002:000070bc       ??_C@_0BM@KOJG@?$CFs?$FO7?5captured?5the?5?$CFs?5flag?$CB?6?$AA@ 200c50bc     g_team.obj
 0002:000070e0       ??_C@_0BM@DHLJ@?$CFs?$FO7?5returned?5the?5?$CFs?5flag?$CB?6?$AA@ 200c50e0     g_team.obj
 0002:00007104       ??_C@_0BH@MFCE@?$CFs?$FO7?5got?5the?5?$CFs?5flag?$CB?6?$AA@ 200c5104     g_team.obj
 0002:00007120       ??_C@_0CG@MPPE@Don?8t?5know?5what?5team?5the?5flag?5is@ 200c5120     g_team.obj
 0002:00007150       ??_C@_08FFDF@?$CFc?$CFc?$CFs?$FO7?$AA@ 200c5150     g_team.obj
 0002:0000715c       ??_C@_0M@CCED@tinfo?5?$CFi?5?$CFs?$AA@ 200c515c     g_team.obj
 0002:0000716c       ??_C@_0BD@EFOB@?5?$CFi?5?$CFi?5?$CFi?5?$CFi?5?$CFi?5?$CFi?$AA@ 200c516c     g_team.obj
 0002:00007184       ??_C@_0CF@HHGL@trigger_multiple?5has?5random?5?$DO?$DN?5w@ 200c5184     g_trigger.obj
 0002:000071b0       ??_C@_03IPBN@0?45?$AA@     200c51b0     g_trigger.obj
 0002:000071b4       ??_C@_0BI@NOB@sound?1world?1jumppad?4wav?$AA@ 200c51b4     g_trigger.obj
 0002:000071d0       ??_C@_0BH@IKPG@sound?1misc?1windfly?4wav?$AA@ 200c51d0     g_trigger.obj
 0002:000071ec       ??_C@_0BI@DGOO@sound?1world?1electro?4wav?$AA@ 200c51ec     g_trigger.obj
 0002:00007208       ??_C@_0CF@NBCN@func_timer?5at?5?$CFs?5has?5random?5?$DO?$DN?5w@ 200c5208     g_trigger.obj
 0002:00007234       ??_C@_0N@GICG@?$CFs?$DN?$CFs?3?$CF5?42f?$EA?$AA@ 200c5234     g_utils.obj
 0002:00007244       ??_C@_0CC@OEDG@G_FindConfigstringIndex?3?5overflo@ 200c5244     g_utils.obj
 0002:0000726c       ??_C@_0CD@DAPB@G_PickTarget?3?5target?5?$CFs?5not?5foun@ 200c526c     g_utils.obj
 0002:00007298       ??_C@_0CK@EMIN@G_PickTarget?5called?5with?5NULL?5ta@ 200c5298     g_utils.obj
 0002:000072cc       ??_C@_0CI@IBFM@entity?5was?5removed?5while?5using?5t@ 200c52cc     g_utils.obj
 0002:000072fc       ??_C@_0BO@BFGM@WARNING?3?5Entity?5used?5itself?4?6?$AA@ 200c52fc     g_utils.obj
 0002:00007320       ??_C@_0L@IIGH@?$CI?$CFi?5?$CFi?5?$CFi?$CJ?$AA@ 200c5320     g_utils.obj
 0002:00007330       ??_C@_07MLMP@noclass?$AA@  200c5330     g_utils.obj
 0002:0000733c       ??_C@_0BK@LFDO@G_Spawn?3?5no?5free?5entities?$AA@ 200c533c     g_utils.obj
 0002:0000735c       ??_C@_05JPNL@freed?$AA@    200c535c     g_utils.obj
 0002:00007364       ??_C@_0L@NBFK@tempEntity?$AA@ 200c5364     g_utils.obj
 0002:00007374       ??_C@_0CM@GOCH@G_AddEvent?3?5zero?5event?5added?5for@ 200c5374     g_utils.obj
 0002:000073a8       __real@8@bffefd70a3d70a3d7000 200c53a8     g_utils.obj
 0002:000073b4       __real@4@400c8000000000000000 200c53b4     g_weapon.obj
 0002:000073b8       __real@4@40108000000000000000 200c53b8     g_weapon.obj
 0002:000073c0       __real@8@40038000000000000000 200c53c0     g_weapon.obj
 0002:000073cc       __real@4@3ffccccccd0000000000 200c53cc     g_weapon.obj
 0002:000073d0       __real@4@4008c000000000000000 200c53d0     g_weapon.obj
 0002:000073d4       __real@4@4002e000000000000000 200c53d4     g_weapon.obj
 0002:000073d8       ??_C@_0BK@OJK@Q_fabs?$CIinv_denom?$CJ?5?$CB?$DN?50?40f?$AA@ 200c53d8     q_math.obj
 0002:000073f8       ??_C@_0CP@GPPI@c?3?2ygpip?2quake3?2escherspace?2code@ 200c53f8     q_math.obj
 0002:00007430       __real@8@4006b60b60b60b60b800 200c5430     q_math.obj
 0002:0000743c       __real@4@3ff98efa350000000000 200c543c     q_math.obj
 0002:00007440       ??_C@_04DCMN@?$CFs?$CFs?$AA@ 200c5440     q_shared.obj
 0002:00007448       ??_C@_0BI@KJOD@ERROR?3?5?$CFs?0?5line?5?$CFd?3?5?$CFs?6?$AA@ 200c5448     q_shared.obj
 0002:00007464       ??_C@_0BK@EEPA@WARNING?3?5?$CFs?0?5line?5?$CFd?3?5?$CFs?6?$AA@ 200c5464     q_shared.obj
 0002:00007484       ??_C@_0BF@JENF@MatchToken?3?5?$CFs?5?$CB?$DN?5?$CFs?$AA@ 200c5484     q_shared.obj
 0002:000074a0       ??_C@_01KMMP@?$CJ?$AA@     200c54a0     q_shared.obj
 0002:000074a4       ??_C@_01GFI@?$CI?$AA@      200c54a4     q_shared.obj
 0002:000074a8       ??_C@_0BJ@GDCK@Q_strncpyz?3?5destsize?5?$DM?51?$AA@ 200c54a8     q_shared.obj
 0002:000074c8       ??_C@_0BF@OBLI@Q_strncpyz?3?5NULL?5src?$AA@ 200c54c8     q_shared.obj
 0002:000074e4       ??_C@_0BG@BANA@Q_strncpyz?3?5NULL?5dest?$AA@ 200c54e4     q_shared.obj
 0002:00007500       ??_C@_0BN@PKJG@Q_strcat?3?5already?5overflowed?$AA@ 200c5500     q_shared.obj
 0002:00007524       ??_C@_0CD@KCEE@Com_sprintf?3?5overflow?5of?5?$CFi?5in?5?$CF@ 200c5524     q_shared.obj
 0002:00007550       ??_C@_0CC@NDC@Com_sprintf?3?5overflowed?5bigbuffe@ 200c5550     q_shared.obj
 0002:00007578       ??_C@_0CG@FAFH@Info_ValueForKey?3?5oversize?5infos@ 200c5578     q_shared.obj
 0002:000075a8       ??_C@_0CE@CNEE@Info_RemoveKey?3?5oversize?5infostr@ 200c55a8     q_shared.obj
 0002:000075d4       ??_C@_0CI@EHFL@Info_RemoveKey_Big?3?5oversize?5inf@ 200c55d4     q_shared.obj
 0002:00007604       ??_C@_0BN@DPCF@Info?5string?5length?5exceeded?6?$AA@ 200c5604     q_shared.obj
 0002:00007628       ??_C@_06GNBE@?2?$CFs?2?$CFs?$AA@ 200c5628     q_shared.obj
 0002:00007630       ??_C@_0CD@NLGB@Can?8t?5use?5keys?5or?5values?5with?5a?5@ 200c5630     q_shared.obj
 0002:0000765c       ??_C@_0CL@GPCB@Can?8t?5use?5keys?5or?5values?5with?5a?5@ 200c565c     q_shared.obj
 0002:00007690       ??_C@_0CD@MJE@Can?8t?5use?5keys?5or?5values?5with?5a?5@ 200c5690     q_shared.obj
 0002:000076bc       ??_C@_0CJ@GBHP@Info_SetValueForKey?3?5oversize?5in@ 200c56bc     q_shared.obj
 0002:000076f0       ??_C@_0CB@GPOG@BIG?5Info?5string?5length?5exceeded?6@ 200c56f0     q_shared.obj
 0002:00007718       ??_C@_0P@LNLA@format?5?$CB?$DN?5NULL?$AA@ 200c5718     LIBCMTD:sscanf.obj
 0002:00007728       ??_C@_08EJDA@sscanf?4c?$AA@ 200c5728     LIBCMTD:sscanf.obj
 0002:00007734       ??_C@_0P@OOIN@string?5?$CB?$DN?5NULL?$AA@ 200c5734     LIBCMTD:sscanf.obj
 0002:00007744       ??_C@_0L@HE@vsprintf?4c?$AA@ 200c5744     LIBCMTD:vsprintf.obj
 0002:00007750       ??_C@_02JJJH@?6?6?$AA@     200c5750     LIBCMTD:assert.obj
 0002:00007754       ??_C@_03NAME@?4?4?4?$AA@   200c5754     LIBCMTD:assert.obj
 0002:00007758       ??_C@_0CF@JPDF@Microsoft?5Visual?5C?$CL?$CL?5Runtime?5Lib@ 200c5758     LIBCMTD:assert.obj
 0002:00007780       ??_C@_0DN@MHHJ@?$CIPress?5Retry?5to?5debug?5the?5applic@ 200c5780     LIBCMTD:assert.obj
 0002:000077c0       ??_C@_0HA@EJLJ@For?5information?5on?5how?5your?5prog@ 200c57c0     LIBCMTD:assert.obj
 0002:00007830       ??_C@_0N@NOAB@Expression?3?5?$AA@ 200c5830     LIBCMTD:assert.obj
 0002:00007840       ??_C@_06JMOL@Line?3?5?$AA@ 200c5840     LIBCMTD:assert.obj
 0002:00007848       ??_C@_06FAAO@File?3?5?$AA@ 200c5848     LIBCMTD:assert.obj
 0002:00007850       ??_C@_0BH@NNCD@?$DMprogram?5name?5unknown?$DO?$AA@ 200c5850     LIBCMTD:assert.obj
 0002:00007868       ??_C@_09PIFG@Program?3?5?$AA@ 200c5868     LIBCMTD:assert.obj
 0002:00007874       ??_C@_0BC@OIMC@Assertion?5failed?$CB?$AA@ 200c5874     LIBCMTD:assert.obj
 0002:00007888       ??_C@_0L@ENLJ@tidtable?4c?$AA@ 200c5888     LIBCMTD:tidtable.obj
 0002:00007894       ??_C@_0BK@JEGK@IsProcessorFeaturePresent?$AA@ 200c5894     LIBCMTD:testfdiv.obj
 0002:000078b0       ??_C@_08OBID@KERNEL32?$AA@ 200c58b0     LIBCMTD:testfdiv.obj
 0002:000078bc       ??_C@_05OFLO@e?$CL000?$AA@ 200c58bc     LIBCMTD:cvt.obj
 0002:000078c4       ??_C@_0P@FHEA@stream?5?$CB?$DN?5NULL?$AA@ 200c58c4     LIBCMTD:input.obj
 0002:000078d4       ??_C@_07IEFA@input?4c?$AA@ 200c58d4     LIBCMTD:input.obj
 0002:000078dc       ??_C@_0BB@BLL@Assertion?5Failed?$AA@ 200c58dc     LIBCMTD:dbgrpt.obj
 0002:000078f0       ??_C@_05CKBG@Error?$AA@    200c58f0     LIBCMTD:dbgrpt.obj
 0002:000078f8       ??_C@_07JCGI@Warning?$AA@  200c58f8     LIBCMTD:dbgrpt.obj
 0002:00007900       ??_C@_0M@ODEP@?$CFs?$CI?$CFd?$CJ?5?3?5?$CFs?$AA@ 200c5900     LIBCMTD:dbgrpt.obj
 0002:0000790c       ??_C@_01FEHD@?$AN?$AA@     200c590c     LIBCMTD:dbgrpt.obj
 0002:00007910       ??_C@_0BD@BEAK@Assertion?5failed?3?5?$AA@ 200c5910     LIBCMTD:dbgrpt.obj
 0002:00007924       ??_C@_0CL@LCCP@_CrtDbgReport?3?5String?5too?5long?5o@ 200c5924     LIBCMTD:dbgrpt.obj
 0002:00007950       ??_C@_0DC@EMDK@Second?5Chance?5Assertion?5Failed?3?5@ 200c5950     LIBCMTD:dbgrpt.obj
 0002:00007984       ??_C@_09NJAK@wsprintfA?$AA@ 200c5984     LIBCMTD:dbgrpt.obj
 0002:00007990       ??_C@_0L@HKL@user32?4dll?$AA@ 200c5990     LIBCMTD:dbgrpt.obj
 0002:0000799c       ??_C@_0CD@GCMD@Microsoft?5Visual?5C?$CL?$CL?5Debug?5Libra@ 200c599c     LIBCMTD:dbgrpt.obj
 0002:000079c0       ??_C@_0FD@EBDD@Debug?5?$CFs?$CB?6?6Program?3?5?$CFs?$CFs?$CFs?$CFs?$CFs?$CFs@ 200c59c0     LIBCMTD:dbgrpt.obj
 0002:00007a14       ??_C@_09DCKN@?6Module?3?5?$AA@ 200c5a14     LIBCMTD:dbgrpt.obj
 0002:00007a20       ??_C@_07HJII@?6File?3?5?$AA@ 200c5a20     LIBCMTD:dbgrpt.obj
 0002:00007a28       ??_C@_07LFGN@?6Line?3?5?$AA@ 200c5a28     LIBCMTD:dbgrpt.obj
 0002:00007a30       ??_C@_0HD@BHFH@?6?6For?5information?5on?5how?5your?5pr@ 200c5a30     LIBCMTD:dbgrpt.obj
 0002:00007aa4       ??_C@_08GFHP@dbgrpt?4c?$AA@ 200c5aa4     LIBCMTD:dbgrpt.obj
 0002:00007ab0       ??_C@_0BG@FBEA@szUserMessage?5?$CB?$DN?5NULL?$AA@ 200c5ab0     LIBCMTD:dbgrpt.obj
 0002:00007ad8       __DEFAULT_CW_in_mem        200c5ad8     LIBCMTD:common.obj
 0002:00007ada       __pi_by_2_to_61            200c5ada     LIBCMTD:common.obj
 0002:00007b14       ??_C@_07PDLA@mlock?4c?$AA@ 200c5b14     LIBCMTD:mlock.obj
 0002:00007b1c       ??_C@_07PCLE@LC_TIME?$AA@  200c5b1c     LIBCMTD:setlocal.obj
 0002:00007b24       ??_C@_0L@NKG@LC_NUMERIC?$AA@ 200c5b24     LIBCMTD:setlocal.obj
 0002:00007b30       ??_C@_0M@CBIH@LC_MONETARY?$AA@ 200c5b30     LIBCMTD:setlocal.obj
 0002:00007b3c       ??_C@_08LFGE@LC_CTYPE?$AA@ 200c5b3c     LIBCMTD:setlocal.obj
 0002:00007b48       ??_C@_0L@CFLC@LC_COLLATE?$AA@ 200c5b48     LIBCMTD:setlocal.obj
 0002:00007b54       ??_C@_06GCPK@LC_ALL?$AA@   200c5b54     LIBCMTD:setlocal.obj
 0002:00007b5c       ??_C@_01FAJB@?$DL?$AA@     200c5b5c     LIBCMTD:setlocal.obj
 0002:00007b60       ??_C@_02BGDO@?$DN?$DL?$AA@ 200c5b60     LIBCMTD:setlocal.obj
 0002:00007b64       ??_C@_0L@MOEE@setlocal?4c?$AA@ 200c5b64     LIBCMTD:setlocal.obj
 0002:00007b70       ??_C@_01KPOD@?$DN?$AA@     200c5b70     LIBCMTD:setlocal.obj
 0002:00007b74       ??_C@_03DBOJ@_?4?0?$AA@    200c5b74     LIBCMTD:setlocal.obj
 0002:00007b78       ??_C@_01NON@_?$AA@         200c5b78     LIBCMTD:setlocal.obj
 0002:00007b7c       ??_C@_01A@?$AA?$AA@        200c5b7c     LIBCMTD:a_map.obj
 0002:00007b80       ??_C@_13A@?$AA?$AA?$AA?$AA@ 200c5b80     LIBCMTD:a_map.obj
 0002:00007ba0       ??_C@_03GAFO@_yn?$AA@      200c5ba0     LIBCMTD:fpexcept.obj
 0002:00007ba4       ??_C@_03GNLD@_y1?$AA@      200c5ba4     LIBCMTD:fpexcept.obj
 0002:00007ba8       ??_C@_03MHCE@_y0?$AA@      200c5ba8     LIBCMTD:fpexcept.obj
 0002:00007bac       ??_C@_05PAK@frexp?$AA@     200c5bac     LIBCMTD:fpexcept.obj
 0002:00007bb4       ??_C@_04JKCH@fmod?$AA@     200c5bb4     LIBCMTD:fpexcept.obj
 0002:00007bbc       ??_C@_06GGHF@_hypot?$AA@   200c5bbc     LIBCMTD:fpexcept.obj
 0002:00007bc4       ??_C@_05JNMC@_cabs?$AA@    200c5bc4     LIBCMTD:fpexcept.obj
 0002:00007bcc       ??_C@_05MEKH@ldexp?$AA@    200c5bcc     LIBCMTD:fpexcept.obj
 0002:00007bd4       ??_C@_04KAOJ@modf?$AA@     200c5bd4     LIBCMTD:fpexcept.obj
 0002:00007bdc       ??_C@_04EHAJ@fabs?$AA@     200c5bdc     LIBCMTD:fpexcept.obj
 0002:00007be4       ??_C@_05MFBN@floor?$AA@    200c5be4     LIBCMTD:fpexcept.obj
 0002:00007bec       ??_C@_04JJMP@ceil?$AA@     200c5bec     LIBCMTD:fpexcept.obj
 0002:00007bf4       ??_C@_03JLPI@tan?$AA@      200c5bf4     LIBCMTD:fpexcept.obj
 0002:00007bf8       ??_C@_03DLFL@cos?$AA@      200c5bf8     LIBCMTD:fpexcept.obj
 0002:00007bfc       ??_C@_03JAMN@sin?$AA@      200c5bfc     LIBCMTD:fpexcept.obj
 0002:00007c00       ??_C@_04LMBE@sqrt?$AA@     200c5c00     LIBCMTD:fpexcept.obj
 0002:00007c08       ??_C@_05BFPO@atan2?$AA@    200c5c08     LIBCMTD:fpexcept.obj
 0002:00007c10       ??_C@_04EAGN@atan?$AA@     200c5c10     LIBCMTD:fpexcept.obj
 0002:00007c18       ??_C@_04OAMO@acos?$AA@     200c5c18     LIBCMTD:fpexcept.obj
 0002:00007c20       ??_C@_04ELFI@asin?$AA@     200c5c20     LIBCMTD:fpexcept.obj
 0002:00007c28       ??_C@_04LFAD@tanh?$AA@     200c5c28     LIBCMTD:fpexcept.obj
 0002:00007c30       ??_C@_04PFKD@cosh?$AA@     200c5c30     LIBCMTD:fpexcept.obj
 0002:00007c38       ??_C@_04NPAI@sinh?$AA@     200c5c38     LIBCMTD:fpexcept.obj
 0002:00007c40       ??_C@_05IJHH@log10?$AA@    200c5c40     LIBCMTD:fpexcept.obj
 0002:00007c48       ??_C@_03EGFG@pow?$AA@      200c5c48     LIBCMTD:fpexcept.obj
 0002:00007c4c       ??_C@_03CDGJ@exp?$AA@      200c5c4c     LIBCMTD:fpexcept.obj
 0002:00007c50       ??_C@_0DP@IHIN@?$CI?$CCinconsistent?5IOB?5fields?$CC?0?5stre@ 200c5c50     LIBCMTD:_flsbuf.obj
 0002:00007c90       ??_C@_09LGEI@_flsbuf?4c?$AA@ 200c5c90     LIBCMTD:_flsbuf.obj
 0002:00007c9c       ??_C@_0M@KJPK@str?5?$CB?$DN?5NULL?$AA@ 200c5c9c     LIBCMTD:_flsbuf.obj
 0002:00007ca8       ___lookuptable             200c5ca8     LIBCMTD:output.obj
 0002:00007d04       ??_C@_1O@POHA@?$AA?$CI?$AAn?$AAu?$AAl?$AAl?$AA?$CJ?$AA?$AA@ 200c5d04     LIBCMTD:output.obj
 0002:00007d14       ??_C@_06ONKE@?$CInull?$CJ?$AA@ 200c5d14     LIBCMTD:output.obj
 0002:00007d1c       ??_C@_08MIHI@output?4c?$AA@ 200c5d1c     LIBCMTD:output.obj
 0002:00007d28       ??_C@_0P@PIHB@ch?5?$CB?$DN?5_T?$CI?8?20?8?$CJ?$AA@ 200c5d28     LIBCMTD:output.obj
 0002:00007d38       ??_C@_08CNMA@winsig?4c?$AA@ 200c5d38     LIBCMTD:winsig.obj
 0002:00007d44       ??_C@_0BD@NJFP@GetLastActivePopup?$AA@ 200c5d44     LIBCMTD:crtmbox.obj
 0002:00007d58       ??_C@_0BA@GILI@GetActiveWindow?$AA@ 200c5d58     LIBCMTD:crtmbox.obj
 0002:00007d68       ??_C@_0M@PKCK@MessageBoxA?$AA@ 200c5d68     LIBCMTD:crtmbox.obj
 0002:00007d74       ??_C@_09DLOM@fprintf?4c?$AA@ 200c5d74     LIBCMTD:fprintf.obj
 0002:00007d80       ??_C@_09GCII@setvbuf?4c?$AA@ 200c5d80     LIBCMTD:setvbuf.obj
 0002:00007d8c       ??_C@_07HPAH@_file?4c?$AA@ 200c5d8c     LIBCMTD:_file.obj
 0002:00007dd0       ??_C@_08KFDJ@ioinit?4c?$AA@ 200c5dd0     LIBCMTD:ioinit.obj
 0002:00007ddc       ??_C@_06DPMO@Client?$AA@   200c5ddc     LIBCMTD:dbgheap.obj
 0002:00007de4       ??_C@_06BAFM@Ignore?$AA@   200c5de4     LIBCMTD:dbgheap.obj
 0002:00007dec       ??_C@_03DICE@CRT?$AA@      200c5dec     LIBCMTD:dbgheap.obj
 0002:00007df0       ??_C@_06BILL@Normal?$AA@   200c5df0     LIBCMTD:dbgheap.obj
 0002:00007df8       ??_C@_04NEN@Free?$AA@      200c5df8     LIBCMTD:dbgheap.obj
 0002:00007e00       ??_C@_0DC@CGID@Error?3?5memory?5allocation?3?5bad?5me@ 200c5e00     LIBCMTD:dbgheap.obj
 0002:00007e34       ??_C@_0CE@FMIA@Invalid?5allocation?5size?3?5?$CFu?5byte@ 200c5e34     LIBCMTD:dbgheap.obj
 0002:00007e58       ??_C@_0CB@CPBI@Client?5hook?5allocation?5failure?4?6@ 200c5e58     LIBCMTD:dbgheap.obj
 0002:00007e7c       ??_C@_0DF@DKHF@Client?5hook?5allocation?5failure?5a@ 200c5e7c     LIBCMTD:dbgheap.obj
 0002:00007eb4       ??_C@_09IMJC@dbgheap?4c?$AA@ 200c5eb4     LIBCMTD:dbgheap.obj
 0002:00007ec0       ??_C@_0BC@EPKL@_CrtCheckMemory?$CI?$CJ?$AA@ 200c5ec0     LIBCMTD:dbgheap.obj
 0002:00007ed4       ??_C@_0BK@JDHA@_pFirstBlock?5?$DN?$DN?5pOldBlock?$AA@ 200c5ed4     LIBCMTD:dbgheap.obj
 0002:00007ef0       ??_C@_0BJ@NMEF@_pLastBlock?5?$DN?$DN?5pOldBlock?$AA@ 200c5ef0     LIBCMTD:dbgheap.obj
 0002:00007f0c       ??_C@_0DC@BOCN@fRealloc?5?$HM?$HM?5?$CI?$CBfRealloc?5?$CG?$CG?5pNewBl@ 200c5f0c     LIBCMTD:dbgheap.obj
 0002:00007f40       ??_C@_0DK@DKOM@_BLOCK_TYPE?$CIpOldBlock?9?$DOnBlockUse@ 200c5f40     LIBCMTD:dbgheap.obj
 0002:00007f7c       ??_C@_0EF@EDKM@pOldBlock?9?$DOnLine?5?$DN?$DN?5IGNORE_LINE?5@ 200c5f7c     LIBCMTD:dbgheap.obj
 0002:00007fc4       ??_C@_0CC@GPMO@_CrtIsValidHeapPointer?$CIpUserData@ 200c5fc4     LIBCMTD:dbgheap.obj
 0002:00007fe8       ??_C@_0CN@FHGE@Allocation?5too?5large?5or?5negative@ 200c5fe8     LIBCMTD:dbgheap.obj
 0002:00008018       ??_C@_0CE@EAMN@Client?5hook?5re?9allocation?5failur@ 200c6018     LIBCMTD:dbgheap.obj
 0002:0000803c       ??_C@_0DI@KKMM@Client?5hook?5re?9allocation?5failur@ 200c603c     LIBCMTD:dbgheap.obj
 0002:00008074       ??_C@_0BG@JCEC@_pFirstBlock?5?$DN?$DN?5pHead?$AA@ 200c6074     LIBCMTD:dbgheap.obj
 0002:0000808c       ??_C@_0BF@NLNN@_pLastBlock?5?$DN?$DN?5pHead?$AA@ 200c608c     LIBCMTD:dbgheap.obj
 0002:000080a4       ??_C@_0BO@PLHH@pHead?9?$DOnBlockUse?5?$DN?$DN?5nBlockUse?$AA@ 200c60a4     LIBCMTD:dbgheap.obj
 0002:000080c4       ??_C@_0DN@KKIO@pHead?9?$DOnLine?5?$DN?$DN?5IGNORE_LINE?5?$CG?$CG?5p@ 200c60c4     LIBCMTD:dbgheap.obj
 0002:00008104       ??_C@_0CK@OJNB@DAMAGE?3?5after?5?$CFhs?5block?5?$CI?$CD?$CFd?$CJ?5at@ 200c6104     LIBCMTD:dbgheap.obj
 0002:00008130       ??_C@_0CL@IJIL@DAMAGE?3?5before?5?$CFhs?5block?5?$CI?$CD?$CFd?$CJ?5a@ 200c6130     LIBCMTD:dbgheap.obj
 0002:0000815c       ??_C@_0CH@PHOC@_BLOCK_TYPE_IS_VALID?$CIpHead?9?$DOnBlo@ 200c615c     LIBCMTD:dbgheap.obj
 0002:00008184       ??_C@_0BL@MBNA@Client?5hook?5free?5failure?4?6?$AA@ 200c6184     LIBCMTD:dbgheap.obj
 0002:000081a0       ??_C@_0DK@EKKL@memory?5check?5error?5at?50x?$CF08X?5?$DN?50@ 200c61a0     LIBCMTD:dbgheap.obj
 0002:000081dc       ??_C@_0CJ@GCII@?$CFhs?5located?5at?50x?$CF08X?5is?5?$CFu?5byte@ 200c61dc     LIBCMTD:dbgheap.obj
 0002:00008208       ??_C@_0CA@EJPI@?$CFhs?5allocated?5at?5file?5?$CFhs?$CI?$CFd?$CJ?4?6?$AA@ 200c6208     LIBCMTD:dbgheap.obj
 0002:00008228       ??_C@_0CJ@LHHG@DAMAGE?3?5on?5top?5of?5Free?5block?5at?5@ 200c6228     LIBCMTD:dbgheap.obj
 0002:00008254       ??_C@_07GJHM@DAMAGED?$AA@  200c6254     LIBCMTD:dbgheap.obj
 0002:0000825c       ??_C@_0CL@ODIE@_heapchk?5fails?5with?5unknown?5retu@ 200c625c     LIBCMTD:dbgheap.obj
 0002:00008288       ??_C@_0CC@EHNC@_heapchk?5fails?5with?5_HEAPBADPTR?4@ 200c6288     LIBCMTD:dbgheap.obj
 0002:000082ac       ??_C@_0CC@JNDP@_heapchk?5fails?5with?5_HEAPBADEND?4@ 200c62ac     LIBCMTD:dbgheap.obj
 0002:000082d0       ??_C@_0CD@DNMG@_heapchk?5fails?5with?5_HEAPBADNODE@ 200c62d0     LIBCMTD:dbgheap.obj
 0002:000082f4       ??_C@_0CE@JMCB@_heapchk?5fails?5with?5_HEAPBADBEGI@ 200c62f4     LIBCMTD:dbgheap.obj
 0002:00008318       ??_C@_0CD@MEMI@Bad?5memory?5block?5found?5at?50x?$CF08X@ 200c6318     LIBCMTD:dbgheap.obj
 0002:0000833c       ??_C@_0CI@GMAO@_CrtMemCheckPoint?3?5NULL?5state?5po@ 200c633c     LIBCMTD:dbgheap.obj
 0002:00008364       ??_C@_0CI@MNAE@_CrtMemDifference?3?5NULL?5state?5po@ 200c6364     LIBCMTD:dbgheap.obj
 0002:0000838c       ??_C@_0BH@PKIJ@Object?5dump?5complete?4?6?$AA@ 200c638c     LIBCMTD:dbgheap.obj
 0002:000083a4       ??_C@_0DB@DBPF@crt?5block?5at?50x?$CF08X?0?5subtype?5?$CFx?0@ 200c63a4     LIBCMTD:dbgheap.obj
 0002:000083d8       ??_C@_0CI@JLM@normal?5block?5at?50x?$CF08X?0?5?$CFu?5bytes@ 200c63d8     LIBCMTD:dbgheap.obj
 0002:00008400       ??_C@_0DE@PFEA@client?5block?5at?50x?$CF08X?0?5subtype?5@ 200c6400     LIBCMTD:dbgheap.obj
 0002:00008434       ??_C@_06MBCE@?$HL?$CFld?$HN?5?$AA@ 200c6434     LIBCMTD:dbgheap.obj
 0002:0000843c       ??_C@_0L@BLDJ@?$CFhs?$CI?$CFd?$CJ?5?3?5?$AA@ 200c643c     LIBCMTD:dbgheap.obj
 0002:00008448       ??_C@_0BE@FEMA@?$CDFile?5Error?$CD?$CI?$CFd?$CJ?5?3?5?$AA@ 200c6448     LIBCMTD:dbgheap.obj
 0002:0000845c       ??_C@_0BE@FPPM@Dumping?5objects?5?9?$DO?6?$AA@ 200c645c     LIBCMTD:dbgheap.obj
 0002:00008470       ??_C@_0BA@POLM@?5Data?3?5?$DM?$CFs?$DO?5?$CFs?6?$AA@ 200c6470     LIBCMTD:dbgheap.obj
 0002:00008480       ??_C@_05JLAO@?$CF?42X?5?$AA@ 200c6480     LIBCMTD:dbgheap.obj
 0002:00008488       ??_C@_0BI@KONA@Detected?5memory?5leaks?$CB?6?$AA@ 200c6488     LIBCMTD:dbgheap.obj
 0002:000084a0       ??_C@_0BP@LCCN@Total?5allocations?3?5?$CFld?5bytes?4?6?$AA@ 200c64a0     LIBCMTD:dbgheap.obj
 0002:000084c0       ??_C@_0CB@COID@Largest?5number?5used?3?5?$CFld?5bytes?4?6@ 200c64c0     LIBCMTD:dbgheap.obj
 0002:000084e4       ??_C@_0BO@MEJD@?$CFld?5bytes?5in?5?$CFld?5?$CFhs?5Blocks?4?6?$AA@ 200c64e4     LIBCMTD:dbgheap.obj
 0002:00008504       ??_C@_09IGKD@stdenvp?4c?$AA@ 200c6504     LIBCMTD:stdenvp.obj
 0002:00008510       ??_C@_09MPMN@stdargv?4c?$AA@ 200c6510     LIBCMTD:stdargv.obj
 0002:0000851c       ??_C@_07BNNE@a_env?4c?$AA@ 200c651c     LIBCMTD:a_env.obj
 0002:00008524       ??_C@_0P@GGKG@runtime?5error?5?$AA@ 200c6524     LIBCMTD:crt0msg.obj
 0002:00008534       ??_C@_02PIMC@?$AN?6?$AA@   200c6534     LIBCMTD:crt0msg.obj
 0002:00008538       ??_C@_0O@DELO@TLOSS?5error?$AN?6?$AA@ 200c6538     LIBCMTD:crt0msg.obj
 0002:00008548       ??_C@_0N@OMLL@SING?5error?$AN?6?$AA@ 200c6548     LIBCMTD:crt0msg.obj
 0002:00008558       ??_C@_0P@OJAK@DOMAIN?5error?$AN?6?$AA@ 200c6558     LIBCMTD:crt0msg.obj
 0002:00008568       ??_C@_0CF@EANP@R6028?$AN?6?9?5unable?5to?5initialize?5he@ 200c6568     LIBCMTD:crt0msg.obj
 0002:00008590       ??_C@_0DF@ECGN@R6027?$AN?6?9?5not?5enough?5space?5for?5lo@ 200c6590     LIBCMTD:crt0msg.obj
 0002:000085c8       ??_C@_0DF@FKAC@R6026?$AN?6?9?5not?5enough?5space?5for?5st@ 200c65c8     LIBCMTD:crt0msg.obj
 0002:00008600       ??_C@_0CG@DPMN@R6025?$AN?6?9?5pure?5virtual?5function?5c@ 200c6600     LIBCMTD:crt0msg.obj
 0002:00008628       ??_C@_0DF@CKIP@R6024?$AN?6?9?5not?5enough?5space?5for?5_o@ 200c6628     LIBCMTD:crt0msg.obj
 0002:00008660       ??_C@_0CJ@GGOE@R6019?$AN?6?9?5unable?5to?5open?5console?5@ 200c6660     LIBCMTD:crt0msg.obj
 0002:0000868c       ??_C@_0CB@LBOB@R6018?$AN?6?9?5unexpected?5heap?5error?$AN?6@ 200c668c     LIBCMTD:crt0msg.obj
 0002:000086b0       ??_C@_0CN@FPEG@R6017?$AN?6?9?5unexpected?5multithread?5@ 200c66b0     LIBCMTD:crt0msg.obj
 0002:000086e0       ??_C@_0CM@OBIC@R6016?$AN?6?9?5not?5enough?5space?5for?5th@ 200c66e0     LIBCMTD:crt0msg.obj
 0002:0000870c       ??_C@_0CB@HPAL@?$AN?6abnormal?5program?5termination?$AN?6@ 200c670c     LIBCMTD:crt0msg.obj
 0002:00008730       ??_C@_0CM@JOOB@R6009?$AN?6?9?5not?5enough?5space?5for?5en@ 200c6730     LIBCMTD:crt0msg.obj
 0002:0000875c       ??_C@_0CK@OIBL@R6008?$AN?6?9?5not?5enough?5space?5for?5ar@ 200c675c     LIBCMTD:crt0msg.obj
 0002:00008788       ??_C@_0CF@LKPB@R6002?$AN?6?9?5floating?5point?5not?5load@ 200c6788     LIBCMTD:crt0msg.obj
 0002:000087b0       ??_C@_0BK@DEOK@Runtime?5Error?$CB?6?6Program?3?5?$AA@ 200c67b0     LIBCMTD:crt0msg.obj
 0002:000087dc       ??_C@_08MOLN@mbtowc?4c?$AA@ 200c67dc     LIBCMTD:mbtowc.obj
 0002:000087e8       ??_C@_0CD@NPPL@MB_CUR_MAX?5?$DN?$DN?51?5?$HM?$HM?5MB_CUR_MAX?5?$DN?$DN@ 200c67e8     LIBCMTD:mbtowc.obj
 0002:0000880c       ??_C@_09DNOI@_filbuf?4c?$AA@ 200c680c     LIBCMTD:_filbuf.obj
 0002:00008818       ??_C@_08JKP@ungetc?4c?$AA@ 200c6818     LIBCMTD:ungetc.obj
 0002:00008824       ??_C@_09NEAG@sprintf?4c?$AA@ 200c6824     LIBCMTD:snprintf.obj
 0002:00008830       ??_C@_0L@EEGJ@inittime?4c?$AA@ 200c6830     LIBCMTD:inittime.obj
 0002:0000883c       ??_C@_09IMJJ@initnum?4c?$AA@ 200c683c     LIBCMTD:initnum.obj
 0002:00008848       ??_C@_09KPNI@initmon?4c?$AA@ 200c6848     LIBCMTD:initmon.obj
 0002:00008854       ??_C@_0L@COIL@initctyp?4c?$AA@ 200c6854     LIBCMTD:initctyp.obj
 0002:00008860       ??_C@_08OBJD@Paraguay?$AA@ 200c6860     LIBCMTD:getqloc.obj
 0002:0000886c       ??_C@_07GLKH@Uruguay?$AA@  200c686c     LIBCMTD:getqloc.obj
 0002:00008874       ??_C@_05FPFC@Chile?$AA@    200c6874     LIBCMTD:getqloc.obj
 0002:0000887c       ??_C@_07IIGF@Ecuador?$AA@  200c687c     LIBCMTD:getqloc.obj
 0002:00008884       ??_C@_09PKAL@Argentina?$AA@ 200c6884     LIBCMTD:getqloc.obj
 0002:00008890       ??_C@_04LKAH@Peru?$AA@     200c6890     LIBCMTD:getqloc.obj
 0002:00008898       ??_C@_08NEEM@Colombia?$AA@ 200c6898     LIBCMTD:getqloc.obj
 0002:000088a4       ??_C@_09ODEB@Venezuela?$AA@ 200c68a4     LIBCMTD:getqloc.obj
 0002:000088b0       ??_C@_0BD@CLEL@Dominican?5Republic?$AA@ 200c68b0     LIBCMTD:getqloc.obj
 0002:000088c4       ??_C@_0N@MDGL@South?5Africa?$AA@ 200c68c4     LIBCMTD:getqloc.obj
 0002:000088d4       ??_C@_06NKBG@Panama?$AA@   200c68d4     LIBCMTD:getqloc.obj
 0002:000088dc       ??_C@_0L@BMHO@Luxembourg?$AA@ 200c68dc     LIBCMTD:getqloc.obj
 0002:000088e8       ??_C@_0L@IMDK@Costa?5Rica?$AA@ 200c68e8     LIBCMTD:getqloc.obj
 0002:000088f4       ??_C@_0M@BLJF@Switzerland?$AA@ 200c68f4     LIBCMTD:getqloc.obj
 0002:00008900       ??_C@_09KBOL@Guatemala?$AA@ 200c6900     LIBCMTD:getqloc.obj
 0002:0000890c       ??_C@_06JNAK@Canada?$AA@   200c690c     LIBCMTD:getqloc.obj
 0002:00008914       ??_C@_0BG@OLLP@Spanish?5?9?5Modern?5Sort?$AA@ 200c6914     LIBCMTD:getqloc.obj
 0002:0000892c       ??_C@_09IDKE@Australia?$AA@ 200c692c     LIBCMTD:getqloc.obj
 0002:00008938       ??_C@_07JJJJ@English?$AA@  200c6938     LIBCMTD:getqloc.obj
 0002:00008940       ??_C@_07NMDO@Austria?$AA@  200c6940     LIBCMTD:getqloc.obj
 0002:00008948       ??_C@_06DEFE@German?$AA@   200c6948     LIBCMTD:getqloc.obj
 0002:00008950       ??_C@_07JAIH@Belgium?$AA@  200c6950     LIBCMTD:getqloc.obj
 0002:00008958       ??_C@_06BNLJ@Mexico?$AA@   200c6958     LIBCMTD:getqloc.obj
 0002:00008960       ??_C@_07JHAG@Spanish?$AA@  200c6960     LIBCMTD:getqloc.obj
 0002:00008968       ??_C@_06DADE@Basque?$AA@   200c6968     LIBCMTD:getqloc.obj
 0002:00008970       ??_C@_06ENFP@Sweden?$AA@   200c6970     LIBCMTD:getqloc.obj
 0002:00008978       ??_C@_07JPMH@Swedish?$AA@  200c6978     LIBCMTD:getqloc.obj
 0002:00008980       ??_C@_07IEKF@Iceland?$AA@  200c6980     LIBCMTD:getqloc.obj
 0002:00008988       ??_C@_09KNEA@Icelandic?$AA@ 200c6988     LIBCMTD:getqloc.obj
 0002:00008994       ??_C@_06IJOD@France?$AA@   200c6994     LIBCMTD:getqloc.obj
 0002:0000899c       ??_C@_06EINI@French?$AA@   200c699c     LIBCMTD:getqloc.obj
 0002:000089a4       ??_C@_07FOOE@Finland?$AA@  200c69a4     LIBCMTD:getqloc.obj
 0002:000089ac       ??_C@_07OJOM@Finnish?$AA@  200c69ac     LIBCMTD:getqloc.obj
 0002:000089b4       ??_C@_05FFAC@Spain?$AA@    200c69b4     LIBCMTD:getqloc.obj
 0002:000089bc       ??_C@_0BL@BIHM@Spanish?5?9?5Traditional?5Sort?$AA@ 200c69bc     LIBCMTD:getqloc.obj
 0002:000089d8       ??_C@_0O@GLHB@united?9states?$AA@ 200c69d8     LIBCMTD:getqloc.obj
 0002:000089e8       ??_C@_0P@IIKK@united?9kingdom?$AA@ 200c69e8     LIBCMTD:getqloc.obj
 0002:000089f8       ??_C@_0BC@FHBO@trinidad?5?$CG?5tobago?$AA@ 200c69f8     LIBCMTD:getqloc.obj
 0002:00008a0c       ??_C@_0M@BDFM@south?9korea?$AA@ 200c6a0c     LIBCMTD:getqloc.obj
 0002:00008a18       ??_C@_0N@CKFA@south?9africa?$AA@ 200c6a18     LIBCMTD:getqloc.obj
 0002:00008a28       ??_C@_0M@HNHN@south?5korea?$AA@ 200c6a28     LIBCMTD:getqloc.obj
 0002:00008a34       ??_C@_0N@MKDO@south?5africa?$AA@ 200c6a34     LIBCMTD:getqloc.obj
 0002:00008a44       ??_C@_06KFFJ@slovak?$AA@   200c6a44     LIBCMTD:getqloc.obj
 0002:00008a4c       ??_C@_0M@NMAC@puerto?9rico?$AA@ 200c6a4c     LIBCMTD:getqloc.obj
 0002:00008a58       ??_C@_08EJOH@pr?9china?$AA@ 200c6a58     LIBCMTD:getqloc.obj
 0002:00008a64       ??_C@_08CHMG@pr?5china?$AA@ 200c6a64     LIBCMTD:getqloc.obj
 0002:00008a70       ??_C@_02OCJK@nz?$AA@       200c6a70     LIBCMTD:getqloc.obj
 0002:00008a74       ??_C@_0M@MMKA@new?9zealand?$AA@ 200c6a74     LIBCMTD:getqloc.obj
 0002:00008a80       ??_C@_09MGEH@hong?9kong?$AA@ 200c6a80     LIBCMTD:getqloc.obj
 0002:00008a8c       ??_C@_07CCAK@holland?$AA@  200c6a8c     LIBCMTD:getqloc.obj
 0002:00008a94       ??_C@_0O@MEPL@great?5britain?$AA@ 200c6a94     LIBCMTD:getqloc.obj
 0002:00008aa4       ??_C@_07LGIB@england?$AA@  200c6aa4     LIBCMTD:getqloc.obj
 0002:00008aac       ??_C@_05BMOA@czech?$AA@    200c6aac     LIBCMTD:getqloc.obj
 0002:00008ab4       ??_C@_05NMPB@china?$AA@    200c6ab4     LIBCMTD:getqloc.obj
 0002:00008abc       ??_C@_07GN@britain?$AA@    200c6abc     LIBCMTD:getqloc.obj
 0002:00008ac4       ??_C@_07DLAK@america?$AA@  200c6ac4     LIBCMTD:getqloc.obj
 0002:00008acc       ??_C@_03IPEP@usa?$AA@      200c6acc     LIBCMTD:getqloc.obj
 0002:00008ad0       ??_C@_02PILH@us?$AA@       200c6ad0     LIBCMTD:getqloc.obj
 0002:00008ad4       ??_C@_02FHP@uk?$AA@        200c6ad4     LIBCMTD:getqloc.obj
 0002:00008ad8       ??_C@_05DEAI@swiss?$AA@    200c6ad8     LIBCMTD:getqloc.obj
 0002:00008ae0       ??_C@_0BA@LIAF@swedish?9finland?$AA@ 200c6ae0     LIBCMTD:getqloc.obj
 0002:00008af0       ??_C@_0BC@FMEG@spanish?9venezuela?$AA@ 200c6af0     LIBCMTD:getqloc.obj
 0002:00008b04       ??_C@_0BA@BNMG@spanish?9uruguay?$AA@ 200c6b04     LIBCMTD:getqloc.obj
 0002:00008b14       ??_C@_0BE@BKDJ@spanish?9puerto?5rico?$AA@ 200c6b14     LIBCMTD:getqloc.obj
 0002:00008b28       ??_C@_0N@JIBL@spanish?9peru?$AA@ 200c6b28     LIBCMTD:getqloc.obj
 0002:00008b38       ??_C@_0BB@OGOF@spanish?9paraguay?$AA@ 200c6b38     LIBCMTD:getqloc.obj
 0002:00008b4c       ??_C@_0P@LLFA@spanish?9panama?$AA@ 200c6b4c     LIBCMTD:getqloc.obj
 0002:00008b5c       ??_C@_0BC@BBJM@spanish?9nicaragua?$AA@ 200c6b5c     LIBCMTD:getqloc.obj
 0002:00008b70       ??_C@_0P@NJBN@spanish?9modern?$AA@ 200c6b70     LIBCMTD:getqloc.obj
 0002:00008b80       ??_C@_0BA@NHDN@spanish?9mexican?$AA@ 200c6b80     LIBCMTD:getqloc.obj
 0002:00008b90       ??_C@_0BB@JHOJ@spanish?9honduras?$AA@ 200c6b90     LIBCMTD:getqloc.obj
 0002:00008ba4       ??_C@_0BC@BOOM@spanish?9guatemala?$AA@ 200c6ba4     LIBCMTD:getqloc.obj
 0002:00008bb8       ??_C@_0BE@EELI@spanish?9el?5salvador?$AA@ 200c6bb8     LIBCMTD:getqloc.obj
 0002:00008bcc       ??_C@_0BA@POAE@spanish?9ecuador?$AA@ 200c6bcc     LIBCMTD:getqloc.obj
 0002:00008bdc       ??_C@_0BL@LDKN@spanish?9dominican?5republic?$AA@ 200c6bdc     LIBCMTD:getqloc.obj
 0002:00008bf8       ??_C@_0BD@HPMH@spanish?9costa?5rica?$AA@ 200c6bf8     LIBCMTD:getqloc.obj
 0002:00008c0c       ??_C@_0BB@NDDK@spanish?9colombia?$AA@ 200c6c0c     LIBCMTD:getqloc.obj
 0002:00008c20       ??_C@_0O@BJHA@spanish?9chile?$AA@ 200c6c20     LIBCMTD:getqloc.obj
 0002:00008c30       ??_C@_0BA@OBNG@spanish?9bolivia?$AA@ 200c6c30     LIBCMTD:getqloc.obj
 0002:00008c40       ??_C@_0BC@EFAM@spanish?9argentina?$AA@ 200c6c40     LIBCMTD:getqloc.obj
 0002:00008c54       ??_C@_0BF@KMMM@portuguese?9brazilian?$AA@ 200c6c54     LIBCMTD:getqloc.obj
 0002:00008c6c       ??_C@_0BC@BAAE@norwegian?9nynorsk?$AA@ 200c6c6c     LIBCMTD:getqloc.obj
 0002:00008c80       ??_C@_0BB@PBHK@norwegian?9bokmal?$AA@ 200c6c80     LIBCMTD:getqloc.obj
 0002:00008c94       ??_C@_09EHKL@norwegian?$AA@ 200c6c94     LIBCMTD:getqloc.obj
 0002:00008ca0       ??_C@_0O@BEAN@italian?9swiss?$AA@ 200c6ca0     LIBCMTD:getqloc.obj
 0002:00008cb0       ??_C@_0O@OIFK@irish?9english?$AA@ 200c6cb0     LIBCMTD:getqloc.obj
 0002:00008cc0       ??_C@_0N@NBPL@german?9swiss?$AA@ 200c6cc0     LIBCMTD:getqloc.obj
 0002:00008cd0       ??_C@_0BC@ICFJ@german?9luxembourg?$AA@ 200c6cd0     LIBCMTD:getqloc.obj
 0002:00008ce4       ??_C@_0BE@GGPC@german?9lichtenstein?$AA@ 200c6ce4     LIBCMTD:getqloc.obj
 0002:00008cf8       ??_C@_0BA@MKDC@german?9austrian?$AA@ 200c6cf8     LIBCMTD:getqloc.obj
 0002:00008d08       ??_C@_0N@ODNB@french?9swiss?$AA@ 200c6d08     LIBCMTD:getqloc.obj
 0002:00008d18       ??_C@_0BC@MGCM@french?9luxembourg?$AA@ 200c6d18     LIBCMTD:getqloc.obj
 0002:00008d2c       ??_C@_0BA@NABK@french?9canadian?$AA@ 200c6d2c     LIBCMTD:getqloc.obj
 0002:00008d3c       ??_C@_0P@CJNO@french?9belgian?$AA@ 200c6d3c     LIBCMTD:getqloc.obj
 0002:00008d4c       ??_C@_0M@LJOL@english?9usa?$AA@ 200c6d4c     LIBCMTD:getqloc.obj
 0002:00008d58       ??_C@_0L@FMNC@english?9us?$AA@ 200c6d58     LIBCMTD:getqloc.obj
 0002:00008d64       ??_C@_0L@KBBK@english?9uk?$AA@ 200c6d64     LIBCMTD:getqloc.obj
 0002:00008d70       ??_C@_0BK@NDDE@english?9trinidad?5y?5tobago?$AA@ 200c6d70     LIBCMTD:getqloc.obj
 0002:00008d8c       ??_C@_0BF@LKML@english?9south?5africa?$AA@ 200c6d8c     LIBCMTD:getqloc.obj
 0002:00008da4       ??_C@_0L@EGPP@english?9nz?$AA@ 200c6da4     LIBCMTD:getqloc.obj
 0002:00008db0       ??_C@_0BA@HLH@english?9jamaica?$AA@ 200c6db0     LIBCMTD:getqloc.obj
 0002:00008dc0       ??_C@_0M@PMJI@english?9ire?$AA@ 200c6dc0     LIBCMTD:getqloc.obj
 0002:00008dcc       ??_C@_0BC@HINE@english?9caribbean?$AA@ 200c6dcc     LIBCMTD:getqloc.obj
 0002:00008de0       ??_C@_0M@DCFH@english?9can?$AA@ 200c6de0     LIBCMTD:getqloc.obj
 0002:00008dec       ??_C@_0P@DGHK@english?9belize?$AA@ 200c6dec     LIBCMTD:getqloc.obj
 0002:00008dfc       ??_C@_0M@FLHK@english?9aus?$AA@ 200c6dfc     LIBCMTD:getqloc.obj
 0002:00008e08       ??_C@_0BB@HNCK@english?9american?$AA@ 200c6e08     LIBCMTD:getqloc.obj
 0002:00008e1c       ??_C@_0O@PAMI@dutch?9belgian?$AA@ 200c6e1c     LIBCMTD:getqloc.obj
 0002:00008e2c       ??_C@_0BE@FPEJ@chinese?9traditional?$AA@ 200c6e2c     LIBCMTD:getqloc.obj
 0002:00008e40       ??_C@_0BC@CHFL@chinese?9singapore?$AA@ 200c6e40     LIBCMTD:getqloc.obj
 0002:00008e54       ??_C@_0BD@DCMH@chinese?9simplified?$AA@ 200c6e54     LIBCMTD:getqloc.obj
 0002:00008e68       ??_C@_0BB@JMOE@chinese?9hongkong?$AA@ 200c6e68     LIBCMTD:getqloc.obj
 0002:00008e7c       ??_C@_07NGFN@chinese?$AA@  200c6e7c     LIBCMTD:getqloc.obj
 0002:00008e84       ??_C@_03PCOI@chi?$AA@      200c6e84     LIBCMTD:getqloc.obj
 0002:00008e88       ??_C@_03FIHP@chh?$AA@      200c6e88     LIBCMTD:getqloc.obj
 0002:00008e8c       ??_C@_08HFLO@canadian?$AA@ 200c6e8c     LIBCMTD:getqloc.obj
 0002:00008e98       ??_C@_07INIJ@belgian?$AA@  200c6e98     LIBCMTD:getqloc.obj
 0002:00008ea0       ??_C@_0L@LCCA@australian?$AA@ 200c6ea0     LIBCMTD:getqloc.obj
 0002:00008eac       ??_C@_0BB@BJIO@american?9english?$AA@ 200c6eac     LIBCMTD:getqloc.obj
 0002:00008ec0       ??_C@_0BB@DAGO@american?5english?$AA@ 200c6ec0     LIBCMTD:getqloc.obj
 0002:00008ed4       ??_C@_08HENB@american?$AA@ 200c6ed4     LIBCMTD:getqloc.obj
 0002:00008ee0       ??_C@_03DGJE@OCP?$AA@      200c6ee0     LIBCMTD:getqloc.obj
 0002:00008ee4       ??_C@_03EKFG@ACP?$AA@      200c6ee4     LIBCMTD:getqloc.obj
 0002:00008ee8       ??_C@_09EMDO@_getbuf?4c?$AA@ 200c6ee8     LIBCMTD:_getbuf.obj
 0002:00008ef4       ??_C@_09JNND@_sftbuf?4c?$AA@ 200c6ef4     LIBCMTD:_sftbuf.obj
 0002:00008f00       ??_C@_0BH@EOPG@flag?5?$DN?$DN?50?5?$HM?$HM?5flag?5?$DN?$DN?51?$AA@ 200c6f00     LIBCMTD:_sftbuf.obj
 0002:00008f18       ??_C@_0L@JIE@_freebuf?4c?$AA@ 200c6f18     LIBCMTD:_freebuf.obj
 0002:00008f24       ??_C@_06PAPI@1?$CDQNAN?$AA@ 200c6f24     LIBCMTD:x10fout.obj
 0002:00008f2c       ??_C@_05BGNL@1?$CDINF?$AA@ 200c6f2c     LIBCMTD:x10fout.obj
 0002:00008f34       ??_C@_05EDPF@1?$CDIND?$AA@ 200c6f34     LIBCMTD:x10fout.obj
 0002:00008f3c       ??_C@_06LKFM@1?$CDSNAN?$AA@ 200c6f3c     LIBCMTD:x10fout.obj
 0002:00008f44       ??_C@_07CJME@H?3mm?3ss?$AA@ 200c6f44     LIBCMTD:strftime.obj
 0002:00008f4c       ??_C@_0BE@MHI@dddd?0?5MMMM?5dd?0?5yyyy?$AA@ 200c6f4c     LIBCMTD:strftime.obj
 0002:00008f60       ??_C@_06HCAD@M?1d?1yy?$AA@ 200c6f60     LIBCMTD:strftime.obj
 0002:00008f68       ??_C@_02DBLP@PM?$AA@       200c6f68     LIBCMTD:strftime.obj
 0002:00008f6c       ??_C@_02ENLM@AM?$AA@       200c6f6c     LIBCMTD:strftime.obj
 0002:00008f70       ??_C@_08LIDF@December?$AA@ 200c6f70     LIBCMTD:strftime.obj
 0002:00008f7c       ??_C@_08NJLI@November?$AA@ 200c6f7c     LIBCMTD:strftime.obj
 0002:00008f88       ??_C@_07IAMM@October?$AA@  200c6f88     LIBCMTD:strftime.obj
 0002:00008f90       ??_C@_09MKGD@September?$AA@ 200c6f90     LIBCMTD:strftime.obj
 0002:00008f9c       ??_C@_06PADP@August?$AA@   200c6f9c     LIBCMTD:strftime.obj
 0002:00008fa4       ??_C@_04PIJO@July?$AA@     200c6fa4     LIBCMTD:strftime.obj
 0002:00008fac       ??_C@_04ICFP@June?$AA@     200c6fac     LIBCMTD:strftime.obj
 0002:00008fb4       ??_C@_05JFGC@April?$AA@    200c6fb4     LIBCMTD:strftime.obj
 0002:00008fbc       ??_C@_05FGPD@March?$AA@    200c6fbc     LIBCMTD:strftime.obj
 0002:00008fc4       ??_C@_08PGBA@February?$AA@ 200c6fc4     LIBCMTD:strftime.obj
 0002:00008fd0       ??_C@_07BPKJ@January?$AA@  200c6fd0     LIBCMTD:strftime.obj
 0002:00008fd8       ??_C@_03PGJO@Dec?$AA@      200c6fd8     LIBCMTD:strftime.obj
 0002:00008fdc       ??_C@_03PDLM@Nov?$AA@      200c6fdc     LIBCMTD:strftime.obj
 0002:00008fe0       ??_C@_03BLHK@Oct?$AA@      200c6fe0     LIBCMTD:strftime.obj
 0002:00008fe4       ??_C@_03DPFM@Sep?$AA@      200c6fe4     LIBCMTD:strftime.obj
 0002:00008fe8       ??_C@_03CMCH@Aug?$AA@      200c6fe8     LIBCMTD:strftime.obj
 0002:00008fec       ??_C@_03OBKI@Jul?$AA@      200c6fec     LIBCMTD:strftime.obj
 0002:00008ff0       ??_C@_03LEIG@Jun?$AA@      200c6ff0     LIBCMTD:strftime.obj
 0002:00008ff4       ??_C@_03MGHB@May?$AA@      200c6ff4     LIBCMTD:strftime.obj
 0002:00008ff8       ??_C@_03MJJM@Apr?$AA@      200c6ff8     LIBCMTD:strftime.obj
 0002:00008ffc       ??_C@_03GNHA@Mar?$AA@      200c6ffc     LIBCMTD:strftime.obj
 0002:00009000       ??_C@_03PICE@Feb?$AA@      200c7000     LIBCMTD:strftime.obj
 0002:00009004       ??_C@_03IEIF@Jan?$AA@      200c7004     LIBCMTD:strftime.obj
 0002:00009008       ??_C@_08FAKH@Saturday?$AA@ 200c7008     LIBCMTD:strftime.obj
 0002:00009014       ??_C@_06ONCK@Friday?$AA@   200c7014     LIBCMTD:strftime.obj
 0002:0000901c       ??_C@_08CCFO@Thursday?$AA@ 200c701c     LIBCMTD:strftime.obj
 0002:00009028       ??_C@_09PBIN@Wednesday?$AA@ 200c7028     LIBCMTD:strftime.obj
 0002:00009034       ??_C@_07BMBC@Tuesday?$AA@  200c7034     LIBCMTD:strftime.obj
 0002:0000903c       ??_C@_06CHLK@Monday?$AA@   200c703c     LIBCMTD:strftime.obj
 0002:00009044       ??_C@_06OOEM@Sunday?$AA@   200c7044     LIBCMTD:strftime.obj
 0002:0000904c       ??_C@_03MPKK@Sat?$AA@      200c704c     LIBCMTD:strftime.obj
 0002:00009050       ??_C@_03FINJ@Fri?$AA@      200c7050     LIBCMTD:strftime.obj
 0002:00009054       ??_C@_03HIKC@Thu?$AA@      200c7054     LIBCMTD:strftime.obj
 0002:00009058       ??_C@_03HECK@Wed?$AA@      200c7058     LIBCMTD:strftime.obj
 0002:0000905c       ??_C@_03ECCP@Tue?$AA@      200c705c     LIBCMTD:strftime.obj
 0002:00009060       ??_C@_03PIEP@Mon?$AA@      200c7060     LIBCMTD:strftime.obj
 0002:00009064       ??_C@_03FHEP@Sun?$AA@      200c7064     LIBCMTD:strftime.obj
 0002:00009068       ??_C@_03MKGK@a?1p?$AA@     200c7068     LIBCMTD:strftime.obj
 0002:0000906c       ??_C@_05BDJK@am?1pm?$AA@   200c706c     LIBCMTD:strftime.obj
 0002:00009074       ??_C@_0L@HKCB@inithelp?4c?$AA@ 200c7074     LIBCMTD:inithelp.obj
 0002:00009098       ??_C@_09LNLM@osfinfo?4c?$AA@ 200c7098     LIBCMTD:osfinfo.obj
 0002:000090a4       ??_C@_08PHBD@fclose?4c?$AA@ 200c70a4     LIBCMTD:fclose.obj
 0002:000090b0       ___dnames                  200c70b0     LIBCMTD:timeset.obj
 0002:000090c8       ___mnames                  200c70c8     LIBCMTD:timeset.obj
 0002:000090f0       ??_C@_07DEKI@tzset?4c?$AA@ 200c70f0     LIBCMTD:tzset.obj
 0002:000090f8       ??_C@_02JHIA@TZ?$AA@       200c70f8     LIBCMTD:tzset.obj
 0002:0000911c       ??_C@_0L@EJNO@wtombenv?4c?$AA@ 200c711c     LIBCMTD:wtombenv.obj
 0002:00009128       ??_C@_07FOIK@a_cmp?4c?$AA@ 200c7128     LIBCMTD:a_cmp.obj
 0002:00009130       ??_C@_0DN@PPKB@cchCount1?$DN?$DN0?5?$CG?$CG?5cchCount2?$DN?$DN1?5?$HM?$HM?5@ 200c7130     LIBCMTD:a_cmp.obj
 0002:00009188       ??_C@_08FEIK@setenv?4c?$AA@ 200c7188     LIBCMTD:setenv.obj
 0003:00000000       ___xc_a                    200c8000     LIBCMTD:crt0init.obj
 0003:00000104       ___xc_z                    200c8104     LIBCMTD:crt0init.obj
 0003:00000208       ___xi_a                    200c8208     LIBCMTD:crt0init.obj
 0003:00000418       ___xi_z                    200c8418     LIBCMTD:crt0init.obj
 0003:0000051c       ___xp_a                    200c851c     LIBCMTD:crt0init.obj
 0003:00000724       ___xp_z                    200c8724     LIBCMTD:crt0init.obj
 0003:00000828       ___xt_a                    200c8828     LIBCMTD:crt0init.obj
 0003:0000092c       ___xt_z                    200c892c     LIBCMTD:crt0init.obj
 0003:00000a70       _voiceCommands             200c8a70     ai_vcmd.obj
 0003:00000b00       _bg_itemlist               200c8b00     bg_misc.obj
 0003:00001284       _bg_numItems               200c9284     bg_misc.obj
 0003:00001288       _eventnames                200c9288     bg_misc.obj
 0003:00001578       _pm_stopspeed              200c9578     bg_pmove.obj
 0003:0000157c       _pm_duckScale              200c957c     bg_pmove.obj
 0003:00001580       _pm_InvduckScale           200c9580     bg_pmove.obj
 0003:00001584       _pm_WallWalkScale          200c9584     bg_pmove.obj
 0003:00001588       _pm_swimScale              200c9588     bg_pmove.obj
 0003:0000158c       _pm_wadeScale              200c958c     bg_pmove.obj
 0003:00001590       _pm_LadderScale            200c9590     bg_pmove.obj
 0003:00001594       _pm_accelerate             200c9594     bg_pmove.obj
 0003:00001598       _pm_airaccelerate          200c9598     bg_pmove.obj
 0003:0000159c       _pm_wateraccelerate        200c959c     bg_pmove.obj
 0003:000015a0       _pm_flyaccelerate          200c95a0     bg_pmove.obj
 0003:000015a4       _pm_LadderAccelerate       200c95a4     bg_pmove.obj
 0003:000015a8       _pm_friction               200c95a8     bg_pmove.obj
 0003:000015ac       _pm_waterfriction          200c95ac     bg_pmove.obj
 0003:000015b0       _pm_flightfriction         200c95b0     bg_pmove.obj
 0003:000015b4       _pm_spectatorfriction      200c95b4     bg_pmove.obj
 0003:000015b8       _pm_Ladderfriction         200c95b8     bg_pmove.obj
 0003:000015cc       ?__LINE__Var@?1??Inv_MatrixToAngles@@9@9 200c95cc     bg_pmove.obj
 0003:000015d0       ?__LINE__Var@?1??Inv_GetAngleDiff@@9@9 200c95d0     bg_pmove.obj
 0003:00001680       _modNames                  200c9680     g_combat.obj
 0003:00001d10       _fields                    200c9d10     g_spawn.obj
 0003:00001e60       _spawns                    200c9e60     g_spawn.obj
 0003:000020f4       _axisDefault               200ca0f4     q_math.obj
 0003:00002118       _colorBlack                200ca118     q_math.obj
 0003:00002128       _colorRed                  200ca128     q_math.obj
 0003:00002138       _colorGreen                200ca138     q_math.obj
 0003:00002148       _colorBlue                 200ca148     q_math.obj
 0003:00002158       _colorYellow               200ca158     q_math.obj
 0003:00002168       _colorMagenta              200ca168     q_math.obj
 0003:00002178       _colorCyan                 200ca178     q_math.obj
 0003:00002188       _colorWhite                200ca188     q_math.obj
 0003:00002198       _colorLtGrey               200ca198     q_math.obj
 0003:000021a8       _colorMdGrey               200ca1a8     q_math.obj
 0003:000021b8       _colorDkGrey               200ca1b8     q_math.obj
 0003:000021c8       _g_color_table             200ca1c8     q_math.obj
 0003:00002248       _bytedirs                  200ca248     q_math.obj
 0003:00002ba8       ?__LINE__Var@?1??ProjectPointOnPlane@@9@9 200caba8     q_math.obj
 0003:00002bb0       __fltused                  200cabb0     LIBCMTD:fpinit.obj
 0003:00002bb4       __ldused                   200cabb4     LIBCMTD:fpinit.obj
 0003:00002bb8       __FPinit                   200cabb8     LIBCMTD:fpinit.obj
 0003:00002bbc       __FPmtinit                 200cabbc     LIBCMTD:fpinit.obj
 0003:00002bc0       __FPmtterm                 200cabc0     LIBCMTD:fpinit.obj
 0003:00002c50       __aexit_rtn                200cac50     LIBCMTD:dllcrt0.obj
 0003:00002c54       __pctype                   200cac54     LIBCMTD:ctype.obj
 0003:00002c58       __pwctype                  200cac58     LIBCMTD:ctype.obj
 0003:00002c5c       __ctype                    200cac5c     LIBCMTD:ctype.obj
 0003:00002e60       ___mb_cur_max              200cae60     LIBCMTD:nlsdata1.obj
 0003:00002e64       ___decimal_point           200cae64     LIBCMTD:nlsdata1.obj
 0003:00002e68       ___decimal_point_length    200cae68     LIBCMTD:nlsdata1.obj
 0003:00002e70       ___tlsindex                200cae70     LIBCMTD:tidtable.obj
 0003:00002e74       __cfltcvt_tab              200cae74     LIBCMTD:cmiscdat.obj
 0003:00002e98       __crtAssertBusy            200cae98     LIBCMTD:dbgrpt.obj
 0003:00002e9c       __CrtDbgMode               200cae9c     LIBCMTD:dbgrpt.obj
 0003:00002ea8       __CrtDbgFile               200caea8     LIBCMTD:dbgrpt.obj
 0003:00002ec0       __indefinite               200caec0     LIBCMTD:87disp.obj
 0003:00002eca       __piby2                    200caeca     LIBCMTD:87disp.obj
 0003:00002ef0       __locktable                200caef0     LIBCMTD:mlock.obj
 0003:000030c0       ___lc_category             200cb0c0     LIBCMTD:setlocal.obj
 0003:000031e0       __d_inf                    200cb1e0     LIBCMTD:util.obj
 0003:000031e8       __d_ind                    200cb1e8     LIBCMTD:util.obj
 0003:000031f0       __d_max                    200cb1f0     LIBCMTD:util.obj
 0003:000031f8       __d_min                    200cb1f8     LIBCMTD:util.obj
 0003:00003200       __d_mzero                  200cb200     LIBCMTD:util.obj
 0003:00003220       ___nullstring              200cb220     LIBCMTD:output.obj
 0003:00003224       ___wnullstring             200cb224     LIBCMTD:output.obj
 0003:00003230       __iob                      200cb230     LIBCMTD:_file.obj
 0003:000034b0       __OP_ATAN2jmptab           200cb4b0     LIBCMTD:87triga.obj
 0003:00003500       ___badioinfo               200cb500     LIBCMTD:ioinit.obj
 0003:00003524       __crtDbgFlag               200cb524     LIBCMTD:dbgheap.obj
 0003:0000352c       __crtBreakAlloc            200cb52c     LIBCMTD:dbgheap.obj
 0003:00003548       __amblksiz                 200cb548     LIBCMTD:heapinit.obj
 0003:000035e0       __XcptActTab               200cb5e0     LIBCMTD:winxfltr.obj
 0003:00003658       __First_FPE_Indx           200cb658     LIBCMTD:winxfltr.obj
 0003:0000365c       __Num_FPE                  200cb65c     LIBCMTD:winxfltr.obj
 0003:00003660       __XcptActTabSize           200cb660     LIBCMTD:winxfltr.obj
 0003:00003664       __XcptActTabCount          200cb664     LIBCMTD:winxfltr.obj
 0003:000036a0       ___rgLocInfo               200cb6a0     LIBCMTD:getqloc.obj
 0003:00003b44       ___rglangidNotDefault      200cbb44     LIBCMTD:getqloc.obj
 0003:00003b58       ___rg_country              200cbb58     LIBCMTD:getqloc.obj
 0003:00003c10       ___rg_language             200cbc10     LIBCMTD:getqloc.obj
 0003:00003e18       __NLG_Destination          200cbe18     LIBCMTD:exsup.obj
 0003:00003f90       __matherr_flag             200cbf90     LIBCMTD:matherr.obj
 0003:00003fa0       __pfnAllocHook             200cbfa0     LIBCMTD:dbghook.obj
 0003:00003fa4       ___sbh_threshold           200cbfa4     LIBCMTD:sbheap.obj
 0003:000040a0       ___lc_time_curr            200cc0a0     LIBCMTD:strftime.obj
 0003:000040a8       ___lc_time_c               200cc0a8     LIBCMTD:strftime.obj
 0003:00004158       ___lconv_static_decimal    200cc158     LIBCMTD:lconv.obj
 0003:00004160       ___lconv_c                 200cc160     LIBCMTD:lconv.obj
 0003:00004190       ___lconv                   200cc190     LIBCMTD:lconv.obj
 0003:000041a0       __pow10pos                 200cc1a0     LIBCMTD:constpow.obj
 0003:00004300       __pow10neg                 200cc300     LIBCMTD:constpow.obj
 0003:0000445c       __timezone                 200cc45c     LIBCMTD:timeset.obj
 0003:00004460       __daylight                 200cc460     LIBCMTD:timeset.obj
 0003:00004464       __dstbias                  200cc464     LIBCMTD:timeset.obj
 0003:000044e8       __tzname                   200cc4e8     LIBCMTD:timeset.obj
 0003:0000450c       __lpdays                   200cc50c     LIBCMTD:days.obj
 0003:00004540       __days                     200cc540     LIBCMTD:days.obj
 0003:00004ca8       _pm                        200ccca8     <common>
 0003:00004cb0       _Gravity                   200cccb0     <common>
 0003:00004d18       _c_pmove                   200ccd18     bg_pmove.obj
 0003:00004d20       _WallWalk                  200ccd20     bg_pmove.obj
 0003:00004d24       _ceiling                   200ccd24     bg_pmove.obj
 0003:00006dc0       _pml                       200cedc0     <common>
 0003:00057dc0       _remapCount                2011fdc0     g_utils.obj
 0003:000581bc       _vec3_origin               201201bc     q_math.obj
 0003:00072ab4       ___fastflag                2013aab4     LIBCMTD:fpinit.obj
 0003:00072ab8       __adjust_fdiv              2013aab8     LIBCMTD:fpinit.obj
 0003:00072ac0       __aenvptr                  2013aac0     LIBCMTD:dllcrt0.obj
 0003:00072ac4       __wenvptr                  2013aac4     LIBCMTD:dllcrt0.obj
 0003:00072ac8       ___error_mode              2013aac8     LIBCMTD:dllcrt0.obj
 0003:00072acc       ___app_type                2013aacc     LIBCMTD:dllcrt0.obj
 0003:00072b44       ___lc_handle               2013ab44     LIBCMTD:nlsdata2.obj
 0003:00072b5c       ___lc_codepage             2013ab5c     LIBCMTD:nlsdata2.obj
 0003:00072b60       ___lc_collate_cp           2013ab60     LIBCMTD:nlsdata2.obj
 0003:00072b68       __umaskval                 2013ab68     LIBCMTD:crt0dat.obj
 0003:00072b6c       __osver                    2013ab6c     LIBCMTD:crt0dat.obj
 0003:00072b70       __winver                   2013ab70     LIBCMTD:crt0dat.obj
 0003:00072b74       __winmajor                 2013ab74     LIBCMTD:crt0dat.obj
 0003:00072b78       __winminor                 2013ab78     LIBCMTD:crt0dat.obj
 0003:00072b7c       ___argc                    2013ab7c     LIBCMTD:crt0dat.obj
 0003:00072b80       ___argv                    2013ab80     LIBCMTD:crt0dat.obj
 0003:00072b84       ___wargv                   2013ab84     LIBCMTD:crt0dat.obj
 0003:00072b88       __environ                  2013ab88     LIBCMTD:crt0dat.obj
 0003:00072b8c       ___initenv                 2013ab8c     LIBCMTD:crt0dat.obj
 0003:00072b90       __wenviron                 2013ab90     LIBCMTD:crt0dat.obj
 0003:00072b94       ___winitenv                2013ab94     LIBCMTD:crt0dat.obj
 0003:00072b98       __pgmptr                   2013ab98     LIBCMTD:crt0dat.obj
 0003:00072b9c       __wpgmptr                  2013ab9c     LIBCMTD:crt0dat.obj
 0003:00072ba0       __exitflag                 2013aba0     LIBCMTD:crt0dat.obj
 0003:00072ba4       __C_Termination_Done       2013aba4     LIBCMTD:crt0dat.obj
 0003:00072ba8       __C_Exit_Done              2013aba8     LIBCMTD:crt0dat.obj
 0003:00072bd0       __cflush                   2013abd0     LIBCMTD:_file.obj
 0003:00072cf0       __adbgmsg                  2013acf0     LIBCMTD:crt0msg.obj
 0003:00072cf8       ___lc_time_intl            2013acf8     LIBCMTD:inittime.obj
 0003:00072d14       ___lc_id                   2013ad14     LIBCMTD:nlsdata3.obj
 0003:00072d5c       __stdbuf                   2013ad5c     LIBCMTD:_sftbuf.obj
 0003:00072d64       __newmode                  2013ad64     LIBCMTD:_newmode.obj
 0003:00072d68       ?_pnhHeap@@3P6AHI@ZA       2013ad68     LIBCMTD:handler.obj
 0003:00072d78       ___lconv_static_null       2013ad78     LIBCMTD:lconv.obj
 0003:00072e60       _remappedShaders           2013ae60     <common>
 0003:00077d9c       _neutralObelisk            2013fd9c     <common>
 0003:00077dc0       _teamgame                  2013fdc0     <common>
 0003:00077de4       _pushed_p                  2013fde4     <common>
 0003:000797a0       _pushed                    201417a0     <common>
 0003:000817a0       _g_synchronousClients      201497a0     <common>
 0003:000ae640       _g_maxGameClients          20176640     <common>
 0003:000ae760       _g_fraglimit               20176760     <common>
 0003:000ae880       _g_gametype                20176880     <common>
 0003:000ae9a0       _g_password                201769a0     <common>
 0003:000aeac0       _g_dmflags                 20176ac0     <common>
 0003:000aebe0       _pmove_msec                20176be0     <common>
 0003:000aed00       _g_cheats                  20176d00     <common>
 0003:000aee20       _g_capturelimit            20176e20     <common>
 0003:000aef40       _g_weaponTeamRespawn       20176f40     <common>
 0003:000af060       _g_needpass                20177060     <common>
 0003:000af180       _g_speed                   20177180     <common>
 0003:000af2a0       _g_teamForceBalance        201772a0     <common>
 0003:000af3c0       _g_doWarmup                201773c0     <common>
 0003:000af4e0       _g_debugDamage             201774e0     <common>
 0003:000af600       _g_podiumDist              20177600     <common>
 0003:000af720       _g_banIPs                  20177720     <common>
 0003:000af840       _pmove_fixed               20177840     <common>
 0003:000af960       _g_rankings                20177960     <common>
 0003:000afa80       _g_knockback               20177a80     <common>
 0003:000afba0       _g_clients                 20177ba0     <common>
 0003:000bbda0       _g_maxclients              20183da0     <common>
 0003:000bbec0       _g_podiumDrop              20183ec0     <common>
 0003:000bbfe0       _g_timelimit               20183fe0     <common>
 0003:000bc100       _g_filterBan               20184100     <common>
 0003:000bc220       _g_smoothClients           20184220     <common>
 0003:000bc340       _g_debugAlloc              20184340     <common>
 0003:000bc460       _g_inactivity              20184460     <common>
 0003:000bc580       _level                     20184580     <common>
 0003:000be980       _g_restarted               20186980     <common>
 0003:000beaa0       _g_teamAutoJoin            20186aa0     <common>
 0003:000bebc0       _g_blood                   20186bc0     <common>
 0003:000bece0       _g_gravity                 20186ce0     <common>
 0003:000bee00       _g_listEntity              20186e00     <common>
 0003:000bef20       _g_allowVote               20186f20     <common>
 0003:000bf040       _g_entities                20187040     <common>
 0003:0018e040       _g_log                     20256040     <common>
 0003:0018e160       _g_friendlyFire            20256160     <common>
 0003:0018e280       _g_weaponRespawn           20256280     <common>
 0003:0018e3a0       _g_debugMove               202563a0     <common>
 0003:0018e4c0       _g_motd                    202564c0     <common>
 0003:0018e5e0       _g_forcerespawn            202565e0     <common>
 0003:0018e700       _g_warmup                  20256700     <common>
 0003:0018e820       _g_logSync                 20256820     <common>
 0003:0018e940       _g_quadfactor              20256940     <common>
 0003:0018ea60       _g_dedicated               20256a60     <common>
 0003:0018eb80       _itemRegistered            20256b80     <common>
 0003:0018f060       _bot_minplayers            20257060     <common>
 0003:0018f1b0       _g_numArenas               202571b0     <common>
 0003:0018f1b4       _podium2                   202571b4     <common>
 0003:0018f1c4       _podium3                   202571c4     <common>
 0003:0018f1c8       _podium1                   202571c8     <common>
 0003:0018f2c0       _ctftaskpreferences        202572c0     <common>
 0003:0018fee0       _bot_interbreedcycle       20257ee0     <common>
 0003:001902bc       _numbots                   202582bc     <common>
 0003:001902c0       _bot_testsolid             202582c0     <common>
 0003:001903e0       _bot_interbreedwrite       202583e0     <common>
 0003:00190500       _bot_developer             20258500     <common>
 0003:00190620       _bot_testclusters          20258620     <common>
 0003:00190730       _bot_interbreedmatchcount  20258730     <common>
 0003:00190740       _bot_saveroutingcache      20258740     <common>
 0003:00190860       _bot_thinktime             20258860     <common>
 0003:00190980       _botstates                 20258980     <common>
 0003:00190a80       _regularupdate_time        20258a80     <common>
 0003:00190a84       _bot_interbreed            20258a84     <common>
 0003:00190a88       _floattime                 20258a88     <common>
 0003:00190aa0       _bot_pause                 20258aa0     <common>
 0003:00190bc0       _bot_interbreedbots        20258bc0     <common>
 0003:00190ce0       _bot_memorydump            20258ce0     <common>
 0003:00190e00       _bot_report                20258e00     <common>
 0003:00190f20       _bot_interbreedchar        20258f20     <common>
 0003:00191030       _lastteleport_origin       20259030     <common>
 0003:00191d60       _ctf_blueflag              20259d60     <common>
 0003:00191da0       _g_spSkill                 20259da0     <common>
 0003:00191ec0       _bot_testrchat             20259ec0     <common>
 0003:00191fd0       _gametype                  20259fd0     <common>
 0003:00191fe0       _bot_nochat                20259fe0     <common>
 0003:001920f0       _max_bspmodelindex         2025a0f0     <common>
 0003:00192100       _bot_fastchat              2025a100     <common>
 0003:00192220       _bot_rocketjump            2025a220     <common>
 0003:00192340       _bot_predictobstacles      2025a340     <common>
 0003:00192460       _bot_challenge             2025a460     <common>
 0003:00192570       _red_numaltroutegoals      2025a570     <common>
 0003:00192580       _ctf_redflag               2025a580     <common>
 0003:001925b8       _botai_freewaypoints       2025a5b8     <common>
 0003:001925bc       _altroutegoals_setup       2025a5bc     <common>
 0003:001925c0       _lastteleport_time         2025a5c0     <common>
 0003:001925e0       _blue_altroutegoals        2025a5e0     <common>
 0003:001928e0       _blue_numaltroutegoals     2025a8e0     <common>
 0003:00192900       _botai_waypoints           2025a900     <common>
 0003:00195b00       _bot_grapple               2025db00     <common>
 0003:00195c20       _red_altroutegoals         2025dc20     <common>
 0003:00195f20       _maxclients                2025df20     <common>
 0003:00195f24       _numnodeswitches           2025df24     <common>
 0003:00196500       _nodeswitch                2025e500     <common>
 0003:001981c0       _notleader                 202601c0     <common>
 0003:001982fc       ___alternate_form          202602fc     <common>
 0003:0019830c       ___no_lead_zeros           2026030c     <common>
 0003:00198310       ___mbcodepage              20260310     <common>
 0003:00198390       ___mbulinfo                20260390     <common>
 0003:0019839c       ___ismbcodepage            2026039c     <common>
 0003:001983a0       __mbcasemap                202603a0     <common>
 0003:001984a0       __mbctype                  202604a0     <common>
 0003:001985a4       ___mblcid                  202605a4     <common>
 0003:001985a8       ___sbh_sizeHeaderList      202605a8     <common>
 0003:001985b8       ___sbh_indGroupDefer       202605b8     <common>
 0003:001985bc       ___sbh_pHeaderScan         202605bc     <common>
 0003:001985c0       ___sbh_pHeaderDefer        202605c0     <common>
 0003:001985c4       ___sbh_cntHeaderList       202605c4     <common>
 0003:001985c8       ___sbh_pHeaderList         202605c8     <common>
 0003:001985cc       __crtheap                  202605cc     <common>
 0003:001985d8       __pfnDumpClient            202605d8     <common>
 0003:00198600       ___pioinfo                 20260600     <common>
 0003:0019873c       __nhandle                  2026073c     <common>
 0003:00198740       ___piob                    20260740     <common>
 0003:00198a80       __bufin                    20260a80     <common>
 0003:00199a80       __nstream                  20261a80     <common>
 0003:00199a84       ___env_initialized         20261a84     <common>
 0003:00199a94       ___mbctype_initialized     20261a94     <common>
 0003:00199a98       ___onexitend               20261a98     <common>
 0003:00199a9c       ___onexitbegin             20261a9c     <common>
 0003:00199aa0       ___setlc_active            20261aa0     <common>
 0003:00199ab0       ___unguarded_readlc_active 20261ab0     <common>
 0003:00199ab4       __pfnReportHook            20261ab4     <common>
 0003:00199ac0       __acmdln                   20261ac0     <common>
 0003:00199ad0       __pRawDllMain              20261ad0     <common>
 0004:00000000       __IMPORT_DESCRIPTOR_KERNEL32 20262000     kernel32:KERNEL32.dll
 0004:00000014       __NULL_IMPORT_DESCRIPTOR   20262014     kernel32:KERNEL32.dll
 0004:000001bc       __imp__InterlockedDecrement@4 202621bc     kernel32:KERNEL32.dll
 0004:000001c0       __imp__InterlockedIncrement@4 202621c0     kernel32:KERNEL32.dll
 0004:000001c4       __imp__GetModuleFileNameA@12 202621c4     kernel32:KERNEL32.dll
 0004:000001c8       __imp__GetCommandLineA@0   202621c8     kernel32:KERNEL32.dll
 0004:000001cc       __imp__GetVersion@0        202621cc     kernel32:KERNEL32.dll
 0004:000001d0       __imp__GetCurrentThreadId@0 202621d0     kernel32:KERNEL32.dll
 0004:000001d4       __imp__TlsSetValue@8       202621d4     kernel32:KERNEL32.dll
 0004:000001d8       __imp__TlsAlloc@0          202621d8     kernel32:KERNEL32.dll
 0004:000001dc       __imp__TlsFree@4           202621dc     kernel32:KERNEL32.dll
 0004:000001e0       __imp__SetLastError@4      202621e0     kernel32:KERNEL32.dll
 0004:000001e4       __imp__TlsGetValue@4       202621e4     kernel32:KERNEL32.dll
 0004:000001e8       __imp__GetLastError@0      202621e8     kernel32:KERNEL32.dll
 0004:000001ec       __imp__GetCurrentThread@0  202621ec     kernel32:KERNEL32.dll
 0004:000001f0       __imp__GetProcAddress@8    202621f0     kernel32:KERNEL32.dll
 0004:000001f4       __imp__GetModuleHandleA@4  202621f4     kernel32:KERNEL32.dll
 0004:000001f8       __imp__DebugBreak@0        202621f8     kernel32:KERNEL32.dll
 0004:000001fc       __imp__GetStdHandle@4      202621fc     kernel32:KERNEL32.dll
 0004:00000200       __imp__WriteFile@20        20262200     kernel32:KERNEL32.dll
 0004:00000204       __imp__OutputDebugStringA@4 20262204     kernel32:KERNEL32.dll
 0004:00000208       __imp__LoadLibraryA@4      20262208     kernel32:KERNEL32.dll
 0004:0000020c       __imp__InitializeCriticalSection@4 2026220c     kernel32:KERNEL32.dll
 0004:00000210       __imp__DeleteCriticalSection@4 20262210     kernel32:KERNEL32.dll
 0004:00000214       __imp__EnterCriticalSection@4 20262214     kernel32:KERNEL32.dll
 0004:00000218       __imp__LeaveCriticalSection@4 20262218     kernel32:KERNEL32.dll
 0004:0000021c       __imp__ExitProcess@4       2026221c     kernel32:KERNEL32.dll
 0004:00000220       __imp__FatalAppExitA@8     20262220     kernel32:KERNEL32.dll
 0004:00000224       __imp__Sleep@4             20262224     kernel32:KERNEL32.dll
 0004:00000228       __imp__WideCharToMultiByte@32 20262228     kernel32:KERNEL32.dll
 0004:0000022c       __imp__MultiByteToWideChar@24 2026222c     kernel32:KERNEL32.dll
 0004:00000230       __imp__LCMapStringA@24     20262230     kernel32:KERNEL32.dll
 0004:00000234       __imp__LCMapStringW@24     20262234     kernel32:KERNEL32.dll
 0004:00000238       __imp__RaiseException@16   20262238     kernel32:KERNEL32.dll
 0004:0000023c       __imp__TerminateProcess@8  2026223c     kernel32:KERNEL32.dll
 0004:00000240       __imp__GetCurrentProcess@0 20262240     kernel32:KERNEL32.dll
 0004:00000244       __imp__SetConsoleCtrlHandler@8 20262244     kernel32:KERNEL32.dll
 0004:00000248       __imp__SetHandleCount@4    20262248     kernel32:KERNEL32.dll
 0004:0000024c       __imp__GetFileType@4       2026224c     kernel32:KERNEL32.dll
 0004:00000250       __imp__GetStartupInfoA@4   20262250     kernel32:KERNEL32.dll
 0004:00000254       __imp__IsBadWritePtr@8     20262254     kernel32:KERNEL32.dll
 0004:00000258       __imp__IsBadReadPtr@8      20262258     kernel32:KERNEL32.dll
 0004:0000025c       __imp__HeapValidate@12     2026225c     kernel32:KERNEL32.dll
 0004:00000260       __imp__FreeEnvironmentStringsA@4 20262260     kernel32:KERNEL32.dll
 0004:00000264       __imp__FreeEnvironmentStringsW@4 20262264     kernel32:KERNEL32.dll
 0004:00000268       __imp__GetEnvironmentStrings@0 20262268     kernel32:KERNEL32.dll
 0004:0000026c       __imp__GetEnvironmentStringsW@0 2026226c     kernel32:KERNEL32.dll
 0004:00000270       __imp__HeapDestroy@4       20262270     kernel32:KERNEL32.dll
 0004:00000274       __imp__HeapCreate@12       20262274     kernel32:KERNEL32.dll
 0004:00000278       __imp__HeapFree@12         20262278     kernel32:KERNEL32.dll
 0004:0000027c       __imp__VirtualFree@12      2026227c     kernel32:KERNEL32.dll
 0004:00000280       __imp__GetStringTypeA@20   20262280     kernel32:KERNEL32.dll
 0004:00000284       __imp__GetStringTypeW@16   20262284     kernel32:KERNEL32.dll
 0004:00000288       __imp__UnhandledExceptionFilter@4 20262288     kernel32:KERNEL32.dll
 0004:0000028c       __imp__GetCPInfo@8         2026228c     kernel32:KERNEL32.dll
 0004:00000290       __imp__IsValidLocale@8     20262290     kernel32:KERNEL32.dll
 0004:00000294       __imp__IsValidCodePage@4   20262294     kernel32:KERNEL32.dll
 0004:00000298       __imp__GetLocaleInfoA@16   20262298     kernel32:KERNEL32.dll
 0004:0000029c       __imp__EnumSystemLocalesA@8 2026229c     kernel32:KERNEL32.dll
 0004:000002a0       __imp__GetUserDefaultLCID@0 202622a0     kernel32:KERNEL32.dll
 0004:000002a4       __imp__GetVersionExA@4     202622a4     kernel32:KERNEL32.dll
 0004:000002a8       __imp__RtlUnwind@16        202622a8     kernel32:KERNEL32.dll
 0004:000002ac       __imp__SetFilePointer@16   202622ac     kernel32:KERNEL32.dll
 0004:000002b0       __imp__FlushFileBuffers@4  202622b0     kernel32:KERNEL32.dll
 0004:000002b4       __imp__HeapAlloc@12        202622b4     kernel32:KERNEL32.dll
 0004:000002b8       __imp__HeapReAlloc@16      202622b8     kernel32:KERNEL32.dll
 0004:000002bc       __imp__VirtualAlloc@16     202622bc     kernel32:KERNEL32.dll
 0004:000002c0       __imp__GetACP@0            202622c0     kernel32:KERNEL32.dll
 0004:000002c4       __imp__GetOEMCP@0          202622c4     kernel32:KERNEL32.dll
 0004:000002c8       __imp__ReadFile@20         202622c8     kernel32:KERNEL32.dll
 0004:000002cc       __imp__SetStdHandle@8      202622cc     kernel32:KERNEL32.dll
 0004:000002d0       __imp__GetTimeZoneInformation@4 202622d0     kernel32:KERNEL32.dll
 0004:000002d4       __imp__GetLocaleInfoW@16   202622d4     kernel32:KERNEL32.dll
 0004:000002d8       __imp__CloseHandle@4       202622d8     kernel32:KERNEL32.dll
 0004:000002dc       __imp__CompareStringA@24   202622dc     kernel32:KERNEL32.dll
 0004:000002e0       __imp__CompareStringW@24   202622e0     kernel32:KERNEL32.dll
 0004:000002e4       __imp__SetEnvironmentVariableA@8 202622e4     kernel32:KERNEL32.dll
 0004:000002e8       \177KERNEL32_NULL_THUNK_DATA 202622e8     kernel32:KERNEL32.dll

 entry point at        0001:00061f30

